
EM.elf:     file format elf32-littleriscv
EM.elf
architecture: riscv:rv32, flags 0x00000112:
EXEC_P, HAS_SYMS, D_PAGED
start address 0x00000000

Program Header:
    LOAD off    0x00001000 vaddr 0x00000000 paddr 0x00000000 align 2**12
         filesz 0x0000d254 memsz 0x0000d254 flags r-x
    LOAD off    0x0000f000 vaddr 0x20000000 paddr 0x0000d254 align 2**12
         filesz 0x00000218 memsz 0x00000778 flags rw-
    LOAD off    0x0000f800 vaddr 0x20007800 paddr 0x20007800 align 2**12
         filesz 0x00000000 memsz 0x00000800 flags rw-

Sections:
Idx Name          Size      VMA       LMA       File off  Algn
  0 .init         00000038  00000000  00000000  00001000  2**1
                  CONTENTS, ALLOC, LOAD, READONLY, CODE
  1 .vector       000001c8  00000038  00000038  00001038  2**1
                  CONTENTS, ALLOC, LOAD, READONLY, CODE
  2 .text         0000d054  00000200  00000200  00001200  2**3
                  CONTENTS, ALLOC, LOAD, READONLY, CODE
  3 .fini         00000000  0000d254  0000d254  0000f218  2**0
                  CONTENTS, ALLOC, LOAD, CODE
  4 .dalign       00000000  20000000  20000000  0000f218  2**0
                  CONTENTS
  5 .dlalign      00000000  0000d254  0000d254  0000f218  2**0
                  CONTENTS
  6 .data         00000218  20000000  0000d254  0000f000  2**2
                  CONTENTS, ALLOC, LOAD, DATA
  7 .bss          00000560  20000218  0000d46c  0000f218  2**2
                  ALLOC
  8 .stack        00000800  20007800  20007800  0000f800  2**0
                  ALLOC
  9 .debug_info   0007ae3b  00000000  00000000  0000f218  2**0
                  CONTENTS, READONLY, DEBUGGING
 10 .debug_abbrev 000055da  00000000  00000000  0008a053  2**0
                  CONTENTS, READONLY, DEBUGGING
 11 .debug_loc    0002aa05  00000000  00000000  0008f62d  2**0
                  CONTENTS, READONLY, DEBUGGING
 12 .debug_aranges 00002868  00000000  00000000  000ba038  2**3
                  CONTENTS, READONLY, DEBUGGING
 13 .debug_ranges 000029e0  00000000  00000000  000bc8a0  2**3
                  CONTENTS, READONLY, DEBUGGING
 14 .debug_line   0002b482  00000000  00000000  000bf280  2**0
                  CONTENTS, READONLY, DEBUGGING
 15 .debug_str    00013639  00000000  00000000  000ea702  2**0
                  CONTENTS, READONLY, DEBUGGING
 16 .comment      00000033  00000000  00000000  000fdd3b  2**0
                  CONTENTS, READONLY
 17 .debug_frame  0000a1e4  00000000  00000000  000fdd70  2**2
                  CONTENTS, READONLY, DEBUGGING
 18 .stab         00000084  00000000  00000000  00107f54  2**2
                  CONTENTS, READONLY, DEBUGGING
 19 .stabstr      00000117  00000000  00000000  00107fd8  2**0
                  CONTENTS, READONLY, DEBUGGING
SYMBOL TABLE:
00000000 l    d  .init	00000000 .init
00000038 l    d  .vector	00000000 .vector
00000200 l    d  .text	00000000 .text
0000d254 l    d  .fini	00000000 .fini
20000000 l    d  .dalign	00000000 .dalign
0000d254 l    d  .dlalign	00000000 .dlalign
20000000 l    d  .data	00000000 .data
20000218 l    d  .bss	00000000 .bss
20007800 l    d  .stack	00000000 .stack
00000000 l    d  .debug_info	00000000 .debug_info
00000000 l    d  .debug_abbrev	00000000 .debug_abbrev
00000000 l    d  .debug_loc	00000000 .debug_loc
00000000 l    d  .debug_aranges	00000000 .debug_aranges
00000000 l    d  .debug_ranges	00000000 .debug_ranges
00000000 l    d  .debug_line	00000000 .debug_line
00000000 l    d  .debug_str	00000000 .debug_str
00000000 l    d  .comment	00000000 .comment
00000000 l    d  .debug_frame	00000000 .debug_frame
00000000 l    d  .stab	00000000 .stab
00000000 l    d  .stabstr	00000000 .stabstr
00000000 l    df *ABS*	00000000 ./Startup/startup_ch32v30x_D8C.o
00000038 l       .vector	00000000 _vector_base
00000000 l    df *ABS*	00000000 u8g2_buffer.c
000002a8 l     F .text	00000078 u8g2_send_buffer
00000000 l    df *ABS*	00000000 u8g2_d_memory.c
20000230 l     O .bss	00000400 buf.7910
00000000 l    df *ABS*	00000000 u8g2_d_setup.c
00000000 l    df *ABS*	00000000 u8g2_font.c
000003a2 l     F .text	00000014 u8g2_font_get_word
000003b6 l     F .text	00000022 u8g2_add_vector_y
000003d8 l     F .text	00000022 u8g2_add_vector_x
0000050e l     F .text	00000046 u8g2_font_setup_decode
000008dc l     F .text	000000a0 u8g2_draw_string
00000000 l    df *ABS*	00000000 u8g2_hvline.c
00000000 l    df *ABS*	00000000 u8g2_intersection.c
00000000 l    df *ABS*	00000000 u8g2_ll_hvline.c
00000000 l    df *ABS*	00000000 u8g2_setup.c
00000c02 l     F .text	00000072 u8g2_update_dimension_common
00000c78 l     F .text	00000070 u8g2_apply_clip_window
00000000 l    df *ABS*	00000000 u8x8_8x8.c
00000000 l    df *ABS*	00000000 u8x8_byte.c
00000000 l    df *ABS*	00000000 u8x8_cad.c
00000db8 l     F .text	00000030 u8x8_i2c_data_transfer
20000218 l     O .bss	00000001 in_transfer.3047
00000000 l    df *ABS*	00000000 u8x8_d_ssd1306_128x64_noname.c
00000f96 l     F .text	000000de u8x8_d_ssd1306_sh1106_generic
0000ca74 l     O .text	00000035 u8x8_d_ssd1306_128x64_noname_init_seq
0000caac l     O .text	00000018 u8x8_ssd1306_128x64_noname_display_info
200001f4 l     O .data	00000007 u8x8_d_ssd1306_128x64_noname_flip0_seq
200001fc l     O .data	00000007 u8x8_d_ssd1306_128x64_noname_flip1_seq
20000204 l     O .data	00000005 u8x8_d_ssd1306_128x64_noname_powersave0_seq
2000020c l     O .data	00000005 u8x8_d_ssd1306_128x64_noname_powersave1_seq
00000000 l    df *ABS*	00000000 u8x8_display.c
00000000 l    df *ABS*	00000000 u8x8_gpio.c
00000000 l    df *ABS*	00000000 u8x8_setup.c
00000000 l    df *ABS*	00000000 ch32v30x_it.c
00000000 l    df *ABS*	00000000 em.c
00000000 l    df *ABS*	00000000 main.c
20000630 l     O .bss	00000022 buffer.11991
2000021e l     O .bss	00000001 buf_idx.11992
00000000 l    df *ABS*	00000000 moving_average.c
00000000 l    df *ABS*	00000000 system_ch32v30x.c
00000000 l    df *ABS*	00000000 ch32v30x_adc.c
00000000 l    df *ABS*	00000000 ch32v30x_bkp.c
00000000 l    df *ABS*	00000000 ch32v30x_dma.c
00000000 l    df *ABS*	00000000 ch32v30x_gpio.c
00000000 l    df *ABS*	00000000 ch32v30x_i2c.c
00000000 l    df *ABS*	00000000 ch32v30x_misc.c
00000000 l    df *ABS*	00000000 ch32v30x_pwr.c
00000000 l    df *ABS*	00000000 ch32v30x_rcc.c
20000000 l     O .data	00000010 APBAHBPrescTable
200001e4 l     O .data	00000004 ADCPrescTable
00000000 l    df *ABS*	00000000 ch32v30x_tim.c
00000000 l    df *ABS*	00000000 ch32v30x_usart.c
00000000 l    df *ABS*	00000000 debug.c
20000224 l     O .bss	00000002 p_ms
20000226 l     O .bss	00000001 p_us
200001e8 l     O .data	00000004 curbrk.5226
00000000 l    df *ABS*	00000000 w_sqrt.c
00000000 l    df *ABS*	00000000 e_sqrt.c
00000000 l    df *ABS*	00000000 s_matherr.c
00000000 l    df *ABS*	00000000 adddf3.c
00000000 l    df *ABS*	00000000 divdf3.c
00000000 l    df *ABS*	00000000 ledf2.c
00000000 l    df *ABS*	00000000 muldf3.c
00000000 l    df *ABS*	00000000 subdf3.c
00000000 l    df *ABS*	00000000 unorddf2.c
00000000 l    df *ABS*	00000000 floatsidf.c
00000000 l    df *ABS*	00000000 floatunsidf.c
00000000 l    df *ABS*	00000000 floatundidf.c
00000000 l    df *ABS*	00000000 addsf3.c
00000000 l    df *ABS*	00000000 divsf3.c
00000000 l    df *ABS*	00000000 gesf2.c
00000000 l    df *ABS*	00000000 lesf2.c
00000000 l    df *ABS*	00000000 mulsf3.c
00000000 l    df *ABS*	00000000 fixunssfsi.c
00000000 l    df *ABS*	00000000 floatunsisf.c
00000000 l    df *ABS*	00000000 extendsfdf2.c
00000000 l    df *ABS*	00000000 truncdfsf2.c
00000000 l    df *ABS*	00000000 libgcc2.c
00000000 l    df *ABS*	00000000 errno.c
00000000 l    df *ABS*	00000000 nano-vfprintf_float.c
00000000 l    df *ABS*	00000000 nano-vfprintf_i.c
00000000 l    df *ABS*	00000000 nano-vfscanf_float.c
00000000 l    df *ABS*	00000000 printf.c
00000000 l    df *ABS*	00000000 putchar.c
00000000 l    df *ABS*	00000000 sf_nan.c
00000000 l    df *ABS*	00000000 sprintf.c
00000000 l    df *ABS*	00000000 strlen.c
00000000 l    df *ABS*	00000000 strtod.c
00006fe4 l     F .text	0000004e sulp
0000cf38 l     O .text	00000014 fpi.3395
0000cf4c l     O .text	00000014 fpinan.3431
0000cf60 l     O .text	00000028 tinytens
00000000 l    df *ABS*	00000000 strtol.c
00007cc6 l     F .text	00000144 _strtol_l.isra.0
00000000 l    df *ABS*	00000000 dtoa.c
00007e20 l     F .text	0000013a quorem
00000000 l    df *ABS*	00000000 findfp.c
00008b7a l     F .text	0000006a std
00000000 l    df *ABS*	00000000 fwalk.c
00000000 l    df *ABS*	00000000 gdtoa-gethex.c
00008dae l     F .text	00000076 rshift
00000000 l    df *ABS*	00000000 gdtoa-hexnan.c
00009330 l     F .text	0000002c L_shift
00000000 l    df *ABS*	00000000 locale.c
00000000 l    df *ABS*	00000000 localeconv.c
00000000 l    df *ABS*	00000000 malloc.c
00000000 l    df *ABS*	00000000 mbtowc_r.c
00000000 l    df *ABS*	00000000 memchr.c
00000000 l    df *ABS*	00000000 memcpy.c
00000000 l    df *ABS*	00000000 mprec.c
0000d130 l     O .text	0000000c p05.3319
00000000 l    df *ABS*	00000000 nano-mallocr.c
00000000 l    df *ABS*	00000000 nano-mallocr.c
00000000 l    df *ABS*	00000000 nano-mallocr.c
00000000 l    df *ABS*	00000000 nano-vfprintf.c
00000000 l    df *ABS*	00000000 nano-vfprintf.c
0000a4c4 l     F .text	00000028 __sfputc_r
00000000 l    df *ABS*	00000000 putc.c
00000000 l    df *ABS*	00000000 sbrkr.c
00000000 l    df *ABS*	00000000 stdio.c
00000000 l    df *ABS*	00000000 strncmp.c
00000000 l    df *ABS*	00000000 wbuf.c
00000000 l    df *ABS*	00000000 wctomb_r.c
00000000 l    df *ABS*	00000000 writer.c
00000000 l    df *ABS*	00000000 wsetup.c
00000000 l    df *ABS*	00000000 closer.c
00000000 l    df *ABS*	00000000 fflush.c
00000000 l    df *ABS*	00000000 lseekr.c
00000000 l    df *ABS*	00000000 makebuf.c
00000000 l    df *ABS*	00000000 memmove.c
00000000 l    df *ABS*	00000000 mlock.c
00000000 l    df *ABS*	00000000 nano-mallocr.c
00000000 l    df *ABS*	00000000 readr.c
00000000 l    df *ABS*	00000000 fstatr.c
00000000 l    df *ABS*	00000000 isattyr.c
00000000 l    df *ABS*	00000000 nano-mallocr.c
00000000 l    df *ABS*	00000000 eqdf2.c
00000000 l    df *ABS*	00000000 gedf2.c
00000000 l    df *ABS*	00000000 fixdfsi.c
00000000 l    df *ABS*	00000000 fixunsdfsi.c
00000000 l    df *ABS*	00000000 extenddftf2.c
00000000 l    df *ABS*	00000000 trunctfdf2.c
00000000 l    df *ABS*	00000000 close.c
00000000 l    df *ABS*	00000000 fstat.c
00000000 l    df *ABS*	00000000 isatty.c
00000000 l    df *ABS*	00000000 lseek.c
00000000 l    df *ABS*	00000000 read.c
00000000 l    df *ABS*	00000000 u8g2_fonts.c
00000000 l    df *ABS*	00000000 libgcc2.c
00000000 l    df *ABS*	00000000 ctype_.c
00000000 l    df *ABS*	00000000 impure.c
20000010 l     O .data	00000060 impure_data
00000000 l    df *ABS*	00000000 s_lib_ver.c
00000000 l    df *ABS*	00000000 reent.c
00001130 g     F .text	00000022 u8x8_DrawTile
00001b00 g     F .text	000007b8 main
0000a852 g     F .text	0000002a _sbrk_r
0000aa44 g     F .text	0000002e _write_r
000010b6 g     F .text	0000000c u8x8_d_helper_display_setup_memory
0000248e  w      .text	00000000 USBHSWakeup_IRQHandler
00002a3e g     F .text	00000038 DMA_Init
00002422  w      .text	00000000 DMA1_Channel4_IRQHandler
0000af1e g     F .text	0000002c _read_r
0000609e g     F .text	00000008 __errno
00009c02 g     F .text	000000f2 __mdiff
00007f5a g     F .text	00000c20 _dtoa_r
00002414  w      .text	00000000 EXTI1_IRQHandler
20000774 g     O .bss	00000004 errno
00009bd0 g     F .text	00000032 __mcmp
0000a246 g     F .text	0000027e _svfprintf_r
000024b4  w      .text	00000000 DMA2_Channel11_IRQHandler
00009f36 g     F .text	00000036 __copybits
00001514 g     F .text	000000cc P_avg
00002618 g     F .text	0000000a ADC_StartCalibration
0000af4a g     F .text	0000002a _fstat_r
0000c444 g     O .text	000004d6 u8g2_font_crox1c_tr
000012dc g     F .text	0000005a V_rms
000024a4  w      .text	00000000 TIM10_UP_IRQHandler
000059d2 g     F .text	0000008c .hidden __ltsf2
00002880 g     F .text	00000024 BKP_TamperPinCmd
00000ce8 g     F .text	0000001e u8g2_update_page_win_r0
20000778 g       .bss	00000000 _ebss
0000246e  w      .text	00000000 UART4_IRQHandler
00002462  w      .text	00000000 TIM8_CC_IRQHandler
000094f8 g     F .text	00000018 _localeconv_r
000051a4 g     F .text	0000018c .hidden __floatundidf
20000654 g     O .bss	00000004 Wh
0000cfd0 g     O .text	00000020 __sf_fake_stderr
00002480  w      .text	00000000 ETH_IRQHandler
0000244e  w      .text	00000000 SPI2_IRQHandler
00008d42 g     F .text	0000006c _fwalk_reent
0000a246 g     F .text	0000027e _svfiprintf_r
00002434  w      .text	00000000 EXTI9_5_IRQHandler
000036fa g     F .text	00000004 matherr
00002a76 g     F .text	00000014 DMA_Cmd
0000b01a g     F .text	000000ae .hidden __gtdf2
00000c74 g     F .text	00000002 u8g2_update_dimension_r0
00009d3a g     F .text	000000b4 __b2d
00002c8e g     F .text	0000011a I2C_Init
00001670 g     F .text	00000052 TIM3_Int_Init
00002402  w      .text	00000000 SysTick_Handler
000043e2 g     F .text	000000b6 .hidden __ltdf2
00002460  w      .text	00000000 TIM8_TRG_COM_IRQHandler
0000244c  w      .text	00000000 SPI1_IRQHandler
000059d2 g     F .text	0000008c .hidden __lesf2
00002408  w      .text	00000000 PVD_IRQHandler
000018e8 g     F .text	00000184 ADC_Function_Init
0000246a  w      .text	00000000 TIM5_IRQHandler
00006220  w    F .text	000004c4 _printf_float
0000a962 g     F .text	000000c2 __swbuf_r
200001f0 g     O .data	00000004 _impure_ptr
00006f8c g     F .text	00000046 siprintf
2000022c g     O .bss	00000004 __malloc_sbrk_start
00002f6a g     F .text	0000010e RCC_GetClocksFreq
00000c76 g     F .text	00000002 u8g2_draw_l90_r0
2000021a g     O .bss	00000002 Calibrattion_Val1
2000021c g     O .bss	00000002 Calibrattion_Val2
00000200 g     F .text	000000a8 memset
0000b01a g     F .text	000000ae .hidden __gedf2
20000658 g     O .bss	00000004 TxBuf
20007800 g       .stack	00000000 _heap_end
0000d010 g     O .text	00000020 __sf_fake_stdout
000067f0 g     F .text	000002ac _printf_i
00005e12 g     F .text	000000ac .hidden __extendsfdf2
0000b566 g     F .text	0000000c _isatty
000094f2 g     F .text	00000006 __localeconv_l
00009510 g     F .text	0000000c malloc
00009b02 g     F .text	000000ce __lshift
0000245a  w      .text	00000000 USBWakeUp_IRQHandler
0000249c  w      .text	00000000 TIM9_UP_IRQHandler
000022fe g     F .text	000000fa SystemInit
00000b18 g     F .text	00000042 u8g2_IsIntersection
00002bc0 g     F .text	0000000a GPIO_WriteBit
0000594c g     F .text	00000086 .hidden __gtsf2
0000ae78 g     F .text	0000004a memmove
2000065c g     O .bss	00000001 i
0000a936 g     F .text	0000002c strncmp
0000249a  w      .text	00000000 TIM9_BRK_IRQHandler
00002e38 g     F .text	0000001a I2C_CheckEvent
00002406  w      .text	00000000 WWDG_IRQHandler
0000242a  w      .text	00000000 ADC1_2_IRQHandler
00002424  w      .text	00000000 DMA1_Channel5_IRQHandler
00002642 g     F .text	000000b8 ADC_RegularChannelConfig
00000574 g     F .text	000000dc u8g2_font_decode_len
20000660 g     O .bss	00000010 filterStruct_V
0000247e  w      .text	00000000 DMA2_Channel5_IRQHandler
00000b5a g     F .text	000000a8 u8g2_ll_hvline_vertical_top_lsb
0000118e g     F .text	0000002c u8x8_SetupDefaults
0000b57e g     F .text	0000000c _read
20000670 g     O .bss	00000010 filterStruct_I
0000add8 g     F .text	000000a0 __smakebuf_r
00002400  w      .text	00000000 Break_Point_Handler
000096b2 g     F .text	00000044 _Bfree
000032e6 g     F .text	0000001c USART_Cmd
000003fe g     F .text	000000bc u8g2_read_font_info
0000a080 g     F .text	000000d8 _malloc_r
0000b18c g     F .text	000001a4 .hidden __extenddftf2
00002410  w      .text	00000000 RCC_IRQHandler
00002446  w      .text	00000000 I2C1_ER_IRQHandler
0000b55a g     F .text	0000000c _fstat
00000650 g     F .text	0000016a u8g2_font_decode_glyph
000010c2 g     F .text	0000006e u8x8_d_helper_display_init
00003472 g     F .text	000000b6 sqrt
0000d040 g     O .text	00000028 __mprec_bigtens
0000aec6 g     F .text	00000058 _realloc_r
00002de2 g     F .text	0000001e I2C_GenerateSTOP
00006028 g     F .text	00000076 .hidden __clzsi2
0000951c g     F .text	0000003a __ascii_mbtowc
0000240c  w      .text	00000000 RTC_IRQHandler
00002426  w      .text	00000000 DMA1_Channel6_IRQHandler
00002712 g     F .text	0000016e Get_CalibrationValue
00009cf4 g     F .text	00000046 __ulp
000016f6 g     F .text	000000ba IIC_Init
0000116a g     F .text	0000000c u8x8_SetPowerSave
0000513c g     F .text	00000068 .hidden __floatunsidf
20000680 g     O .bss	00000008 Adc_Val
00000afe g     F .text	0000001a u8g2_is_intersection_decision_tree
00000d8a g     F .text	00000016 u8x8_byte_SendByte
00005cee g     F .text	00000056 .hidden __fixunssfsi
00002492  w      .text	00000000 DVP_IRQHandler
000013ea g     F .text	0000004a I_ins
200009e0 g       .data	00000000 __global_pointer$
0000aa72 g     F .text	00000110 __swsetup_r
00005a5e g     F .text	00000290 .hidden __mulsf3
00002438  w      .text	00000000 TIM1_UP_IRQHandler
0000b572 g     F .text	0000000c _lseek
0000249e  w      .text	00000000 TIM9_TRG_COM_IRQHandler
00003342 g     F .text	0000002e Delay_Us
000096f6 g     F .text	00000098 __multadd
0000c91c g     O .text	00000134 u8g2_font_t0_16b_mn
20000688 g     O .bss	00000088 u8g2
00007e0a g     F .text	00000016 _strtol_r
0000ab82 g     F .text	0000002a _close_r
0000241e  w      .text	00000000 DMA1_Channel2_IRQHandler
00005d44 g     F .text	000000ce .hidden __floatunsisf
00002448  w      .text	00000000 I2C2_EV_IRQHandler
0000164e g     F .text	00000022 BKP_Tamper_Init
0000978e g     F .text	000000a6 __s2b
0000938c g     F .text	00000160 __hexnan
00000e18 g     F .text	0000000c u8x8_cad_EndTransfer
00002440  w      .text	00000000 TIM3_IRQHandler
00002428  w      .text	00000000 DMA1_Channel7_IRQHandler
20000214 g     O .data	00000004 _global_impure_ptr
20000710 g     O .bss	0000000a vol_buffer
00003096 g     F .text	0000001e RCC_APB2PeriphClockCmd
00009fd8 g     F .text	000000a8 _free_r
200001e0 g     O .data	00000004 SystemCoreClock
00000358 g     F .text	0000004a u8g2_Setup_ssd1306_i2c_128x64_noname_f
00000800 g       *ABS*	00000000 __stack_size
00005330 g     F .text	0000036a .hidden __addsf3
000060a6 g     F .text	000000ee __cvt
0000242e  w      .text	00000000 USB_LP_CAN1_RX0_IRQHandler
20000000 g       .dalign	00000000 _data_vma
00002452  w      .text	00000000 USART2_IRQHandler
2000071a g     O .bss	00000002 OVER_VOL_FLAG
000031e2 g     F .text	0000001c TIM_GetITStatus
00002e52 g     F .text	00000032 I2C_GetFlagStatus
000030d2 g     F .text	0000001e RCC_APB2PeriphResetCmd
00002e84 g     F .text	00000006 NVIC_PriorityGroupConfig
000066e4 g     F .text	0000010c _printf_common
000025e4 g     F .text	00000010 ADC_Cmd
0000034c g     F .text	0000000c u8g2_m_16_8_f
0000ad80 g     F .text	00000058 __swhatbuf_r
000024b0  w      .text	00000000 DMA2_Channel9_IRQHandler
2000071c g     O .bss	00000004 pf
000024a2  w      .text	00000000 TIM10_BRK_IRQHandler
0000258c g     F .text	00000058 ADC_Init
0000d150 g     O .text	00000101 _ctype_
0000abac g     F .text	0000013e __sflush_r
00006f12 g     F .text	00000042 printf
000011ea g     F .text	00000002 HardFault_Handler
20000720 g     O .bss	0000000a pow_av_buffer
00002e8a g     F .text	000000b8 NVIC_Init
00001074 g     F .text	00000042 u8x8_d_ssd1306_128x64_noname
000023fc  w      .text	00000000 Ecall_M_Mode_Handler
00000a0c g     F .text	00000010 u8g2_draw_hv_line_2dir
00003370 g     F .text	0000002e Delay_Ms
000030b4 g     F .text	0000001e RCC_APB1PeriphClockCmd
00008c36 g     F .text	0000006c __sinit
00000000 g       .init	00000000 _start
0000d068 g     O .text	000000c8 __mprec_tens
00007032 g     F .text	00000c7e _strtod_l
0000a530 g     F .text	0000029e _vfprintf_r
2000072a g     O .bss	00000002 UNDER_VOL_FLAG
0000262a g     F .text	00000018 ADC_SoftwareStartConvCmd
00003528 g     F .text	000001d2 __ieee754_sqrt
00001176 g     F .text	0000000c u8x8_RefreshDisplay
0000245c  w      .text	00000000 TIM8_BRK_IRQHandler
000028d2 g     F .text	0000016c DMA_DeInit
00002484  w      .text	00000000 CAN2_TX_IRQHandler
2000072c g     O .bss	00000004 pw
0000240e  w      .text	00000000 FLASH_IRQHandler
000031cc g     F .text	00000016 TIM_ITConfig
0000330c g     F .text	0000000c USART_GetFlagStatus
00006f54 g     F .text	0000002c putchar
000026fa g     F .text	00000018 ADC_BufferCmd
0000a4ec g     F .text	00000044 __sfputs_r
00002468  w      .text	00000000 SDIO_IRQHandler
00002456  w      .text	00000000 EXTI15_10_IRQHandler
000024ae  w      .text	00000000 DMA2_Channel8_IRQHandler
00002436  w      .text	00000000 TIM1_BRK_IRQHandler
00002dc4 g     F .text	0000001e I2C_GenerateSTART
00006a9c  w    F .text	00000476 _scanf_float
00002450  w      .text	00000000 USART1_IRQHandler
00001434 g     F .text	000000e0 plotter
0000240a  w      .text	00000000 TAMPER_IRQHandler
0000243e  w      .text	00000000 TIM2_IRQHandler
0000115e g     F .text	0000000c u8x8_InitDisplay
00000988 g     F .text	00000056 u8g2_UpdateRefHeight
0000af9c g     F .text	00000014 _malloc_usable_size_r
00001152 g     F .text	0000000c u8x8_SetupMemory
0000097c g     F .text	0000000c u8g2_DrawStr
00002466  w      .text	00000000 FSMC_IRQHandler
00009dee g     F .text	000000d4 __d2b
20000730 g     O .bss	0000000a kWh_buffer
2000073c g     O .bss	00000004 cur
00002432  w      .text	00000000 CAN1_SCE_IRQHandler
0000b130 g     F .text	0000005c .hidden __fixunsdfsi
00007cb0 g     F .text	00000016 _strtod_r
000098e4 g     F .text	0000001c __i2b
0000b54e g     F .text	0000000c _close
00002afe g     F .text	000000c2 GPIO_Init
00000eb4 g     F .text	000000e2 u8x8_cad_ssd13xx_fast_i2c
0000a8ac g     F .text	0000004e __swrite
000030f0 g     F .text	000000c0 TIM_TimeBaseInit
20000740 g     O .bss	0000000a pf_buffer
00002da8 g     F .text	0000001c I2C_Cmd
00009626 g     F .text	0000008c _Balloc
00003302 g     F .text	0000000a USART_SendData
0000320c g     F .text	000000da USART_Init
0000594c g     F .text	00000086 .hidden __gesf2
00008be4 g     F .text	0000000a _cleanup_r
0000247a  w      .text	00000000 DMA2_Channel3_IRQHandler
20008000 g       .stack	00000000 _eusrstack
00006f80 g     F .text	0000000c nanf
0000a8fa g     F .text	00000036 __sseek
0000508e g     F .text	0000003c .hidden __unorddf2
00001378 g     F .text	00000072 V_ins
20000218 g       .bss	00000000 _sbss
0000a7ce g     F .text	00000084 _putc_r
000033fc g     F .text	00000050 _write
000015e0 g     F .text	0000006e u8g2_gpio_and_delay_stm32
000024ac  w      .text	00000000 DMA2_Channel7_IRQHandler
0000245e  w      .text	00000000 TIM8_UP_IRQHandler
00002404  w      .text	00000000 SW_Handler
00004498 g     F .text	000004b8 .hidden __muldf3
000024aa  w      .text	00000000 DMA2_Channel6_IRQHandler
00000d62 g     F .text	00000016 u8x8_ascii_next
00009f6c g     F .text	00000046 __any_on
000016c2 g     F .text	00000034 GPIO_INIT
000028a4 g     F .text	0000001c BKP_WriteBackupRegister
000023fe  w      .text	00000000 Ecall_U_Mode_Handler
000022de g     F .text	00000020 Moving_Average_Compute
00000dac g     F .text	0000000c u8x8_byte_EndTransfer
0000ca50 g     O .text	0000000c u8g2_cb_r0
00000000 g       .init	00000000 _sinit
0000a530 g     F .text	0000029e _vfiprintf_r
2000074c g     O .bss	0000000a pow_rms_buffer
00002464  w      .text	00000000 RNG_IRQHandler
20000220 g     O .bss	00000004 NVIC_Priority_Group
00002482  w      .text	00000000 ETH_WKUP_IRQHandler
000009ea g     F .text	00000022 u8g2_SetFont
00008e64 g     F .text	000004cc __gethex
0000085c g     F .text	00000080 u8g2_DrawGlyph
00002610 g     F .text	00000008 ADC_GetResetCalibrationStatus
00002416  w      .text	00000000 EXTI2_IRQHandler
0000aa24 g     F .text	00000020 __ascii_wctomb
00002420  w      .text	00000000 DMA1_Channel3_IRQHandler
0000cd84 g     O .text	00000100 .hidden __clz_tab
0000248c  w      .text	00000000 OTG_FS_IRQHandler
00001182 g     F .text	00000008 u8x8_gpio_call
00002470  w      .text	00000000 UART5_IRQHandler
00000a1c g     F .text	000000e2 u8g2_DrawHVLine
00006194 g     F .text	0000008c __exponent
00000da0 g     F .text	0000000c u8x8_byte_StartTransfer
00002498  w      .text	00000000 UART8_IRQHandler
000024a8  w      .text	00000000 TIM10_CC_IRQHandler
0000cff0 g     O .text	00000020 __sf_fake_stdin
00000e0c g     F .text	0000000c u8x8_cad_StartTransfer
000009de g     F .text	0000000c u8g2_SetFontPosBaseline
000024b2  w      .text	00000000 DMA2_Channel10_IRQHandler
0000935c g     F .text	00000030 __match
000024b6  w      .text	00000000 handle_reset
00002442  w      .text	00000000 TIM4_IRQHandler
00002454  w      .text	00000000 USART3_IRQHandler
00002e00 g     F .text	0000001e I2C_AcknowledgeConfig
00003078 g     F .text	0000001e RCC_AHBPeriphClockCmd
0000b58c g     O .text	00000eb7 u8g2_font_courB14_tf
00000df4 g     F .text	0000000c u8x8_cad_SendArg
0000a930 g     F .text	00000006 __sclose
00002bca g     F .text	000000c4 GPIO_PinRemapConfig
00000d78 g     F .text	00000006 u8x8_utf8_init
00002496  w      .text	00000000 UART7_IRQHandler
00002afc g     F .text	00000002 DMA_ClearITPendingBit
000004ba g     F .text	00000054 u8g2_font_decode_get_unsigned_bits
20000070 g     O .data	0000016c __global_locale
000011e6 g     F .text	00000004 NMI_Handler
00001a6c g     F .text	00000094 DMA_Tx_Init
00002afa g     F .text	00000002 DMA_GetITStatus
00008e24 g     F .text	00000040 __hexdig_fun
000007ba g     F .text	000000a2 u8g2_font_get_glyph_data
00009fb2 g     F .text	00000026 _calloc_r
00002540 g     F .text	0000004c ADC_DeInit
20000758 g     O .bss	0000000a cur_buffer
00001336 g     F .text	00000042 I_rms
0000d254 g       .dlalign	00000000 _data_lma
00009900 g     F .text	00000144 __multiply
00009a44 g     F .text	000000be __pow5mult
00002418  w      .text	00000000 EXTI3_IRQHandler
0000339e g     F .text	0000005e USART_Printf_Init
0000244a  w      .text	00000000 I2C2_ER_IRQHandler
000031fe g     F .text	0000000e TIM_ClearITPendingBit
0000aec2 g     F .text	00000002 __malloc_lock
00000de8 g     F .text	0000000c u8x8_cad_SendCmd
00002486  w      .text	00000000 CAN2_RX0_IRQHandler
00002ace g     F .text	0000002c DMA_ClearFlag
0000243a  w      .text	00000000 TIM1_TRG_COM_IRQHandler
000011ba g     F .text	0000002c u8x8_Setup
0000b330 g     F .text	0000021e .hidden __trunctfdf2
000094ec g     F .text	00000006 __locale_ctype_ptr_l
20000764 g     O .bss	00000004 vol
000024a0  w      .text	00000000 TIM9_CC_IRQHandler
00002606 g     F .text	0000000a ADC_ResetCalibration
0000987a g     F .text	0000006a __lo0bits
0000a158 g     F .text	000000ee __ssputs_r
00004950 g     F .text	0000073e .hidden __subdf3
000043e2 g     F .text	000000b6 .hidden __ledf2
00000554 g     F .text	00000020 u8g2_font_decode_get_signed_bits
000036fe g     F .text	00000730 .hidden __adddf3
0000acea g     F .text	00000068 _fflush_r
00003e2e g     F .text	000005b4 .hidden __divdf3
00009556 g     F .text	0000001a memchr
000031b0 g     F .text	0000001c TIM_Cmd
00002f58 g     F .text	00000012 RCC_ADCCLKConfig
0000a87c g     F .text	00000030 __sread
00002472  w      .text	00000000 TIM6_IRQHandler
20000218 g       .data	00000000 _edata
00002488  w      .text	00000000 CAN2_RX1_IRQHandler
00002458  w      .text	00000000 RTCAlarm_IRQHandler
00002444  w      .text	00000000 I2C1_EV_IRQHandler
0000243c  w      .text	00000000 TIM1_CC_IRQHandler
0000344c g     F .text	00000026 _sbrk
0000ad52 g     F .text	0000002e _lseek_r
00000d7e g     F .text	0000000c u8x8_byte_SendBytes
00000038 g       .init	00000000 _einit
0000246c  w      .text	00000000 SPI3_IRQHandler
000022b8 g     F .text	00000026 DMA1_Channel1_IRQHandler
000050ca g     F .text	00000072 .hidden __floatsidf
00002e24 g     F .text	00000014 I2C_Send7bitAddress
0000569a g     F .text	000002b2 .hidden __divsf3
0000118a g     F .text	00000004 u8x8_dummy_cb
00002e1e g     F .text	00000006 I2C_SendData
000025f4 g     F .text	00000012 ADC_DMACmd
00002474  w      .text	00000000 TIM7_IRQHandler
00008bee g     F .text	00000048 __sfmoreglue
0000247c  w      .text	00000000 DMA2_Channel4_IRQHandler
00006f8c g     F .text	00000046 sprintf
00002490  w      .text	00000000 USBHS_IRQHandler
00002412  w      .text	00000000 EXTI0_IRQHandler
20000228 g     O .bss	00000004 __malloc_free_list
00002478  w      .text	00000000 DMA2_Channel2_IRQHandler
20000778 g       .bss	00000000 _end
000028c0 g     F .text	00000012 BKP_ClearFlag
00000e00 g     F .text	0000000c u8x8_cad_SendData
00000d20 g     F .text	00000042 u8g2_SetupBuffer
00002a8a g     F .text	00000012 DMA_ITConfig
00009570 g     F .text	000000b6 memcpy
0000afb0 g     F .text	0000006a .hidden __nedf2
000011ec g     F .text	000000f0 getRMS
0000aec4 g     F .text	00000002 __malloc_unlock
00002476  w      .text	00000000 DMA2_Channel1_IRQHandler
00006fd2 g     F .text	00000012 strlen
00008ca2 g     F .text	000000a0 __sfp
000024a6  w      .text	00000000 TIM10_TRG_COM_IRQHandler
0000241a  w      .text	00000000 EXTI4_IRQHandler
00002430  w      .text	00000000 CAN1_RX1_IRQHandler
000003fa g     F .text	00000004 u8g2_font_calc_vref_font
00009834 g     F .text	00000046 __hi0bits
00002f42 g     F .text	00000016 PWR_BackupAccessCmd
00009ec2 g     F .text	00000074 __ratio
00005ebe g     F .text	0000016a .hidden __truncdfsf2
00000336 g     F .text	00000016 u8g2_SendBuffer
000017b0 g     F .text	000000b8 I2C_Master_Transmit
00001868 g     F .text	00000080 u8x8_byte_stm32_hw_i2c
00000d06 g     F .text	0000001a u8g2_SetMaxClipWindow
0000248a  w      .text	00000000 CAN2_SCE_IRQHandler
200001ec g     O .data	00000004 __fdlib_version
00002a9c g     F .text	00000032 DMA_GetFlagStatus
00000320 g     F .text	00000016 u8g2_ClearBuffer
00002622 g     F .text	00000008 ADC_GetCalibrationStatus
0000242c  w      .text	00000000 USB_HP_CAN1_TX_IRQHandler
0000afb0 g     F .text	0000006a .hidden __eqdf2
00006f12 g     F .text	00000042 iprintf
00002494  w      .text	00000000 UART6_IRQHandler
0000b0c8 g     F .text	00000068 .hidden __fixdfsi
0000af74 g     F .text	00000028 _isatty_r
20000768 g     O .bss	0000000a bs
00000e24 g     F .text	00000090 u8x8_cad_SendSequence
00003318 g     F .text	0000002a Delay_Init



Disassembly of section .init:

00000000 <_sinit>:
   0:	4b60206f          	j	24b6 <handle_reset>
   4:	00000013          	nop
   8:	00000013          	nop
   c:	00000013          	nop
  10:	00000013          	nop
  14:	00000013          	nop
  18:	00000013          	nop
  1c:	00000013          	nop
  20:	00000013          	nop
  24:	00000013          	nop
  28:	00000013          	nop
  2c:	00000013          	nop
  30:	00000013          	nop
  34:	00100073          	ebreak

Disassembly of section .vector:

00000038 <_vector_base>:
	...
  40:	11e6                	slli	gp,gp,0x39
  42:	0000                	unimp
  44:	11ea                	slli	gp,gp,0x3a
  46:	0000                	unimp
  48:	0000                	unimp
  4a:	0000                	unimp
  4c:	23fc                	fld	fa5,192(a5)
	...
  56:	0000                	unimp
  58:	23fe                	fld	ft7,472(sp)
  5a:	0000                	unimp
  5c:	2400                	fld	fs0,8(s0)
	...
  66:	0000                	unimp
  68:	2402                	fld	fs0,0(sp)
  6a:	0000                	unimp
  6c:	0000                	unimp
  6e:	0000                	unimp
  70:	2404                	fld	fs1,8(s0)
  72:	0000                	unimp
  74:	0000                	unimp
  76:	0000                	unimp
  78:	2406                	fld	fs0,64(sp)
  7a:	0000                	unimp
  7c:	2408                	fld	fa0,8(s0)
  7e:	0000                	unimp
  80:	240a                	fld	fs0,128(sp)
  82:	0000                	unimp
  84:	240c                	fld	fa1,8(s0)
  86:	0000                	unimp
  88:	240e                	fld	fs0,192(sp)
  8a:	0000                	unimp
  8c:	2410                	fld	fa2,8(s0)
  8e:	0000                	unimp
  90:	2412                	fld	fs0,256(sp)
  92:	0000                	unimp
  94:	2414                	fld	fa3,8(s0)
  96:	0000                	unimp
  98:	2416                	fld	fs0,320(sp)
  9a:	0000                	unimp
  9c:	2418                	fld	fa4,8(s0)
  9e:	0000                	unimp
  a0:	241a                	fld	fs0,384(sp)
  a2:	0000                	unimp
  a4:	22b8                	fld	fa4,64(a3)
  a6:	0000                	unimp
  a8:	241e                	fld	fs0,448(sp)
  aa:	0000                	unimp
  ac:	2420                	fld	fs0,72(s0)
  ae:	0000                	unimp
  b0:	2422                	fld	fs0,8(sp)
  b2:	0000                	unimp
  b4:	2424                	fld	fs1,72(s0)
  b6:	0000                	unimp
  b8:	2426                	fld	fs0,72(sp)
  ba:	0000                	unimp
  bc:	2428                	fld	fa0,72(s0)
  be:	0000                	unimp
  c0:	242a                	fld	fs0,136(sp)
  c2:	0000                	unimp
  c4:	242c                	fld	fa1,72(s0)
  c6:	0000                	unimp
  c8:	242e                	fld	fs0,200(sp)
  ca:	0000                	unimp
  cc:	2430                	fld	fa2,72(s0)
  ce:	0000                	unimp
  d0:	2432                	fld	fs0,264(sp)
  d2:	0000                	unimp
  d4:	2434                	fld	fa3,72(s0)
  d6:	0000                	unimp
  d8:	2436                	fld	fs0,328(sp)
  da:	0000                	unimp
  dc:	2438                	fld	fa4,72(s0)
  de:	0000                	unimp
  e0:	243a                	fld	fs0,392(sp)
  e2:	0000                	unimp
  e4:	243c                	fld	fa5,72(s0)
  e6:	0000                	unimp
  e8:	243e                	fld	fs0,456(sp)
  ea:	0000                	unimp
  ec:	2440                	fld	fs0,136(s0)
  ee:	0000                	unimp
  f0:	2442                	fld	fs0,16(sp)
  f2:	0000                	unimp
  f4:	2444                	fld	fs1,136(s0)
  f6:	0000                	unimp
  f8:	2446                	fld	fs0,80(sp)
  fa:	0000                	unimp
  fc:	2448                	fld	fa0,136(s0)
  fe:	0000                	unimp
 100:	244a                	fld	fs0,144(sp)
 102:	0000                	unimp
 104:	244c                	fld	fa1,136(s0)
 106:	0000                	unimp
 108:	244e                	fld	fs0,208(sp)
 10a:	0000                	unimp
 10c:	2450                	fld	fa2,136(s0)
 10e:	0000                	unimp
 110:	2452                	fld	fs0,272(sp)
 112:	0000                	unimp
 114:	2454                	fld	fa3,136(s0)
 116:	0000                	unimp
 118:	2456                	fld	fs0,336(sp)
 11a:	0000                	unimp
 11c:	2458                	fld	fa4,136(s0)
 11e:	0000                	unimp
 120:	245a                	fld	fs0,400(sp)
 122:	0000                	unimp
 124:	245c                	fld	fa5,136(s0)
 126:	0000                	unimp
 128:	245e                	fld	fs0,464(sp)
 12a:	0000                	unimp
 12c:	2460                	fld	fs0,200(s0)
 12e:	0000                	unimp
 130:	2462                	fld	fs0,24(sp)
 132:	0000                	unimp
 134:	2464                	fld	fs1,200(s0)
 136:	0000                	unimp
 138:	2466                	fld	fs0,88(sp)
 13a:	0000                	unimp
 13c:	2468                	fld	fa0,200(s0)
 13e:	0000                	unimp
 140:	246a                	fld	fs0,152(sp)
 142:	0000                	unimp
 144:	246c                	fld	fa1,200(s0)
 146:	0000                	unimp
 148:	246e                	fld	fs0,216(sp)
 14a:	0000                	unimp
 14c:	2470                	fld	fa2,200(s0)
 14e:	0000                	unimp
 150:	2472                	fld	fs0,280(sp)
 152:	0000                	unimp
 154:	2474                	fld	fa3,200(s0)
 156:	0000                	unimp
 158:	2476                	fld	fs0,344(sp)
 15a:	0000                	unimp
 15c:	2478                	fld	fa4,200(s0)
 15e:	0000                	unimp
 160:	247a                	fld	fs0,408(sp)
 162:	0000                	unimp
 164:	247c                	fld	fa5,200(s0)
 166:	0000                	unimp
 168:	247e                	fld	fs0,472(sp)
 16a:	0000                	unimp
 16c:	2480                	fld	fs0,8(s1)
 16e:	0000                	unimp
 170:	2482                	fld	fs1,0(sp)
 172:	0000                	unimp
 174:	2484                	fld	fs1,8(s1)
 176:	0000                	unimp
 178:	2486                	fld	fs1,64(sp)
 17a:	0000                	unimp
 17c:	2488                	fld	fa0,8(s1)
 17e:	0000                	unimp
 180:	248a                	fld	fs1,128(sp)
 182:	0000                	unimp
 184:	248c                	fld	fa1,8(s1)
 186:	0000                	unimp
 188:	248e                	fld	fs1,192(sp)
 18a:	0000                	unimp
 18c:	2490                	fld	fa2,8(s1)
 18e:	0000                	unimp
 190:	2492                	fld	fs1,256(sp)
 192:	0000                	unimp
 194:	2494                	fld	fa3,8(s1)
 196:	0000                	unimp
 198:	2496                	fld	fs1,320(sp)
 19a:	0000                	unimp
 19c:	2498                	fld	fa4,8(s1)
 19e:	0000                	unimp
 1a0:	249a                	fld	fs1,384(sp)
 1a2:	0000                	unimp
 1a4:	249c                	fld	fa5,8(s1)
 1a6:	0000                	unimp
 1a8:	249e                	fld	fs1,448(sp)
 1aa:	0000                	unimp
 1ac:	24a0                	fld	fs0,72(s1)
 1ae:	0000                	unimp
 1b0:	24a2                	fld	fs1,8(sp)
 1b2:	0000                	unimp
 1b4:	24a4                	fld	fs1,72(s1)
 1b6:	0000                	unimp
 1b8:	24a6                	fld	fs1,72(sp)
 1ba:	0000                	unimp
 1bc:	24a8                	fld	fa0,72(s1)
 1be:	0000                	unimp
 1c0:	24aa                	fld	fs1,136(sp)
 1c2:	0000                	unimp
 1c4:	24ac                	fld	fa1,72(s1)
 1c6:	0000                	unimp
 1c8:	24ae                	fld	fs1,200(sp)
 1ca:	0000                	unimp
 1cc:	24b0                	fld	fa2,72(s1)
 1ce:	0000                	unimp
 1d0:	24b2                	fld	fs1,264(sp)
 1d2:	0000                	unimp
 1d4:	24b4                	fld	fa3,72(s1)
	...

Disassembly of section .text:

00000200 <memset>:
     200:	433d                	li	t1,15
     202:	872a                	mv	a4,a0
     204:	02c37363          	bgeu	t1,a2,22a <memset+0x2a>
     208:	00f77793          	andi	a5,a4,15
     20c:	efbd                	bnez	a5,28a <memset+0x8a>
     20e:	e5ad                	bnez	a1,278 <memset+0x78>
     210:	ff067693          	andi	a3,a2,-16
     214:	8a3d                	andi	a2,a2,15
     216:	96ba                	add	a3,a3,a4
     218:	c30c                	sw	a1,0(a4)
     21a:	c34c                	sw	a1,4(a4)
     21c:	c70c                	sw	a1,8(a4)
     21e:	c74c                	sw	a1,12(a4)
     220:	0741                	addi	a4,a4,16
     222:	fed76be3          	bltu	a4,a3,218 <memset+0x18>
     226:	e211                	bnez	a2,22a <memset+0x2a>
     228:	8082                	ret
     22a:	40c306b3          	sub	a3,t1,a2
     22e:	068a                	slli	a3,a3,0x2
     230:	00000297          	auipc	t0,0x0
     234:	9696                	add	a3,a3,t0
     236:	00a68067          	jr	10(a3)
     23a:	00b70723          	sb	a1,14(a4)
     23e:	00b706a3          	sb	a1,13(a4)
     242:	00b70623          	sb	a1,12(a4)
     246:	00b705a3          	sb	a1,11(a4)
     24a:	00b70523          	sb	a1,10(a4)
     24e:	00b704a3          	sb	a1,9(a4)
     252:	00b70423          	sb	a1,8(a4)
     256:	00b703a3          	sb	a1,7(a4)
     25a:	00b70323          	sb	a1,6(a4)
     25e:	00b702a3          	sb	a1,5(a4)
     262:	00b70223          	sb	a1,4(a4)
     266:	00b701a3          	sb	a1,3(a4)
     26a:	00b70123          	sb	a1,2(a4)
     26e:	00b700a3          	sb	a1,1(a4)
     272:	00b70023          	sb	a1,0(a4)
     276:	8082                	ret
     278:	0ff5f593          	andi	a1,a1,255
     27c:	00859693          	slli	a3,a1,0x8
     280:	8dd5                	or	a1,a1,a3
     282:	01059693          	slli	a3,a1,0x10
     286:	8dd5                	or	a1,a1,a3
     288:	b761                	j	210 <memset+0x10>
     28a:	00279693          	slli	a3,a5,0x2
     28e:	00000297          	auipc	t0,0x0
     292:	9696                	add	a3,a3,t0
     294:	8286                	mv	t0,ra
     296:	fa8680e7          	jalr	-88(a3)
     29a:	8096                	mv	ra,t0
     29c:	17c1                	addi	a5,a5,-16
     29e:	8f1d                	sub	a4,a4,a5
     2a0:	963e                	add	a2,a2,a5
     2a2:	f8c374e3          	bgeu	t1,a2,22a <memset+0x2a>
     2a6:	b7a5                	j	20e <memset+0xe>

000002a8 <u8g2_send_buffer>:
     2a8:	411c                	lw	a5,0(a0)
     2aa:	1101                	addi	sp,sp,-32
     2ac:	ca26                	sw	s1,20(sp)
     2ae:	c84a                	sw	s2,16(sp)
     2b0:	ce06                	sw	ra,28(sp)
     2b2:	cc22                	sw	s0,24(sp)
     2b4:	c64e                	sw	s3,12(sp)
     2b6:	c452                	sw	s4,8(sp)
     2b8:	c256                	sw	s5,4(sp)
     2ba:	03c54a83          	lbu	s5,60(a0)
     2be:	03d54983          	lbu	s3,61(a0)
     2c2:	0117ca03          	lbu	s4,17(a5)
     2c6:	84aa                	mv	s1,a0
     2c8:	4901                	li	s2,0
     2ca:	409c                	lw	a5,0(s1)
     2cc:	5c98                	lw	a4,56(s1)
     2ce:	0ff97413          	andi	s0,s2,255
     2d2:	0107c683          	lbu	a3,16(a5)
     2d6:	00898633          	add	a2,s3,s0
     2da:	0405                	addi	s0,s0,1
     2dc:	02d907b3          	mul	a5,s2,a3
     2e0:	0ff67613          	andi	a2,a2,255
     2e4:	4581                	li	a1,0
     2e6:	8526                	mv	a0,s1
     2e8:	0ff47413          	andi	s0,s0,255
     2ec:	07c2                	slli	a5,a5,0x10
     2ee:	83c1                	srli	a5,a5,0x10
     2f0:	078e                	slli	a5,a5,0x3
     2f2:	07c2                	slli	a5,a5,0x10
     2f4:	83c1                	srli	a5,a5,0x10
     2f6:	973e                	add	a4,a4,a5
     2f8:	639000ef          	jal	ra,1130 <u8x8_DrawTile>
     2fc:	01547963          	bgeu	s0,s5,30e <u8g2_send_buffer+0x66>
     300:	0905                	addi	s2,s2,1
     302:	012987b3          	add	a5,s3,s2
     306:	0ff7f793          	andi	a5,a5,255
     30a:	fd47e0e3          	bltu	a5,s4,2ca <u8g2_send_buffer+0x22>
     30e:	40f2                	lw	ra,28(sp)
     310:	4462                	lw	s0,24(sp)
     312:	44d2                	lw	s1,20(sp)
     314:	4942                	lw	s2,16(sp)
     316:	49b2                	lw	s3,12(sp)
     318:	4a22                	lw	s4,8(sp)
     31a:	4a92                	lw	s5,4(sp)
     31c:	6105                	addi	sp,sp,32
     31e:	8082                	ret

00000320 <u8g2_ClearBuffer>:
     320:	411c                	lw	a5,0(a0)
     322:	4581                	li	a1,0
     324:	0107c603          	lbu	a2,16(a5)
     328:	03c54783          	lbu	a5,60(a0)
     32c:	5d08                	lw	a0,56(a0)
     32e:	02f60633          	mul	a2,a2,a5
     332:	060e                	slli	a2,a2,0x3
     334:	b5f1                	j	200 <memset>

00000336 <u8g2_SendBuffer>:
     336:	1141                	addi	sp,sp,-16
     338:	c422                	sw	s0,8(sp)
     33a:	c606                	sw	ra,12(sp)
     33c:	842a                	mv	s0,a0
     33e:	37ad                	jal	2a8 <u8g2_send_buffer>
     340:	8522                	mv	a0,s0
     342:	4422                	lw	s0,8(sp)
     344:	40b2                	lw	ra,12(sp)
     346:	0141                	addi	sp,sp,16
     348:	62f0006f          	j	1176 <u8x8_RefreshDisplay>

0000034c <u8g2_m_16_8_f>:
     34c:	47a1                	li	a5,8
     34e:	00f50023          	sb	a5,0(a0)
     352:	85018513          	addi	a0,gp,-1968 # 20000230 <buf.7910>
     356:	8082                	ret

00000358 <u8g2_Setup_ssd1306_i2c_128x64_noname_f>:
     358:	1101                	addi	sp,sp,-32
     35a:	ca26                	sw	s1,20(sp)
     35c:	8736                	mv	a4,a3
     35e:	84ae                	mv	s1,a1
     360:	86b2                	mv	a3,a2
     362:	000015b7          	lui	a1,0x1
     366:	00001637          	lui	a2,0x1
     36a:	eb460613          	addi	a2,a2,-332 # eb4 <u8x8_cad_ssd13xx_fast_i2c>
     36e:	07458593          	addi	a1,a1,116 # 1074 <u8x8_d_ssd1306_128x64_noname>
     372:	ce06                	sw	ra,28(sp)
     374:	cc22                	sw	s0,24(sp)
     376:	842a                	mv	s0,a0
     378:	643000ef          	jal	ra,11ba <u8x8_Setup>
     37c:	00f10513          	addi	a0,sp,15
     380:	37f1                	jal	34c <u8g2_m_16_8_f>
     382:	00f14603          	lbu	a2,15(sp)
     386:	000016b7          	lui	a3,0x1
     38a:	8726                	mv	a4,s1
     38c:	85aa                	mv	a1,a0
     38e:	b5a68693          	addi	a3,a3,-1190 # b5a <u8g2_ll_hvline_vertical_top_lsb>
     392:	8522                	mv	a0,s0
     394:	18d000ef          	jal	ra,d20 <u8g2_SetupBuffer>
     398:	40f2                	lw	ra,28(sp)
     39a:	4462                	lw	s0,24(sp)
     39c:	44d2                	lw	s1,20(sp)
     39e:	6105                	addi	sp,sp,32
     3a0:	8082                	ret

000003a2 <u8g2_font_get_word>:
     3a2:	95aa                	add	a1,a1,a0
     3a4:	0005c783          	lbu	a5,0(a1)
     3a8:	0015c503          	lbu	a0,1(a1)
     3ac:	07a2                	slli	a5,a5,0x8
     3ae:	953e                	add	a0,a0,a5
     3b0:	0542                	slli	a0,a0,0x10
     3b2:	8141                	srli	a0,a0,0x10
     3b4:	8082                	ret

000003b6 <u8g2_add_vector_y>:
     3b6:	4785                	li	a5,1
     3b8:	00f68c63          	beq	a3,a5,3d0 <u8g2_add_vector_y+0x1a>
     3bc:	c691                	beqz	a3,3c8 <u8g2_add_vector_y+0x12>
     3be:	4789                	li	a5,2
     3c0:	00f68a63          	beq	a3,a5,3d4 <u8g2_add_vector_y+0x1e>
     3c4:	8d0d                	sub	a0,a0,a1
     3c6:	a011                	j	3ca <u8g2_add_vector_y+0x14>
     3c8:	9532                	add	a0,a0,a2
     3ca:	0ff57513          	andi	a0,a0,255
     3ce:	8082                	ret
     3d0:	952e                	add	a0,a0,a1
     3d2:	bfe5                	j	3ca <u8g2_add_vector_y+0x14>
     3d4:	8d11                	sub	a0,a0,a2
     3d6:	bfd5                	j	3ca <u8g2_add_vector_y+0x14>

000003d8 <u8g2_add_vector_x>:
     3d8:	4785                	li	a5,1
     3da:	00f68c63          	beq	a3,a5,3f2 <u8g2_add_vector_x+0x1a>
     3de:	c691                	beqz	a3,3ea <u8g2_add_vector_x+0x12>
     3e0:	4789                	li	a5,2
     3e2:	00f68a63          	beq	a3,a5,3f6 <u8g2_add_vector_x+0x1e>
     3e6:	9532                	add	a0,a0,a2
     3e8:	a011                	j	3ec <u8g2_add_vector_x+0x14>
     3ea:	952e                	add	a0,a0,a1
     3ec:	0ff57513          	andi	a0,a0,255
     3f0:	8082                	ret
     3f2:	8d11                	sub	a0,a0,a2
     3f4:	bfe5                	j	3ec <u8g2_add_vector_x+0x14>
     3f6:	8d0d                	sub	a0,a0,a1
     3f8:	bfd5                	j	3ec <u8g2_add_vector_x+0x14>

000003fa <u8g2_font_calc_vref_font>:
     3fa:	4501                	li	a0,0
     3fc:	8082                	ret

000003fe <u8g2_read_font_info>:
     3fe:	1141                	addi	sp,sp,-16
     400:	c606                	sw	ra,12(sp)
     402:	c422                	sw	s0,8(sp)
     404:	c226                	sw	s1,4(sp)
     406:	0005c783          	lbu	a5,0(a1)
     40a:	84ae                	mv	s1,a1
     40c:	842a                	mv	s0,a0
     40e:	00f50023          	sb	a5,0(a0)
     412:	0015c783          	lbu	a5,1(a1)
     416:	00f500a3          	sb	a5,1(a0)
     41a:	0025c783          	lbu	a5,2(a1)
     41e:	00f50123          	sb	a5,2(a0)
     422:	0035c783          	lbu	a5,3(a1)
     426:	00f501a3          	sb	a5,3(a0)
     42a:	0045c783          	lbu	a5,4(a1)
     42e:	00f50223          	sb	a5,4(a0)
     432:	0055c783          	lbu	a5,5(a1)
     436:	00f502a3          	sb	a5,5(a0)
     43a:	0065c783          	lbu	a5,6(a1)
     43e:	00f50323          	sb	a5,6(a0)
     442:	0075c783          	lbu	a5,7(a1)
     446:	00f503a3          	sb	a5,7(a0)
     44a:	0085c783          	lbu	a5,8(a1)
     44e:	00f50423          	sb	a5,8(a0)
     452:	0095c783          	lbu	a5,9(a1)
     456:	00f504a3          	sb	a5,9(a0)
     45a:	00a5c783          	lbu	a5,10(a1)
     45e:	00f50523          	sb	a5,10(a0)
     462:	00b5c783          	lbu	a5,11(a1)
     466:	00f505a3          	sb	a5,11(a0)
     46a:	00c5c783          	lbu	a5,12(a1)
     46e:	00f50623          	sb	a5,12(a0)
     472:	00d5c783          	lbu	a5,13(a1)
     476:	00f506a3          	sb	a5,13(a0)
     47a:	00e5c783          	lbu	a5,14(a1)
     47e:	00f50723          	sb	a5,14(a0)
     482:	00f5c783          	lbu	a5,15(a1)
     486:	00f507a3          	sb	a5,15(a0)
     48a:	0105c783          	lbu	a5,16(a1)
     48e:	45c5                	li	a1,17
     490:	00f50823          	sb	a5,16(a0)
     494:	8526                	mv	a0,s1
     496:	3731                	jal	3a2 <u8g2_font_get_word>
     498:	00a41923          	sh	a0,18(s0)
     49c:	45cd                	li	a1,19
     49e:	8526                	mv	a0,s1
     4a0:	3709                	jal	3a2 <u8g2_font_get_word>
     4a2:	00a41a23          	sh	a0,20(s0)
     4a6:	45d5                	li	a1,21
     4a8:	8526                	mv	a0,s1
     4aa:	3de5                	jal	3a2 <u8g2_font_get_word>
     4ac:	00a41b23          	sh	a0,22(s0)
     4b0:	40b2                	lw	ra,12(sp)
     4b2:	4422                	lw	s0,8(sp)
     4b4:	4492                	lw	s1,4(sp)
     4b6:	0141                	addi	sp,sp,16
     4b8:	8082                	ret

000004ba <u8g2_font_decode_get_unsigned_bits>:
     4ba:	4110                	lw	a2,0(a0)
     4bc:	00a54803          	lbu	a6,10(a0)
     4c0:	00064783          	lbu	a5,0(a2)
     4c4:	00b80733          	add	a4,a6,a1
     4c8:	0ff77713          	andi	a4,a4,255
     4cc:	4107d6b3          	sra	a3,a5,a6
     4d0:	479d                	li	a5,7
     4d2:	00e7ed63          	bltu	a5,a4,4ec <u8g2_font_decode_get_unsigned_bits+0x32>
     4d6:	0ff6f793          	andi	a5,a3,255
     4da:	00e50523          	sb	a4,10(a0)
     4de:	557d                	li	a0,-1
     4e0:	00b51533          	sll	a0,a0,a1
     4e4:	fff54513          	not	a0,a0
     4e8:	8d7d                	and	a0,a0,a5
     4ea:	8082                	ret
     4ec:	00160793          	addi	a5,a2,1
     4f0:	c11c                	sw	a5,0(a0)
     4f2:	00164783          	lbu	a5,1(a2)
     4f6:	4621                	li	a2,8
     4f8:	41060633          	sub	a2,a2,a6
     4fc:	00c797b3          	sll	a5,a5,a2
     500:	8fd5                	or	a5,a5,a3
     502:	1761                	addi	a4,a4,-8
     504:	0ff7f793          	andi	a5,a5,255
     508:	0ff77713          	andi	a4,a4,255
     50c:	b7f9                	j	4da <u8g2_font_decode_get_unsigned_bits+0x20>

0000050e <u8g2_font_setup_decode>:
     50e:	1141                	addi	sp,sp,-16
     510:	c606                	sw	ra,12(sp)
     512:	c422                	sw	s0,8(sp)
     514:	c226                	sw	s1,4(sp)
     516:	cd2c                	sw	a1,88(a0)
     518:	06c54583          	lbu	a1,108(a0)
     51c:	05850493          	addi	s1,a0,88
     520:	842a                	mv	s0,a0
     522:	06050123          	sb	zero,98(a0)
     526:	8526                	mv	a0,s1
     528:	3f49                	jal	4ba <u8g2_font_decode_get_unsigned_bits>
     52a:	06d44583          	lbu	a1,109(s0)
     52e:	06a40023          	sb	a0,96(s0)
     532:	8526                	mv	a0,s1
     534:	3759                	jal	4ba <u8g2_font_decode_get_unsigned_bits>
     536:	08644783          	lbu	a5,134(s0)
     53a:	06a400a3          	sb	a0,97(s0)
     53e:	40b2                	lw	ra,12(sp)
     540:	06f40223          	sb	a5,100(s0)
     544:	0017b793          	seqz	a5,a5
     548:	06f402a3          	sb	a5,101(s0)
     54c:	4422                	lw	s0,8(sp)
     54e:	4492                	lw	s1,4(sp)
     550:	0141                	addi	sp,sp,16
     552:	8082                	ret

00000554 <u8g2_font_decode_get_signed_bits>:
     554:	1141                	addi	sp,sp,-16
     556:	c422                	sw	s0,8(sp)
     558:	c606                	sw	ra,12(sp)
     55a:	842e                	mv	s0,a1
     55c:	3fb9                	jal	4ba <u8g2_font_decode_get_unsigned_bits>
     55e:	147d                	addi	s0,s0,-1
     560:	4785                	li	a5,1
     562:	008797b3          	sll	a5,a5,s0
     566:	40b2                	lw	ra,12(sp)
     568:	4422                	lw	s0,8(sp)
     56a:	8d1d                	sub	a0,a0,a5
     56c:	0562                	slli	a0,a0,0x18
     56e:	8561                	srai	a0,a0,0x18
     570:	0141                	addi	sp,sp,16
     572:	8082                	ret

00000574 <u8g2_font_decode_len>:
     574:	715d                	addi	sp,sp,-80
     576:	c4a2                	sw	s0,72(sp)
     578:	de4e                	sw	s3,60(sp)
     57a:	d85a                	sw	s6,48(sp)
     57c:	c686                	sw	ra,76(sp)
     57e:	c2a6                	sw	s1,68(sp)
     580:	c0ca                	sw	s2,64(sp)
     582:	dc52                	sw	s4,56(sp)
     584:	da56                	sw	s5,52(sp)
     586:	d65e                	sw	s7,44(sp)
     588:	d462                	sw	s8,40(sp)
     58a:	d266                	sw	s9,36(sp)
     58c:	d06a                	sw	s10,32(sp)
     58e:	ce6e                	sw	s11,28(sp)
     590:	05e54483          	lbu	s1,94(a0)
     594:	05f54903          	lbu	s2,95(a0)
     598:	842a                	mv	s0,a0
     59a:	89ae                	mv	s3,a1
     59c:	8b32                	mv	s6,a2
     59e:	06044b83          	lbu	s7,96(s0)
     5a2:	0ff9fa93          	andi	s5,s3,255
     5a6:	409b8a33          	sub	s4,s7,s1
     5aa:	0ffa7a13          	andi	s4,s4,255
     5ae:	013a7463          	bgeu	s4,s3,5b6 <u8g2_font_decode_len+0x42>
     5b2:	0ffa7a93          	andi	s5,s4,255
     5b6:	06644703          	lbu	a4,102(s0)
     5ba:	01849c93          	slli	s9,s1,0x18
     5be:	01891c13          	slli	s8,s2,0x18
     5c2:	05c44503          	lbu	a0,92(s0)
     5c6:	418cdc93          	srai	s9,s9,0x18
     5ca:	418c5c13          	srai	s8,s8,0x18
     5ce:	86ba                	mv	a3,a4
     5d0:	8662                	mv	a2,s8
     5d2:	85e6                	mv	a1,s9
     5d4:	c63a                	sw	a4,12(sp)
     5d6:	3509                	jal	3d8 <u8g2_add_vector_x>
     5d8:	4732                	lw	a4,12(sp)
     5da:	05d44d83          	lbu	s11,93(s0)
     5de:	8662                	mv	a2,s8
     5e0:	86ba                	mv	a3,a4
     5e2:	8d2a                	mv	s10,a0
     5e4:	85e6                	mv	a1,s9
     5e6:	856e                	mv	a0,s11
     5e8:	33f9                	jal	3b6 <u8g2_add_vector_y>
     5ea:	862a                	mv	a2,a0
     5ec:	4732                	lw	a4,12(sp)
     5ee:	020b0863          	beqz	s6,61e <u8g2_font_decode_len+0xaa>
     5f2:	06444783          	lbu	a5,100(s0)
     5f6:	08f40323          	sb	a5,134(s0)
     5fa:	86d6                	mv	a3,s5
     5fc:	85ea                	mv	a1,s10
     5fe:	8522                	mv	a0,s0
     600:	2931                	jal	a1c <u8g2_DrawHVLine>
     602:	94ce                	add	s1,s1,s3
     604:	0ff4f493          	andi	s1,s1,255
     608:	0349e163          	bltu	s3,s4,62a <u8g2_font_decode_len+0xb6>
     60c:	417484b3          	sub	s1,s1,s7
     610:	0905                	addi	s2,s2,1
     612:	0ff4f993          	andi	s3,s1,255
     616:	0ff97913          	andi	s2,s2,255
     61a:	4481                	li	s1,0
     61c:	b749                	j	59e <u8g2_font_decode_len+0x2a>
     61e:	06344783          	lbu	a5,99(s0)
     622:	f3e5                	bnez	a5,602 <u8g2_font_decode_len+0x8e>
     624:	06544783          	lbu	a5,101(s0)
     628:	b7f9                	j	5f6 <u8g2_font_decode_len+0x82>
     62a:	04940f23          	sb	s1,94(s0)
     62e:	05840fa3          	sb	s8,95(s0)
     632:	40b6                	lw	ra,76(sp)
     634:	4426                	lw	s0,72(sp)
     636:	4496                	lw	s1,68(sp)
     638:	4906                	lw	s2,64(sp)
     63a:	59f2                	lw	s3,60(sp)
     63c:	5a62                	lw	s4,56(sp)
     63e:	5ad2                	lw	s5,52(sp)
     640:	5b42                	lw	s6,48(sp)
     642:	5bb2                	lw	s7,44(sp)
     644:	5c22                	lw	s8,40(sp)
     646:	5c92                	lw	s9,36(sp)
     648:	5d02                	lw	s10,32(sp)
     64a:	4df2                	lw	s11,28(sp)
     64c:	6161                	addi	sp,sp,80
     64e:	8082                	ret

00000650 <u8g2_font_decode_glyph>:
     650:	7179                	addi	sp,sp,-48
     652:	d606                	sw	ra,44(sp)
     654:	d422                	sw	s0,40(sp)
     656:	d226                	sw	s1,36(sp)
     658:	842a                	mv	s0,a0
     65a:	ce4e                	sw	s3,28(sp)
     65c:	cc52                	sw	s4,24(sp)
     65e:	05850993          	addi	s3,a0,88
     662:	ca56                	sw	s5,20(sp)
     664:	c65e                	sw	s7,12(sp)
     666:	c462                	sw	s8,8(sp)
     668:	d04a                	sw	s2,32(sp)
     66a:	c85a                	sw	s6,16(sp)
     66c:	c266                	sw	s9,4(sp)
     66e:	3545                	jal	50e <u8g2_font_setup_decode>
     670:	06e44583          	lbu	a1,110(s0)
     674:	854e                	mv	a0,s3
     676:	06140a03          	lb	s4,97(s0)
     67a:	3de9                	jal	554 <u8g2_font_decode_get_signed_bits>
     67c:	06f44583          	lbu	a1,111(s0)
     680:	8c2a                	mv	s8,a0
     682:	854e                	mv	a0,s3
     684:	3dc1                	jal	554 <u8g2_font_decode_get_signed_bits>
     686:	07044583          	lbu	a1,112(s0)
     68a:	8baa                	mv	s7,a0
     68c:	854e                	mv	a0,s3
     68e:	35d9                	jal	554 <u8g2_font_decode_get_signed_bits>
     690:	06040483          	lb	s1,96(s0)
     694:	8aaa                	mv	s5,a0
     696:	08905f63          	blez	s1,734 <u8g2_font_decode_glyph+0xe4>
     69a:	0ffa7913          	andi	s2,s4,255
     69e:	9bca                	add	s7,s7,s2
     6a0:	06644c83          	lbu	s9,102(s0)
     6a4:	41700bb3          	neg	s7,s7
     6a8:	05c44503          	lbu	a0,92(s0)
     6ac:	0be2                	slli	s7,s7,0x18
     6ae:	418bdb93          	srai	s7,s7,0x18
     6b2:	86e6                	mv	a3,s9
     6b4:	865e                	mv	a2,s7
     6b6:	85e2                	mv	a1,s8
     6b8:	3305                	jal	3d8 <u8g2_add_vector_x>
     6ba:	04a40e23          	sb	a0,92(s0)
     6be:	8b2a                	mv	s6,a0
     6c0:	05d44503          	lbu	a0,93(s0)
     6c4:	865e                	mv	a2,s7
     6c6:	86e6                	mv	a3,s9
     6c8:	85e2                	mv	a1,s8
     6ca:	31f5                	jal	3b6 <u8g2_add_vector_y>
     6cc:	04a40ea3          	sb	a0,93(s0)
     6d0:	4785                	li	a5,1
     6d2:	862a                	mv	a2,a0
     6d4:	08fc8563          	beq	s9,a5,75e <u8g2_font_decode_glyph+0x10e>
     6d8:	060c8c63          	beqz	s9,750 <u8g2_font_decode_glyph+0x100>
     6dc:	4789                	li	a5,2
     6de:	08fc8c63          	beq	s9,a5,776 <u8g2_font_decode_glyph+0x126>
     6e2:	478d                	li	a5,3
     6e4:	0afc8e63          	beq	s9,a5,7a0 <u8g2_font_decode_glyph+0x150>
     6e8:	872a                	mv	a4,a0
     6ea:	86da                	mv	a3,s6
     6ec:	85da                	mv	a1,s6
     6ee:	8522                	mv	a0,s0
     6f0:	2125                	jal	b18 <u8g2_IsIntersection>
     6f2:	c129                	beqz	a0,734 <u8g2_font_decode_glyph+0xe4>
     6f4:	04041f23          	sh	zero,94(s0)
     6f8:	06a44583          	lbu	a1,106(s0)
     6fc:	854e                	mv	a0,s3
     6fe:	3b75                	jal	4ba <u8g2_font_decode_get_unsigned_bits>
     700:	06b44583          	lbu	a1,107(s0)
     704:	892a                	mv	s2,a0
     706:	854e                	mv	a0,s3
     708:	3b4d                	jal	4ba <u8g2_font_decode_get_unsigned_bits>
     70a:	84aa                	mv	s1,a0
     70c:	4601                	li	a2,0
     70e:	85ca                	mv	a1,s2
     710:	8522                	mv	a0,s0
     712:	358d                	jal	574 <u8g2_font_decode_len>
     714:	85a6                	mv	a1,s1
     716:	8522                	mv	a0,s0
     718:	4605                	li	a2,1
     71a:	3da9                	jal	574 <u8g2_font_decode_len>
     71c:	4585                	li	a1,1
     71e:	854e                	mv	a0,s3
     720:	3b69                	jal	4ba <u8g2_font_decode_get_unsigned_bits>
     722:	f56d                	bnez	a0,70c <u8g2_font_decode_glyph+0xbc>
     724:	05f40783          	lb	a5,95(s0)
     728:	fd47c8e3          	blt	a5,s4,6f8 <u8g2_font_decode_glyph+0xa8>
     72c:	06444783          	lbu	a5,100(s0)
     730:	08f40323          	sb	a5,134(s0)
     734:	50b2                	lw	ra,44(sp)
     736:	5422                	lw	s0,40(sp)
     738:	8556                	mv	a0,s5
     73a:	5492                	lw	s1,36(sp)
     73c:	5902                	lw	s2,32(sp)
     73e:	49f2                	lw	s3,28(sp)
     740:	4a62                	lw	s4,24(sp)
     742:	4ad2                	lw	s5,20(sp)
     744:	4b42                	lw	s6,16(sp)
     746:	4bb2                	lw	s7,12(sp)
     748:	4c22                	lw	s8,8(sp)
     74a:	4c92                	lw	s9,4(sp)
     74c:	6145                	addi	sp,sp,48
     74e:	8082                	ret
     750:	94da                	add	s1,s1,s6
     752:	992a                	add	s2,s2,a0
     754:	0ff4f693          	andi	a3,s1,255
     758:	0ff97713          	andi	a4,s2,255
     75c:	bf41                	j	6ec <u8g2_font_decode_glyph+0x9c>
     75e:	412b0933          	sub	s2,s6,s2
     762:	0905                	addi	s2,s2,1
     764:	0b05                	addi	s6,s6,1
     766:	94aa                	add	s1,s1,a0
     768:	0ffb7693          	andi	a3,s6,255
     76c:	0ff4f713          	andi	a4,s1,255
     770:	0ff97b13          	andi	s6,s2,255
     774:	bfa5                	j	6ec <u8g2_font_decode_glyph+0x9c>
     776:	4705                	li	a4,1
     778:	409704b3          	sub	s1,a4,s1
     77c:	009b07b3          	add	a5,s6,s1
     780:	41270933          	sub	s2,a4,s2
     784:	001b0493          	addi	s1,s6,1
     788:	0ff4f693          	andi	a3,s1,255
     78c:	992a                	add	s2,s2,a0
     78e:	00150493          	addi	s1,a0,1
     792:	0ff4f713          	andi	a4,s1,255
     796:	0ff97613          	andi	a2,s2,255
     79a:	0ff7fb13          	andi	s6,a5,255
     79e:	b7b9                	j	6ec <u8g2_font_decode_glyph+0x9c>
     7a0:	995a                	add	s2,s2,s6
     7a2:	409504b3          	sub	s1,a0,s1
     7a6:	0ff97693          	andi	a3,s2,255
     7aa:	0485                	addi	s1,s1,1
     7ac:	00150913          	addi	s2,a0,1
     7b0:	0ff97713          	andi	a4,s2,255
     7b4:	0ff4f613          	andi	a2,s1,255
     7b8:	bf15                	j	6ec <u8g2_font_decode_glyph+0x9c>

000007ba <u8g2_font_get_glyph_data>:
     7ba:	493c                	lw	a5,80(a0)
     7bc:	0ff00713          	li	a4,255
     7c0:	07dd                	addi	a5,a5,23
     7c2:	02b76a63          	bltu	a4,a1,7f6 <u8g2_font_get_glyph_data+0x3c>
     7c6:	06000713          	li	a4,96
     7ca:	00b77f63          	bgeu	a4,a1,7e8 <u8g2_font_get_glyph_data+0x2e>
     7ce:	07c55703          	lhu	a4,124(a0)
     7d2:	97ba                	add	a5,a5,a4
     7d4:	0017c703          	lbu	a4,1(a5)
     7d8:	cf35                	beqz	a4,854 <__stack_size+0x54>
     7da:	0007c683          	lbu	a3,0(a5)
     7de:	feb69ae3          	bne	a3,a1,7d2 <u8g2_font_get_glyph_data+0x18>
     7e2:	00278513          	addi	a0,a5,2
     7e6:	8082                	ret
     7e8:	04000713          	li	a4,64
     7ec:	feb774e3          	bgeu	a4,a1,7d4 <u8g2_font_get_glyph_data+0x1a>
     7f0:	07a55703          	lhu	a4,122(a0)
     7f4:	bff9                	j	7d2 <u8g2_font_get_glyph_data+0x18>
     7f6:	1141                	addi	sp,sp,-16
     7f8:	c422                	sw	s0,8(sp)
     7fa:	07e55403          	lhu	s0,126(a0)
     7fe:	c226                	sw	s1,4(sp)
     800:	c04a                	sw	s2,0(sp)
     802:	943e                	add	s0,s0,a5
     804:	c606                	sw	ra,12(sp)
     806:	84ae                	mv	s1,a1
     808:	8922                	mv	s2,s0
     80a:	4581                	li	a1,0
     80c:	854a                	mv	a0,s2
     80e:	3e51                	jal	3a2 <u8g2_font_get_word>
     810:	942a                	add	s0,s0,a0
     812:	4589                	li	a1,2
     814:	854a                	mv	a0,s2
     816:	3671                	jal	3a2 <u8g2_font_get_word>
     818:	0911                	addi	s2,s2,4
     81a:	fe9568e3          	bltu	a0,s1,80a <__stack_size+0xa>
     81e:	00144783          	lbu	a5,1(s0)
     822:	00044703          	lbu	a4,0(s0)
     826:	07a2                	slli	a5,a5,0x8
     828:	8fd9                	or	a5,a5,a4
     82a:	00879713          	slli	a4,a5,0x8
     82e:	83a1                	srli	a5,a5,0x8
     830:	8fd9                	or	a5,a5,a4
     832:	07c2                	slli	a5,a5,0x10
     834:	83c1                	srli	a5,a5,0x10
     836:	c38d                	beqz	a5,858 <__stack_size+0x58>
     838:	00f49a63          	bne	s1,a5,84c <__stack_size+0x4c>
     83c:	00340513          	addi	a0,s0,3
     840:	40b2                	lw	ra,12(sp)
     842:	4422                	lw	s0,8(sp)
     844:	4492                	lw	s1,4(sp)
     846:	4902                	lw	s2,0(sp)
     848:	0141                	addi	sp,sp,16
     84a:	8082                	ret
     84c:	00244783          	lbu	a5,2(s0)
     850:	943e                	add	s0,s0,a5
     852:	b7f1                	j	81e <__stack_size+0x1e>
     854:	4501                	li	a0,0
     856:	8082                	ret
     858:	4501                	li	a0,0
     85a:	b7dd                	j	840 <__stack_size+0x40>

0000085c <u8g2_DrawGlyph>:
     85c:	1101                	addi	sp,sp,-32
     85e:	cc22                	sw	s0,24(sp)
     860:	ca26                	sw	s1,20(sp)
     862:	c84a                	sw	s2,16(sp)
     864:	c64e                	sw	s3,12(sp)
     866:	ce06                	sw	ra,28(sp)
     868:	06654783          	lbu	a5,102(a0)
     86c:	4705                	li	a4,1
     86e:	842a                	mv	s0,a0
     870:	892e                	mv	s2,a1
     872:	84b2                	mv	s1,a2
     874:	89b6                	mv	s3,a3
     876:	04e78463          	beq	a5,a4,8be <u8g2_DrawGlyph+0x62>
     87a:	cf85                	beqz	a5,8b2 <u8g2_DrawGlyph+0x56>
     87c:	4709                	li	a4,2
     87e:	04e78763          	beq	a5,a4,8cc <u8g2_DrawGlyph+0x70>
     882:	470d                	li	a4,3
     884:	04e78863          	beq	a5,a4,8d4 <u8g2_DrawGlyph+0x78>
     888:	85ce                	mv	a1,s3
     88a:	05240e23          	sb	s2,92(s0)
     88e:	04940ea3          	sb	s1,93(s0)
     892:	8522                	mv	a0,s0
     894:	371d                	jal	7ba <u8g2_font_get_glyph_data>
     896:	85aa                	mv	a1,a0
     898:	4501                	li	a0,0
     89a:	c589                	beqz	a1,8a4 <u8g2_DrawGlyph+0x48>
     89c:	8522                	mv	a0,s0
     89e:	3b4d                	jal	650 <u8g2_font_decode_glyph>
     8a0:	0ff57513          	andi	a0,a0,255
     8a4:	40f2                	lw	ra,28(sp)
     8a6:	4462                	lw	s0,24(sp)
     8a8:	44d2                	lw	s1,20(sp)
     8aa:	4942                	lw	s2,16(sp)
     8ac:	49b2                	lw	s3,12(sp)
     8ae:	6105                	addi	sp,sp,32
     8b0:	8082                	ret
     8b2:	497c                	lw	a5,84(a0)
     8b4:	9782                	jalr	a5
     8b6:	94aa                	add	s1,s1,a0
     8b8:	0ff4f493          	andi	s1,s1,255
     8bc:	b7f1                	j	888 <u8g2_DrawGlyph+0x2c>
     8be:	497c                	lw	a5,84(a0)
     8c0:	9782                	jalr	a5
     8c2:	40a90933          	sub	s2,s2,a0
     8c6:	0ff97913          	andi	s2,s2,255
     8ca:	bf7d                	j	888 <u8g2_DrawGlyph+0x2c>
     8cc:	497c                	lw	a5,84(a0)
     8ce:	9782                	jalr	a5
     8d0:	8c89                	sub	s1,s1,a0
     8d2:	b7dd                	j	8b8 <u8g2_DrawGlyph+0x5c>
     8d4:	497c                	lw	a5,84(a0)
     8d6:	9782                	jalr	a5
     8d8:	992a                	add	s2,s2,a0
     8da:	b7f5                	j	8c6 <u8g2_DrawGlyph+0x6a>

000008dc <u8g2_draw_string>:
     8dc:	7179                	addi	sp,sp,-48
     8de:	d04a                	sw	s2,32(sp)
     8e0:	6941                	lui	s2,0x10
     8e2:	d422                	sw	s0,40(sp)
     8e4:	d226                	sw	s1,36(sp)
     8e6:	ce4e                	sw	s3,28(sp)
     8e8:	cc52                	sw	s4,24(sp)
     8ea:	ca56                	sw	s5,20(sp)
     8ec:	c85a                	sw	s6,16(sp)
     8ee:	c65e                	sw	s7,12(sp)
     8f0:	c462                	sw	s8,8(sp)
     8f2:	c266                	sw	s9,4(sp)
     8f4:	d606                	sw	ra,44(sp)
     8f6:	8caa                	mv	s9,a0
     8f8:	842e                	mv	s0,a1
     8fa:	84b2                	mv	s1,a2
     8fc:	89b6                	mv	s3,a3
     8fe:	fff90a13          	addi	s4,s2,-1 # ffff <_data_lma+0x2dab>
     902:	299d                	jal	d78 <u8x8_utf8_init>
     904:	4c01                	li	s8,0
     906:	1979                	addi	s2,s2,-2
     908:	4a85                	li	s5,1
     90a:	4b09                	li	s6,2
     90c:	4b8d                	li	s7,3
     90e:	004ca783          	lw	a5,4(s9)
     912:	0009c583          	lbu	a1,0(s3)
     916:	8566                	mv	a0,s9
     918:	9782                	jalr	a5
     91a:	86aa                	mv	a3,a0
     91c:	05450263          	beq	a0,s4,960 <u8g2_draw_string+0x84>
     920:	0985                	addi	s3,s3,1
     922:	ff2506e3          	beq	a0,s2,90e <u8g2_draw_string+0x32>
     926:	8626                	mv	a2,s1
     928:	85a2                	mv	a1,s0
     92a:	8566                	mv	a0,s9
     92c:	3f05                	jal	85c <u8g2_DrawGlyph>
     92e:	066cc783          	lbu	a5,102(s9)
     932:	01578f63          	beq	a5,s5,950 <u8g2_draw_string+0x74>
     936:	cb89                	beqz	a5,948 <u8g2_draw_string+0x6c>
     938:	03678063          	beq	a5,s6,958 <u8g2_draw_string+0x7c>
     93c:	03778063          	beq	a5,s7,95c <u8g2_draw_string+0x80>
     940:	9c2a                	add	s8,s8,a0
     942:	0ffc7c13          	andi	s8,s8,255
     946:	b7e1                	j	90e <u8g2_draw_string+0x32>
     948:	942a                	add	s0,s0,a0
     94a:	0ff47413          	andi	s0,s0,255
     94e:	bfcd                	j	940 <u8g2_draw_string+0x64>
     950:	94aa                	add	s1,s1,a0
     952:	0ff4f493          	andi	s1,s1,255
     956:	b7ed                	j	940 <u8g2_draw_string+0x64>
     958:	8c09                	sub	s0,s0,a0
     95a:	bfc5                	j	94a <u8g2_draw_string+0x6e>
     95c:	8c89                	sub	s1,s1,a0
     95e:	bfd5                	j	952 <u8g2_draw_string+0x76>
     960:	50b2                	lw	ra,44(sp)
     962:	5422                	lw	s0,40(sp)
     964:	8562                	mv	a0,s8
     966:	5492                	lw	s1,36(sp)
     968:	5902                	lw	s2,32(sp)
     96a:	49f2                	lw	s3,28(sp)
     96c:	4a62                	lw	s4,24(sp)
     96e:	4ad2                	lw	s5,20(sp)
     970:	4b42                	lw	s6,16(sp)
     972:	4bb2                	lw	s7,12(sp)
     974:	4c22                	lw	s8,8(sp)
     976:	4c92                	lw	s9,4(sp)
     978:	6145                	addi	sp,sp,48
     97a:	8082                	ret

0000097c <u8g2_DrawStr>:
     97c:	000017b7          	lui	a5,0x1
     980:	d6278793          	addi	a5,a5,-670 # d62 <u8x8_ascii_next>
     984:	c15c                	sw	a5,4(a0)
     986:	bf99                	j	8dc <u8g2_draw_string>

00000988 <u8g2_UpdateRefHeight>:
     988:	493c                	lw	a5,80(a0)
     98a:	cba9                	beqz	a5,9dc <u8g2_UpdateRefHeight+0x54>
     98c:	07550603          	lb	a2,117(a0)
     990:	07650683          	lb	a3,118(a0)
     994:	08154783          	lbu	a5,129(a0)
     998:	08c50123          	sb	a2,130(a0)
     99c:	08d501a3          	sb	a3,131(a0)
     9a0:	cf95                	beqz	a5,9dc <u8g2_UpdateRefHeight+0x54>
     9a2:	4705                	li	a4,1
     9a4:	00e79f63          	bne	a5,a4,9c2 <u8g2_UpdateRefHeight+0x3a>
     9a8:	07750783          	lb	a5,119(a0)
     9ac:	00f65463          	bge	a2,a5,9b4 <u8g2_UpdateRefHeight+0x2c>
     9b0:	08f50123          	sb	a5,130(a0)
     9b4:	07850783          	lb	a5,120(a0)
     9b8:	02d7d263          	bge	a5,a3,9dc <u8g2_UpdateRefHeight+0x54>
     9bc:	08f501a3          	sb	a5,131(a0)
     9c0:	8082                	ret
     9c2:	07250783          	lb	a5,114(a0)
     9c6:	07450703          	lb	a4,116(a0)
     9ca:	97ba                	add	a5,a5,a4
     9cc:	00f65463          	bge	a2,a5,9d4 <u8g2_UpdateRefHeight+0x4c>
     9d0:	08f50123          	sb	a5,130(a0)
     9d4:	00d75463          	bge	a4,a3,9dc <u8g2_UpdateRefHeight+0x54>
     9d8:	08e501a3          	sb	a4,131(a0)
     9dc:	8082                	ret

000009de <u8g2_SetFontPosBaseline>:
     9de:	000007b7          	lui	a5,0x0
     9e2:	3fa78793          	addi	a5,a5,1018 # 3fa <u8g2_font_calc_vref_font>
     9e6:	c97c                	sw	a5,84(a0)
     9e8:	8082                	ret

000009ea <u8g2_SetFont>:
     9ea:	4938                	lw	a4,80(a0)
     9ec:	00b70f63          	beq	a4,a1,a0a <u8g2_SetFont+0x20>
     9f0:	1141                	addi	sp,sp,-16
     9f2:	c422                	sw	s0,8(sp)
     9f4:	c606                	sw	ra,12(sp)
     9f6:	842a                	mv	s0,a0
     9f8:	c82c                	sw	a1,80(s0)
     9fa:	06850513          	addi	a0,a0,104
     9fe:	3401                	jal	3fe <u8g2_read_font_info>
     a00:	8522                	mv	a0,s0
     a02:	4422                	lw	s0,8(sp)
     a04:	40b2                	lw	ra,12(sp)
     a06:	0141                	addi	sp,sp,16
     a08:	b741                	j	988 <u8g2_UpdateRefHeight>
     a0a:	8082                	ret

00000a0c <u8g2_draw_hv_line_2dir>:
     a0c:	04054783          	lbu	a5,64(a0)
     a10:	03052303          	lw	t1,48(a0)
     a14:	8e1d                	sub	a2,a2,a5
     a16:	0ff67613          	andi	a2,a2,255
     a1a:	8302                	jr	t1

00000a1c <u8g2_DrawHVLine>:
     a1c:	08054783          	lbu	a5,128(a0)
     a20:	c7c1                	beqz	a5,aa8 <u8g2_DrawHVLine+0x8c>
     a22:	c2d9                	beqz	a3,aa8 <u8g2_DrawHVLine+0x8c>
     a24:	4785                	li	a5,1
     a26:	00d7f963          	bgeu	a5,a3,a38 <u8g2_DrawHVLine+0x1c>
     a2a:	4789                	li	a5,2
     a2c:	06f71363          	bne	a4,a5,a92 <u8g2_DrawHVLine+0x76>
     a30:	0585                	addi	a1,a1,1
     a32:	8d95                	sub	a1,a1,a3
     a34:	0ff5f593          	andi	a1,a1,255
     a38:	8b05                	andi	a4,a4,1
     a3a:	eb25                	bnez	a4,aaa <u8g2_DrawHVLine+0x8e>
     a3c:	04754783          	lbu	a5,71(a0)
     a40:	06f66463          	bltu	a2,a5,aa8 <u8g2_DrawHVLine+0x8c>
     a44:	04854783          	lbu	a5,72(a0)
     a48:	06f67063          	bgeu	a2,a5,aa8 <u8g2_DrawHVLine+0x8c>
     a4c:	96ae                	add	a3,a3,a1
     a4e:	0ff6f693          	andi	a3,a3,255
     a52:	04554783          	lbu	a5,69(a0)
     a56:	04654803          	lbu	a6,70(a0)
     a5a:	04b6f563          	bgeu	a3,a1,aa4 <u8g2_DrawHVLine+0x88>
     a5e:	0505f263          	bgeu	a1,a6,aa2 <u8g2_DrawHVLine+0x86>
     a62:	fff80693          	addi	a3,a6,-1
     a66:	0ff6f693          	andi	a3,a3,255
     a6a:	02d7ff63          	bgeu	a5,a3,aa8 <u8g2_DrawHVLine+0x8c>
     a6e:	88be                	mv	a7,a5
     a70:	00b7f363          	bgeu	a5,a1,a76 <u8g2_DrawHVLine+0x5a>
     a74:	88ae                	mv	a7,a1
     a76:	0ff8f593          	andi	a1,a7,255
     a7a:	87c2                	mv	a5,a6
     a7c:	0106f363          	bgeu	a3,a6,a82 <u8g2_DrawHVLine+0x66>
     a80:	87b6                	mv	a5,a3
     a82:	40b786b3          	sub	a3,a5,a1
     a86:	595c                	lw	a5,52(a0)
     a88:	0ff6f693          	andi	a3,a3,255
     a8c:	0087a303          	lw	t1,8(a5)
     a90:	8302                	jr	t1
     a92:	478d                	li	a5,3
     a94:	faf712e3          	bne	a4,a5,a38 <u8g2_DrawHVLine+0x1c>
     a98:	0605                	addi	a2,a2,1
     a9a:	8e15                	sub	a2,a2,a3
     a9c:	0ff67613          	andi	a2,a2,255
     aa0:	bf61                	j	a38 <u8g2_DrawHVLine+0x1c>
     aa2:	85be                	mv	a1,a5
     aa4:	fd05e3e3          	bltu	a1,a6,a6a <u8g2_DrawHVLine+0x4e>
     aa8:	8082                	ret
     aaa:	04554783          	lbu	a5,69(a0)
     aae:	fef5ede3          	bltu	a1,a5,aa8 <u8g2_DrawHVLine+0x8c>
     ab2:	04654783          	lbu	a5,70(a0)
     ab6:	fef5f9e3          	bgeu	a1,a5,aa8 <u8g2_DrawHVLine+0x8c>
     aba:	96b2                	add	a3,a3,a2
     abc:	0ff6f693          	andi	a3,a3,255
     ac0:	04754783          	lbu	a5,71(a0)
     ac4:	04854803          	lbu	a6,72(a0)
     ac8:	02c6f863          	bgeu	a3,a2,af8 <u8g2_DrawHVLine+0xdc>
     acc:	03067563          	bgeu	a2,a6,af6 <u8g2_DrawHVLine+0xda>
     ad0:	fff80693          	addi	a3,a6,-1
     ad4:	0ff6f693          	andi	a3,a3,255
     ad8:	fcd7f8e3          	bgeu	a5,a3,aa8 <u8g2_DrawHVLine+0x8c>
     adc:	88be                	mv	a7,a5
     ade:	00c7f363          	bgeu	a5,a2,ae4 <u8g2_DrawHVLine+0xc8>
     ae2:	88b2                	mv	a7,a2
     ae4:	0ff8f613          	andi	a2,a7,255
     ae8:	87c2                	mv	a5,a6
     aea:	0106f363          	bgeu	a3,a6,af0 <u8g2_DrawHVLine+0xd4>
     aee:	87b6                	mv	a5,a3
     af0:	40c786b3          	sub	a3,a5,a2
     af4:	bf49                	j	a86 <u8g2_DrawHVLine+0x6a>
     af6:	863e                	mv	a2,a5
     af8:	ff0660e3          	bltu	a2,a6,ad8 <u8g2_DrawHVLine+0xbc>
     afc:	b775                	j	aa8 <u8g2_DrawHVLine+0x8c>

00000afe <u8g2_is_intersection_decision_tree>:
     afe:	00b67963          	bgeu	a2,a1,b10 <u8g2_is_intersection_decision_tree+0x12>
     b02:	4785                	li	a5,1
     b04:	00d56463          	bltu	a0,a3,b0c <u8g2_is_intersection_decision_tree+0xe>
     b08:	00c6b7b3          	sltu	a5,a3,a2
     b0c:	853e                	mv	a0,a5
     b0e:	8082                	ret
     b10:	fed56ce3          	bltu	a0,a3,b08 <u8g2_is_intersection_decision_tree+0xa>
     b14:	4781                	li	a5,0
     b16:	bfdd                	j	b0c <u8g2_is_intersection_decision_tree+0xe>

00000b18 <u8g2_IsIntersection>:
     b18:	1141                	addi	sp,sp,-16
     b1a:	c422                	sw	s0,8(sp)
     b1c:	c226                	sw	s1,4(sp)
     b1e:	c04a                	sw	s2,0(sp)
     b20:	c606                	sw	ra,12(sp)
     b22:	842a                	mv	s0,a0
     b24:	84ae                	mv	s1,a1
     b26:	04854583          	lbu	a1,72(a0)
     b2a:	04754503          	lbu	a0,71(a0)
     b2e:	8936                	mv	s2,a3
     b30:	86ba                	mv	a3,a4
     b32:	37f1                	jal	afe <u8g2_is_intersection_decision_tree>
     b34:	cd09                	beqz	a0,b4e <u8g2_IsIntersection+0x36>
     b36:	04644583          	lbu	a1,70(s0)
     b3a:	04544503          	lbu	a0,69(s0)
     b3e:	4422                	lw	s0,8(sp)
     b40:	40b2                	lw	ra,12(sp)
     b42:	86ca                	mv	a3,s2
     b44:	8626                	mv	a2,s1
     b46:	4902                	lw	s2,0(sp)
     b48:	4492                	lw	s1,4(sp)
     b4a:	0141                	addi	sp,sp,16
     b4c:	bf4d                	j	afe <u8g2_is_intersection_decision_tree>
     b4e:	40b2                	lw	ra,12(sp)
     b50:	4422                	lw	s0,8(sp)
     b52:	4492                	lw	s1,4(sp)
     b54:	4902                	lw	s2,0(sp)
     b56:	0141                	addi	sp,sp,16
     b58:	8082                	ret

00000b5a <u8g2_ll_hvline_vertical_top_lsb>:
     b5a:	08654303          	lbu	t1,134(a0)
     b5e:	00767893          	andi	a7,a2,7
     b62:	4785                	li	a5,1
     b64:	01179833          	sll	a6,a5,a7
     b68:	0ff87813          	andi	a6,a6,255
     b6c:	4e01                	li	t3,0
     b6e:	0067e563          	bltu	a5,t1,b78 <u8g2_ll_hvline_vertical_top_lsb+0x1e>
     b72:	8e42                	mv	t3,a6
     b74:	04f30b63          	beq	t1,a5,bca <u8g2_ll_hvline_vertical_top_lsb+0x70>
     b78:	00052303          	lw	t1,0(a0)
     b7c:	0f867613          	andi	a2,a2,248
     b80:	5d1c                	lw	a5,56(a0)
     b82:	01034303          	lbu	t1,16(t1)
     b86:	02660633          	mul	a2,a2,t1
     b8a:	95b2                	add	a1,a1,a2
     b8c:	95be                	add	a1,a1,a5
     b8e:	c321                	beqz	a4,bce <u8g2_ll_hvline_vertical_top_lsb+0x74>
     b90:	4705                	li	a4,1
     b92:	0005c783          	lbu	a5,0(a1)
     b96:	0885                	addi	a7,a7,1
     b98:	16fd                	addi	a3,a3,-1
     b9a:	00fe67b3          	or	a5,t3,a5
     b9e:	00f847b3          	xor	a5,a6,a5
     ba2:	00f58023          	sb	a5,0(a1)
     ba6:	0078f893          	andi	a7,a7,7
     baa:	0ff6f693          	andi	a3,a3,255
     bae:	04089163          	bnez	a7,bf0 <u8g2_ll_hvline_vertical_top_lsb+0x96>
     bb2:	03e54603          	lbu	a2,62(a0)
     bb6:	08654783          	lbu	a5,134(a0)
     bba:	95b2                	add	a1,a1,a2
     bbc:	00f76563          	bltu	a4,a5,bc6 <u8g2_ll_hvline_vertical_top_lsb+0x6c>
     bc0:	4e05                	li	t3,1
     bc2:	02e78e63          	beq	a5,a4,bfe <u8g2_ll_hvline_vertical_top_lsb+0xa4>
     bc6:	4805                	li	a6,1
     bc8:	a81d                	j	bfe <u8g2_ll_hvline_vertical_top_lsb+0xa4>
     bca:	4801                	li	a6,0
     bcc:	b775                	j	b78 <u8g2_ll_hvline_vertical_top_lsb+0x1e>
     bce:	96ae                	add	a3,a3,a1
     bd0:	0ff6f693          	andi	a3,a3,255
     bd4:	0005c783          	lbu	a5,0(a1)
     bd8:	0585                	addi	a1,a1,1
     bda:	00fe67b3          	or	a5,t3,a5
     bde:	00f847b3          	xor	a5,a6,a5
     be2:	fef58fa3          	sb	a5,-1(a1)
     be6:	0ff5f793          	andi	a5,a1,255
     bea:	fed795e3          	bne	a5,a3,bd4 <u8g2_ll_hvline_vertical_top_lsb+0x7a>
     bee:	8082                	ret
     bf0:	001e1793          	slli	a5,t3,0x1
     bf4:	0806                	slli	a6,a6,0x1
     bf6:	0ff7fe13          	andi	t3,a5,255
     bfa:	0ff87813          	andi	a6,a6,255
     bfe:	fad1                	bnez	a3,b92 <u8g2_ll_hvline_vertical_top_lsb+0x38>
     c00:	8082                	ret

00000c02 <u8g2_update_dimension_common>:
     c02:	03c54703          	lbu	a4,60(a0)
     c06:	4114                	lw	a3,0(a0)
     c08:	45fd                	li	a1,31
     c0a:	00371793          	slli	a5,a4,0x3
     c0e:	02f50fa3          	sb	a5,63(a0)
     c12:	0106c603          	lbu	a2,16(a3)
     c16:	87b2                	mv	a5,a2
     c18:	00c5f363          	bgeu	a1,a2,c1e <u8g2_update_dimension_common+0x1c>
     c1c:	47fd                	li	a5,31
     c1e:	03d54583          	lbu	a1,61(a0)
     c22:	078e                	slli	a5,a5,0x3
     c24:	02f50f23          	sb	a5,62(a0)
     c28:	00359793          	slli	a5,a1,0x3
     c2c:	0ff7f793          	andi	a5,a5,255
     c30:	04f50023          	sb	a5,64(a0)
     c34:	0116c603          	lbu	a2,17(a3)
     c38:	00b70833          	add	a6,a4,a1
     c3c:	01065663          	bge	a2,a6,c48 <u8g2_update_dimension_common+0x46>
     c40:	40b60733          	sub	a4,a2,a1
     c44:	0ff77713          	andi	a4,a4,255
     c48:	070e                	slli	a4,a4,0x3
     c4a:	04f500a3          	sb	a5,65(a0)
     c4e:	97ba                	add	a5,a5,a4
     c50:	04f50123          	sb	a5,66(a0)
     c54:	57c1                	li	a5,-16
     c56:	04f501a3          	sb	a5,67(a0)
     c5a:	0146d783          	lhu	a5,20(a3)
     c5e:	0f000713          	li	a4,240
     c62:	00f76463          	bltu	a4,a5,c6a <u8g2_update_dimension_common+0x68>
     c66:	04f501a3          	sb	a5,67(a0)
     c6a:	0166d783          	lhu	a5,22(a3)
     c6e:	04f50223          	sb	a5,68(a0)
     c72:	8082                	ret

00000c74 <u8g2_update_dimension_r0>:
     c74:	b779                	j	c02 <u8g2_update_dimension_common>

00000c76 <u8g2_draw_l90_r0>:
     c76:	bb59                	j	a0c <u8g2_draw_hv_line_2dir>

00000c78 <u8g2_apply_clip_window>:
     c78:	1141                	addi	sp,sp,-16
     c7a:	c422                	sw	s0,8(sp)
     c7c:	c606                	sw	ra,12(sp)
     c7e:	04c54703          	lbu	a4,76(a0)
     c82:	04a54683          	lbu	a3,74(a0)
     c86:	04b54603          	lbu	a2,75(a0)
     c8a:	04954583          	lbu	a1,73(a0)
     c8e:	842a                	mv	s0,a0
     c90:	3561                	jal	b18 <u8g2_IsIntersection>
     c92:	e519                	bnez	a0,ca0 <u8g2_apply_clip_window+0x28>
     c94:	08040023          	sb	zero,128(s0)
     c98:	40b2                	lw	ra,12(sp)
     c9a:	4422                	lw	s0,8(sp)
     c9c:	0141                	addi	sp,sp,16
     c9e:	8082                	ret
     ca0:	4785                	li	a5,1
     ca2:	08f40023          	sb	a5,128(s0)
     ca6:	04544703          	lbu	a4,69(s0)
     caa:	04944783          	lbu	a5,73(s0)
     cae:	00f77463          	bgeu	a4,a5,cb6 <u8g2_apply_clip_window+0x3e>
     cb2:	04f402a3          	sb	a5,69(s0)
     cb6:	04a44783          	lbu	a5,74(s0)
     cba:	04644703          	lbu	a4,70(s0)
     cbe:	00e7f463          	bgeu	a5,a4,cc6 <u8g2_apply_clip_window+0x4e>
     cc2:	04f40323          	sb	a5,70(s0)
     cc6:	04b44783          	lbu	a5,75(s0)
     cca:	04744703          	lbu	a4,71(s0)
     cce:	00f77463          	bgeu	a4,a5,cd6 <u8g2_apply_clip_window+0x5e>
     cd2:	04f403a3          	sb	a5,71(s0)
     cd6:	04c44783          	lbu	a5,76(s0)
     cda:	04844703          	lbu	a4,72(s0)
     cde:	fae7fde3          	bgeu	a5,a4,c98 <u8g2_apply_clip_window+0x20>
     ce2:	04f40423          	sb	a5,72(s0)
     ce6:	bf4d                	j	c98 <u8g2_apply_clip_window+0x20>

00000ce8 <u8g2_update_page_win_r0>:
     ce8:	04354703          	lbu	a4,67(a0)
     cec:	040502a3          	sb	zero,69(a0)
     cf0:	04e50323          	sb	a4,70(a0)
     cf4:	04154703          	lbu	a4,65(a0)
     cf8:	04e503a3          	sb	a4,71(a0)
     cfc:	04254703          	lbu	a4,66(a0)
     d00:	04e50423          	sb	a4,72(a0)
     d04:	bf95                	j	c78 <u8g2_apply_clip_window>

00000d06 <u8g2_SetMaxClipWindow>:
     d06:	0ff00713          	li	a4,255
     d0a:	595c                	lw	a5,52(a0)
     d0c:	04e51523          	sh	a4,74(a0)
     d10:	577d                	li	a4,-1
     d12:	040504a3          	sb	zero,73(a0)
     d16:	04e50623          	sb	a4,76(a0)
     d1a:	0047a303          	lw	t1,4(a5)
     d1e:	8302                	jr	t1

00000d20 <u8g2_SetupBuffer>:
     d20:	1141                	addi	sp,sp,-16
     d22:	c606                	sw	ra,12(sp)
     d24:	c422                	sw	s0,8(sp)
     d26:	10100793          	li	a5,257
     d2a:	02c50e23          	sb	a2,60(a0)
     d2e:	02050ea3          	sb	zero,61(a0)
     d32:	060501a3          	sb	zero,99(a0)
     d36:	080502a3          	sb	zero,133(a0)
     d3a:	08f51323          	sh	a5,134(a0)
     d3e:	431c                	lw	a5,0(a4)
     d40:	d914                	sw	a3,48(a0)
     d42:	dd0c                	sw	a1,56(a0)
     d44:	d958                	sw	a4,52(a0)
     d46:	04052823          	sw	zero,80(a0)
     d4a:	842a                	mv	s0,a0
     d4c:	9782                	jalr	a5
     d4e:	8522                	mv	a0,s0
     d50:	3f5d                	jal	d06 <u8g2_SetMaxClipWindow>
     d52:	8522                	mv	a0,s0
     d54:	3169                	jal	9de <u8g2_SetFontPosBaseline>
     d56:	40b2                	lw	ra,12(sp)
     d58:	06040323          	sb	zero,102(s0)
     d5c:	4422                	lw	s0,8(sp)
     d5e:	0141                	addi	sp,sp,16
     d60:	8082                	ret

00000d62 <u8x8_ascii_next>:
     d62:	c981                	beqz	a1,d72 <u8x8_ascii_next+0x10>
     d64:	47a9                	li	a5,10
     d66:	00f58663          	beq	a1,a5,d72 <u8x8_ascii_next+0x10>
     d6a:	01059513          	slli	a0,a1,0x10
     d6e:	8141                	srli	a0,a0,0x10
     d70:	8082                	ret
     d72:	6541                	lui	a0,0x10
     d74:	157d                	addi	a0,a0,-1
     d76:	8082                	ret

00000d78 <u8x8_utf8_init>:
     d78:	020503a3          	sb	zero,39(a0) # 10027 <_data_lma+0x2dd3>
     d7c:	8082                	ret

00000d7e <u8x8_byte_SendBytes>:
     d7e:	01052303          	lw	t1,16(a0)
     d82:	86b2                	mv	a3,a2
     d84:	862e                	mv	a2,a1
     d86:	45dd                	li	a1,23
     d88:	8302                	jr	t1

00000d8a <u8x8_byte_SendByte>:
     d8a:	1101                	addi	sp,sp,-32
     d8c:	00b107a3          	sb	a1,15(sp)
     d90:	00f10613          	addi	a2,sp,15
     d94:	4585                	li	a1,1
     d96:	ce06                	sw	ra,28(sp)
     d98:	37dd                	jal	d7e <u8x8_byte_SendBytes>
     d9a:	40f2                	lw	ra,28(sp)
     d9c:	6105                	addi	sp,sp,32
     d9e:	8082                	ret

00000da0 <u8x8_byte_StartTransfer>:
     da0:	01052303          	lw	t1,16(a0)
     da4:	4681                	li	a3,0
     da6:	4601                	li	a2,0
     da8:	45e1                	li	a1,24
     daa:	8302                	jr	t1

00000dac <u8x8_byte_EndTransfer>:
     dac:	01052303          	lw	t1,16(a0)
     db0:	4681                	li	a3,0
     db2:	4601                	li	a2,0
     db4:	45e5                	li	a1,25
     db6:	8302                	jr	t1

00000db8 <u8x8_i2c_data_transfer>:
     db8:	1101                	addi	sp,sp,-32
     dba:	ce06                	sw	ra,28(sp)
     dbc:	cc22                	sw	s0,24(sp)
     dbe:	ca26                	sw	s1,20(sp)
     dc0:	842a                	mv	s0,a0
     dc2:	84ae                	mv	s1,a1
     dc4:	c632                	sw	a2,12(sp)
     dc6:	3fe9                	jal	da0 <u8x8_byte_StartTransfer>
     dc8:	04000593          	li	a1,64
     dcc:	8522                	mv	a0,s0
     dce:	3f75                	jal	d8a <u8x8_byte_SendByte>
     dd0:	481c                	lw	a5,16(s0)
     dd2:	46b2                	lw	a3,12(sp)
     dd4:	8626                	mv	a2,s1
     dd6:	8522                	mv	a0,s0
     dd8:	45dd                	li	a1,23
     dda:	9782                	jalr	a5
     ddc:	8522                	mv	a0,s0
     dde:	4462                	lw	s0,24(sp)
     de0:	40f2                	lw	ra,28(sp)
     de2:	44d2                	lw	s1,20(sp)
     de4:	6105                	addi	sp,sp,32
     de6:	b7d9                	j	dac <u8x8_byte_EndTransfer>

00000de8 <u8x8_cad_SendCmd>:
     de8:	00c52303          	lw	t1,12(a0)
     dec:	862e                	mv	a2,a1
     dee:	4681                	li	a3,0
     df0:	45d5                	li	a1,21
     df2:	8302                	jr	t1

00000df4 <u8x8_cad_SendArg>:
     df4:	00c52303          	lw	t1,12(a0)
     df8:	862e                	mv	a2,a1
     dfa:	4681                	li	a3,0
     dfc:	45d9                	li	a1,22
     dfe:	8302                	jr	t1

00000e00 <u8x8_cad_SendData>:
     e00:	00c52303          	lw	t1,12(a0)
     e04:	86b2                	mv	a3,a2
     e06:	862e                	mv	a2,a1
     e08:	45dd                	li	a1,23
     e0a:	8302                	jr	t1

00000e0c <u8x8_cad_StartTransfer>:
     e0c:	00c52303          	lw	t1,12(a0)
     e10:	4681                	li	a3,0
     e12:	4601                	li	a2,0
     e14:	45e1                	li	a1,24
     e16:	8302                	jr	t1

00000e18 <u8x8_cad_EndTransfer>:
     e18:	00c52303          	lw	t1,12(a0)
     e1c:	4681                	li	a3,0
     e1e:	4601                	li	a2,0
     e20:	45e5                	li	a1,25
     e22:	8302                	jr	t1

00000e24 <u8x8_cad_SendSequence>:
     e24:	7179                	addi	sp,sp,-48
     e26:	d422                	sw	s0,40(sp)
     e28:	d226                	sw	s1,36(sp)
     e2a:	d04a                	sw	s2,32(sp)
     e2c:	ce4e                	sw	s3,28(sp)
     e2e:	cc52                	sw	s4,24(sp)
     e30:	ca56                	sw	s5,20(sp)
     e32:	d606                	sw	ra,44(sp)
     e34:	84aa                	mv	s1,a0
     e36:	842e                	mv	s0,a1
     e38:	495d                	li	s2,23
     e3a:	49e5                	li	s3,25
     e3c:	0fe00a13          	li	s4,254
     e40:	4ad5                	li	s5,21
     e42:	00044583          	lbu	a1,0(s0)
     e46:	05258663          	beq	a1,s2,e92 <u8x8_cad_SendSequence+0x6e>
     e4a:	00b96d63          	bltu	s2,a1,e64 <u8x8_cad_SendSequence+0x40>
     e4e:	0355f863          	bgeu	a1,s5,e7e <u8x8_cad_SendSequence+0x5a>
     e52:	50b2                	lw	ra,44(sp)
     e54:	5422                	lw	s0,40(sp)
     e56:	5492                	lw	s1,36(sp)
     e58:	5902                	lw	s2,32(sp)
     e5a:	49f2                	lw	s3,28(sp)
     e5c:	4a62                	lw	s4,24(sp)
     e5e:	4ad2                	lw	s5,20(sp)
     e60:	6145                	addi	sp,sp,48
     e62:	8082                	ret
     e64:	04b9f163          	bgeu	s3,a1,ea6 <u8x8_cad_SendSequence+0x82>
     e68:	ff4595e3          	bne	a1,s4,e52 <u8x8_cad_SendSequence+0x2e>
     e6c:	00144603          	lbu	a2,1(s0)
     e70:	02900593          	li	a1,41
     e74:	8526                	mv	a0,s1
     e76:	00c107a3          	sb	a2,15(sp)
     e7a:	2621                	jal	1182 <u8x8_gpio_call>
     e7c:	a809                	j	e8e <u8x8_cad_SendSequence+0x6a>
     e7e:	00144603          	lbu	a2,1(s0)
     e82:	44dc                	lw	a5,12(s1)
     e84:	4681                	li	a3,0
     e86:	00c107a3          	sb	a2,15(sp)
     e8a:	8526                	mv	a0,s1
     e8c:	9782                	jalr	a5
     e8e:	0409                	addi	s0,s0,2
     e90:	bf4d                	j	e42 <u8x8_cad_SendSequence+0x1e>
     e92:	00144783          	lbu	a5,1(s0)
     e96:	00f10613          	addi	a2,sp,15
     e9a:	4585                	li	a1,1
     e9c:	8526                	mv	a0,s1
     e9e:	00f107a3          	sb	a5,15(sp)
     ea2:	3fb9                	jal	e00 <u8x8_cad_SendData>
     ea4:	b7ed                	j	e8e <u8x8_cad_SendSequence+0x6a>
     ea6:	44dc                	lw	a5,12(s1)
     ea8:	4681                	li	a3,0
     eaa:	4601                	li	a2,0
     eac:	8526                	mv	a0,s1
     eae:	0405                	addi	s0,s0,1
     eb0:	9782                	jalr	a5
     eb2:	bf41                	j	e42 <u8x8_cad_SendSequence+0x1e>

00000eb4 <u8x8_cad_ssd13xx_fast_i2c>:
     eb4:	15b1                	addi	a1,a1,-20
     eb6:	0ff5f593          	andi	a1,a1,255
     eba:	4795                	li	a5,5
     ebc:	0cb7eb63          	bltu	a5,a1,f92 <u8x8_cad_ssd13xx_fast_i2c+0xde>
     ec0:	67b5                	lui	a5,0xd
     ec2:	a5c78793          	addi	a5,a5,-1444 # ca5c <u8g2_cb_r0+0xc>
     ec6:	058a                	slli	a1,a1,0x2
     ec8:	95be                	add	a1,a1,a5
     eca:	419c                	lw	a5,0(a1)
     ecc:	7179                	addi	sp,sp,-48
     ece:	d422                	sw	s0,40(sp)
     ed0:	d226                	sw	s1,36(sp)
     ed2:	d606                	sw	ra,44(sp)
     ed4:	d04a                	sw	s2,32(sp)
     ed6:	ce4e                	sw	s3,28(sp)
     ed8:	842a                	mv	s0,a0
     eda:	84b2                	mv	s1,a2
     edc:	8782                	jr	a5
     ede:	8381c703          	lbu	a4,-1992(gp) # 20000218 <_edata>
     ee2:	83818913          	addi	s2,gp,-1992 # 20000218 <_edata>
     ee6:	c311                	beqz	a4,eea <u8x8_cad_ssd13xx_fast_i2c+0x36>
     ee8:	35d1                	jal	dac <u8x8_byte_EndTransfer>
     eea:	8522                	mv	a0,s0
     eec:	3d55                	jal	da0 <u8x8_byte_StartTransfer>
     eee:	4581                	li	a1,0
     ef0:	8522                	mv	a0,s0
     ef2:	3d61                	jal	d8a <u8x8_byte_SendByte>
     ef4:	85a6                	mv	a1,s1
     ef6:	8522                	mv	a0,s0
     ef8:	3d49                	jal	d8a <u8x8_byte_SendByte>
     efa:	4785                	li	a5,1
     efc:	00f90023          	sb	a5,0(s2)
     f00:	50b2                	lw	ra,44(sp)
     f02:	5422                	lw	s0,40(sp)
     f04:	5492                	lw	s1,36(sp)
     f06:	5902                	lw	s2,32(sp)
     f08:	49f2                	lw	s3,28(sp)
     f0a:	4505                	li	a0,1
     f0c:	6145                	addi	sp,sp,48
     f0e:	8082                	ret
     f10:	85b2                	mv	a1,a2
     f12:	3da5                	jal	d8a <u8x8_byte_SendByte>
     f14:	b7f5                	j	f00 <u8x8_cad_ssd13xx_fast_i2c+0x4c>
     f16:	8381c703          	lbu	a4,-1992(gp) # 20000218 <_edata>
     f1a:	83818913          	addi	s2,gp,-1992 # 20000218 <_edata>
     f1e:	c701                	beqz	a4,f26 <u8x8_cad_ssd13xx_fast_i2c+0x72>
     f20:	c636                	sw	a3,12(sp)
     f22:	3569                	jal	dac <u8x8_byte_EndTransfer>
     f24:	46b2                	lw	a3,12(sp)
     f26:	49e1                	li	s3,24
     f28:	8636                	mv	a2,a3
     f2a:	0099e863          	bltu	s3,s1,f3a <u8x8_cad_ssd13xx_fast_i2c+0x86>
     f2e:	85a6                	mv	a1,s1
     f30:	8522                	mv	a0,s0
     f32:	3559                	jal	db8 <u8x8_i2c_data_transfer>
     f34:	00090023          	sb	zero,0(s2)
     f38:	b7e1                	j	f00 <u8x8_cad_ssd13xx_fast_i2c+0x4c>
     f3a:	45e1                	li	a1,24
     f3c:	8522                	mv	a0,s0
     f3e:	c636                	sw	a3,12(sp)
     f40:	3da5                	jal	db8 <u8x8_i2c_data_transfer>
     f42:	46b2                	lw	a3,12(sp)
     f44:	14a1                	addi	s1,s1,-24
     f46:	0ff4f493          	andi	s1,s1,255
     f4a:	06e1                	addi	a3,a3,24
     f4c:	bff1                	j	f28 <u8x8_cad_ssd13xx_fast_i2c+0x74>
     f4e:	02454703          	lbu	a4,36(a0)
     f52:	0ff00793          	li	a5,255
     f56:	00f71663          	bne	a4,a5,f62 <u8x8_cad_ssd13xx_fast_i2c+0xae>
     f5a:	07800793          	li	a5,120
     f5e:	02f50223          	sb	a5,36(a0)
     f62:	01042303          	lw	t1,16(s0)
     f66:	8522                	mv	a0,s0
     f68:	5422                	lw	s0,40(sp)
     f6a:	50b2                	lw	ra,44(sp)
     f6c:	5902                	lw	s2,32(sp)
     f6e:	49f2                	lw	s3,28(sp)
     f70:	8626                	mv	a2,s1
     f72:	5492                	lw	s1,36(sp)
     f74:	45d1                	li	a1,20
     f76:	6145                	addi	sp,sp,48
     f78:	8302                	jr	t1
     f7a:	82018c23          	sb	zero,-1992(gp) # 20000218 <_edata>
     f7e:	b749                	j	f00 <u8x8_cad_ssd13xx_fast_i2c+0x4c>
     f80:	8381c703          	lbu	a4,-1992(gp) # 20000218 <_edata>
     f84:	83818493          	addi	s1,gp,-1992 # 20000218 <_edata>
     f88:	c311                	beqz	a4,f8c <u8x8_cad_ssd13xx_fast_i2c+0xd8>
     f8a:	350d                	jal	dac <u8x8_byte_EndTransfer>
     f8c:	00048023          	sb	zero,0(s1)
     f90:	bf85                	j	f00 <u8x8_cad_ssd13xx_fast_i2c+0x4c>
     f92:	4501                	li	a0,0
     f94:	8082                	ret

00000f96 <u8x8_d_ssd1306_sh1106_generic>:
     f96:	1101                	addi	sp,sp,-32
     f98:	cc22                	sw	s0,24(sp)
     f9a:	ca26                	sw	s1,20(sp)
     f9c:	ce06                	sw	ra,28(sp)
     f9e:	c84a                	sw	s2,16(sp)
     fa0:	c64e                	sw	s3,12(sp)
     fa2:	47b5                	li	a5,13
     fa4:	842a                	mv	s0,a0
     fa6:	84b2                	mv	s1,a2
     fa8:	08f58a63          	beq	a1,a5,103c <u8x8_d_ssd1306_sh1106_generic+0xa6>
     fac:	00b7ed63          	bltu	a5,a1,fc6 <u8x8_d_ssd1306_sh1106_generic+0x30>
     fb0:	47ad                	li	a5,11
     fb2:	06f58c63          	beq	a1,a5,102a <u8x8_d_ssd1306_sh1106_generic+0x94>
     fb6:	4501                	li	a0,0
     fb8:	40f2                	lw	ra,28(sp)
     fba:	4462                	lw	s0,24(sp)
     fbc:	44d2                	lw	s1,20(sp)
     fbe:	4942                	lw	s2,16(sp)
     fc0:	49b2                	lw	s3,12(sp)
     fc2:	6105                	addi	sp,sp,32
     fc4:	8082                	ret
     fc6:	47b9                	li	a5,14
     fc8:	08f58b63          	beq	a1,a5,105e <u8x8_d_ssd1306_sh1106_generic+0xc8>
     fcc:	47bd                	li	a5,15
     fce:	fef594e3          	bne	a1,a5,fb6 <u8x8_d_ssd1306_sh1106_generic+0x20>
     fd2:	89b6                	mv	s3,a3
     fd4:	3d25                	jal	e0c <u8x8_cad_StartTransfer>
     fd6:	0059c903          	lbu	s2,5(s3)
     fda:	02244783          	lbu	a5,34(s0)
     fde:	04000593          	li	a1,64
     fe2:	090e                	slli	s2,s2,0x3
     fe4:	993e                	add	s2,s2,a5
     fe6:	8522                	mv	a0,s0
     fe8:	3501                	jal	de8 <u8x8_cad_SendCmd>
     fea:	0ff97913          	andi	s2,s2,255
     fee:	00495593          	srli	a1,s2,0x4
     ff2:	0105e593          	ori	a1,a1,16
     ff6:	8522                	mv	a0,s0
     ff8:	3bc5                	jal	de8 <u8x8_cad_SendCmd>
     ffa:	00f97593          	andi	a1,s2,15
     ffe:	8522                	mv	a0,s0
    1000:	3bd5                	jal	df4 <u8x8_cad_SendArg>
    1002:	0069c583          	lbu	a1,6(s3)
    1006:	8522                	mv	a0,s0
    1008:	0b05e593          	ori	a1,a1,176
    100c:	33e5                	jal	df4 <u8x8_cad_SendArg>
    100e:	0049c583          	lbu	a1,4(s3)
    1012:	0009a603          	lw	a2,0(s3)
    1016:	14fd                	addi	s1,s1,-1
    1018:	058e                	slli	a1,a1,0x3
    101a:	0f85f593          	andi	a1,a1,248
    101e:	8522                	mv	a0,s0
    1020:	0ff4f493          	andi	s1,s1,255
    1024:	3bf1                	jal	e00 <u8x8_cad_SendData>
    1026:	f4e5                	bnez	s1,100e <u8x8_d_ssd1306_sh1106_generic+0x78>
    1028:	a099                	j	106e <u8x8_d_ssd1306_sh1106_generic+0xd8>
    102a:	e611                	bnez	a2,1036 <u8x8_d_ssd1306_sh1106_generic+0xa0>
    102c:	82418593          	addi	a1,gp,-2012 # 20000204 <u8x8_d_ssd1306_128x64_noname_powersave0_seq>
    1030:	3bd5                	jal	e24 <u8x8_cad_SendSequence>
    1032:	4505                	li	a0,1
    1034:	b751                	j	fb8 <u8x8_d_ssd1306_sh1106_generic+0x22>
    1036:	82c18593          	addi	a1,gp,-2004 # 2000020c <u8x8_d_ssd1306_128x64_noname_powersave1_seq>
    103a:	bfdd                	j	1030 <u8x8_d_ssd1306_sh1106_generic+0x9a>
    103c:	ea11                	bnez	a2,1050 <u8x8_d_ssd1306_sh1106_generic+0xba>
    103e:	81418593          	addi	a1,gp,-2028 # 200001f4 <u8x8_d_ssd1306_128x64_noname_flip0_seq>
    1042:	33cd                	jal	e24 <u8x8_cad_SendSequence>
    1044:	401c                	lw	a5,0(s0)
    1046:	0127c783          	lbu	a5,18(a5)
    104a:	02f40123          	sb	a5,34(s0)
    104e:	b7d5                	j	1032 <u8x8_d_ssd1306_sh1106_generic+0x9c>
    1050:	81c18593          	addi	a1,gp,-2020 # 200001fc <u8x8_d_ssd1306_128x64_noname_flip1_seq>
    1054:	3bc1                	jal	e24 <u8x8_cad_SendSequence>
    1056:	401c                	lw	a5,0(s0)
    1058:	0137c783          	lbu	a5,19(a5)
    105c:	b7fd                	j	104a <u8x8_d_ssd1306_sh1106_generic+0xb4>
    105e:	337d                	jal	e0c <u8x8_cad_StartTransfer>
    1060:	08100593          	li	a1,129
    1064:	8522                	mv	a0,s0
    1066:	3349                	jal	de8 <u8x8_cad_SendCmd>
    1068:	85a6                	mv	a1,s1
    106a:	8522                	mv	a0,s0
    106c:	3361                	jal	df4 <u8x8_cad_SendArg>
    106e:	8522                	mv	a0,s0
    1070:	3365                	jal	e18 <u8x8_cad_EndTransfer>
    1072:	b7c1                	j	1032 <u8x8_d_ssd1306_sh1106_generic+0x9c>

00001074 <u8x8_d_ssd1306_128x64_noname>:
    1074:	1141                	addi	sp,sp,-16
    1076:	c422                	sw	s0,8(sp)
    1078:	c226                	sw	s1,4(sp)
    107a:	c606                	sw	ra,12(sp)
    107c:	842a                	mv	s0,a0
    107e:	84ae                	mv	s1,a1
    1080:	3f19                	jal	f96 <u8x8_d_ssd1306_sh1106_generic>
    1082:	ed11                	bnez	a0,109e <u8x8_d_ssd1306_128x64_noname+0x2a>
    1084:	47a5                	li	a5,9
    1086:	02f48263          	beq	s1,a5,10aa <u8x8_d_ssd1306_128x64_noname+0x36>
    108a:	47a9                	li	a5,10
    108c:	00f49a63          	bne	s1,a5,10a0 <u8x8_d_ssd1306_128x64_noname+0x2c>
    1090:	8522                	mv	a0,s0
    1092:	2805                	jal	10c2 <u8x8_d_helper_display_init>
    1094:	65b5                	lui	a1,0xd
    1096:	a7458593          	addi	a1,a1,-1420 # ca74 <u8x8_d_ssd1306_128x64_noname_init_seq>
    109a:	8522                	mv	a0,s0
    109c:	3361                	jal	e24 <u8x8_cad_SendSequence>
    109e:	4505                	li	a0,1
    10a0:	40b2                	lw	ra,12(sp)
    10a2:	4422                	lw	s0,8(sp)
    10a4:	4492                	lw	s1,4(sp)
    10a6:	0141                	addi	sp,sp,16
    10a8:	8082                	ret
    10aa:	65b5                	lui	a1,0xd
    10ac:	aac58593          	addi	a1,a1,-1364 # caac <u8x8_ssd1306_128x64_noname_display_info>
    10b0:	8522                	mv	a0,s0
    10b2:	2011                	jal	10b6 <u8x8_d_helper_display_setup_memory>
    10b4:	b7ed                	j	109e <u8x8_d_ssd1306_128x64_noname+0x2a>

000010b6 <u8x8_d_helper_display_setup_memory>:
    10b6:	c10c                	sw	a1,0(a0)
    10b8:	0125c783          	lbu	a5,18(a1)
    10bc:	02f50123          	sb	a5,34(a0)
    10c0:	8082                	ret

000010c2 <u8x8_d_helper_display_init>:
    10c2:	495c                	lw	a5,20(a0)
    10c4:	1141                	addi	sp,sp,-16
    10c6:	c606                	sw	ra,12(sp)
    10c8:	c422                	sw	s0,8(sp)
    10ca:	4681                	li	a3,0
    10cc:	4601                	li	a2,0
    10ce:	02800593          	li	a1,40
    10d2:	842a                	mv	s0,a0
    10d4:	9782                	jalr	a5
    10d6:	445c                	lw	a5,12(s0)
    10d8:	4681                	li	a3,0
    10da:	4601                	li	a2,0
    10dc:	45d1                	li	a1,20
    10de:	8522                	mv	a0,s0
    10e0:	9782                	jalr	a5
    10e2:	8522                	mv	a0,s0
    10e4:	4605                	li	a2,1
    10e6:	04b00593          	li	a1,75
    10ea:	2861                	jal	1182 <u8x8_gpio_call>
    10ec:	401c                	lw	a5,0(s0)
    10ee:	8522                	mv	a0,s0
    10f0:	02900593          	li	a1,41
    10f4:	0047c603          	lbu	a2,4(a5)
    10f8:	2069                	jal	1182 <u8x8_gpio_call>
    10fa:	8522                	mv	a0,s0
    10fc:	4601                	li	a2,0
    10fe:	04b00593          	li	a1,75
    1102:	2041                	jal	1182 <u8x8_gpio_call>
    1104:	401c                	lw	a5,0(s0)
    1106:	8522                	mv	a0,s0
    1108:	02900593          	li	a1,41
    110c:	0047c603          	lbu	a2,4(a5)
    1110:	288d                	jal	1182 <u8x8_gpio_call>
    1112:	8522                	mv	a0,s0
    1114:	4605                	li	a2,1
    1116:	04b00593          	li	a1,75
    111a:	20a5                	jal	1182 <u8x8_gpio_call>
    111c:	401c                	lw	a5,0(s0)
    111e:	8522                	mv	a0,s0
    1120:	4422                	lw	s0,8(sp)
    1122:	40b2                	lw	ra,12(sp)
    1124:	0057c603          	lbu	a2,5(a5)
    1128:	02900593          	li	a1,41
    112c:	0141                	addi	sp,sp,16
    112e:	a891                	j	1182 <u8x8_gpio_call>

00001130 <u8x8_DrawTile>:
    1130:	451c                	lw	a5,8(a0)
    1132:	1101                	addi	sp,sp,-32
    1134:	ce06                	sw	ra,28(sp)
    1136:	00b106a3          	sb	a1,13(sp)
    113a:	00c10723          	sb	a2,14(sp)
    113e:	00d10623          	sb	a3,12(sp)
    1142:	c43a                	sw	a4,8(sp)
    1144:	0034                	addi	a3,sp,8
    1146:	4605                	li	a2,1
    1148:	45bd                	li	a1,15
    114a:	9782                	jalr	a5
    114c:	40f2                	lw	ra,28(sp)
    114e:	6105                	addi	sp,sp,32
    1150:	8082                	ret

00001152 <u8x8_SetupMemory>:
    1152:	00852303          	lw	t1,8(a0)
    1156:	4681                	li	a3,0
    1158:	4601                	li	a2,0
    115a:	45a5                	li	a1,9
    115c:	8302                	jr	t1

0000115e <u8x8_InitDisplay>:
    115e:	00852303          	lw	t1,8(a0)
    1162:	4681                	li	a3,0
    1164:	4601                	li	a2,0
    1166:	45a9                	li	a1,10
    1168:	8302                	jr	t1

0000116a <u8x8_SetPowerSave>:
    116a:	00852303          	lw	t1,8(a0)
    116e:	862e                	mv	a2,a1
    1170:	4681                	li	a3,0
    1172:	45ad                	li	a1,11
    1174:	8302                	jr	t1

00001176 <u8x8_RefreshDisplay>:
    1176:	00852303          	lw	t1,8(a0)
    117a:	4681                	li	a3,0
    117c:	4601                	li	a2,0
    117e:	45c1                	li	a1,16
    1180:	8302                	jr	t1

00001182 <u8x8_gpio_call>:
    1182:	01452303          	lw	t1,20(a0)
    1186:	4681                	li	a3,0
    1188:	8302                	jr	t1

0000118a <u8x8_dummy_cb>:
    118a:	4501                	li	a0,0
    118c:	8082                	ret

0000118e <u8x8_SetupDefaults>:
    118e:	000017b7          	lui	a5,0x1
    1192:	18a78793          	addi	a5,a5,394 # 118a <u8x8_dummy_cb>
    1196:	c51c                	sw	a5,8(a0)
    1198:	c55c                	sw	a5,12(a0)
    119a:	c91c                	sw	a5,16(a0)
    119c:	c95c                	sw	a5,20(a0)
    119e:	57fd                	li	a5,-1
    11a0:	00052023          	sw	zero,0(a0)
    11a4:	020501a3          	sb	zero,35(a0)
    11a8:	02051323          	sh	zero,38(a0)
    11ac:	00052c23          	sw	zero,24(a0)
    11b0:	02f50223          	sb	a5,36(a0)
    11b4:	02f504a3          	sb	a5,41(a0)
    11b8:	8082                	ret

000011ba <u8x8_Setup>:
    11ba:	1101                	addi	sp,sp,-32
    11bc:	cc22                	sw	s0,24(sp)
    11be:	ce06                	sw	ra,28(sp)
    11c0:	842a                	mv	s0,a0
    11c2:	c62e                	sw	a1,12(sp)
    11c4:	c432                	sw	a2,8(sp)
    11c6:	c236                	sw	a3,4(sp)
    11c8:	c03a                	sw	a4,0(sp)
    11ca:	37d1                	jal	118e <u8x8_SetupDefaults>
    11cc:	45b2                	lw	a1,12(sp)
    11ce:	4622                	lw	a2,8(sp)
    11d0:	4692                	lw	a3,4(sp)
    11d2:	4702                	lw	a4,0(sp)
    11d4:	c40c                	sw	a1,8(s0)
    11d6:	c450                	sw	a2,12(s0)
    11d8:	c814                	sw	a3,16(s0)
    11da:	c858                	sw	a4,20(s0)
    11dc:	8522                	mv	a0,s0
    11de:	4462                	lw	s0,24(sp)
    11e0:	40f2                	lw	ra,28(sp)
    11e2:	6105                	addi	sp,sp,32
    11e4:	b7bd                	j	1152 <u8x8_SetupMemory>

000011e6 <NMI_Handler>:
    11e6:	30200073          	mret

000011ea <HardFault_Handler>:
    11ea:	a001                	j	11ea <HardFault_Handler>

000011ec <getRMS>:
    11ec:	e000f7b7          	lui	a5,0xe000f
    11f0:	43d8                	lw	a4,4(a5)
    11f2:	1101                	addi	sp,sp,-32
    11f4:	cc22                	sw	s0,24(sp)
    11f6:	ca26                	sw	s1,20(sp)
    11f8:	c84a                	sw	s2,16(sp)
    11fa:	c64e                	sw	s3,12(sp)
    11fc:	c452                	sw	s4,8(sp)
    11fe:	c256                	sw	s5,4(sp)
    1200:	c05a                	sw	s6,0(sp)
    1202:	ce06                	sw	ra,28(sp)
    1204:	9b79                	andi	a4,a4,-2
    1206:	0002c637          	lui	a2,0x2c
    120a:	c3d8                	sw	a4,4(a5)
    120c:	f2060613          	addi	a2,a2,-224 # 2bf20 <_data_lma+0x1eccc>
    1210:	cb90                	sw	a2,16(a5)
    1212:	4681                	li	a3,0
    1214:	cbd4                	sw	a3,20(a5)
    1216:	4398                	lw	a4,0(a5)
    1218:	0506                	slli	a0,a0,0x1
    121a:	4401                	li	s0,0
    121c:	03176713          	ori	a4,a4,49
    1220:	c398                	sw	a4,0(a5)
    1222:	ca018793          	addi	a5,gp,-864 # 20000680 <Adc_Val>
    1226:	00f509b3          	add	s3,a0,a5
    122a:	0000d7b7          	lui	a5,0xd
    122e:	b007aa03          	lw	s4,-1280(a5) # cb00 <u8x8_ssd1306_128x64_noname_display_info+0x54>
    1232:	b047aa83          	lw	s5,-1276(a5)
    1236:	0000d7b7          	lui	a5,0xd
    123a:	af87ab03          	lw	s6,-1288(a5) # caf8 <u8x8_ssd1306_128x64_noname_display_info+0x4c>
    123e:	4481                	li	s1,0
    1240:	4901                	li	s2,0
    1242:	e000f7b7          	lui	a5,0xe000f
    1246:	43d8                	lw	a4,4(a5)
    1248:	8b05                	andi	a4,a4,1
    124a:	cb1d                	beqz	a4,1280 <getRMS+0x94>
    124c:	4398                	lw	a4,0(a5)
    124e:	854a                	mv	a0,s2
    1250:	9b79                	andi	a4,a4,-2
    1252:	c398                	sw	a4,0(a5)
    1254:	677030ef          	jal	ra,50ca <__floatsidf>
    1258:	862a                	mv	a2,a0
    125a:	86ae                	mv	a3,a1
    125c:	8522                	mv	a0,s0
    125e:	85a6                	mv	a1,s1
    1260:	3cf020ef          	jal	ra,3e2e <__divdf3>
    1264:	20e020ef          	jal	ra,3472 <sqrt>
    1268:	457040ef          	jal	ra,5ebe <__truncdfsf2>
    126c:	40f2                	lw	ra,28(sp)
    126e:	4462                	lw	s0,24(sp)
    1270:	44d2                	lw	s1,20(sp)
    1272:	4942                	lw	s2,16(sp)
    1274:	49b2                	lw	s3,12(sp)
    1276:	4a22                	lw	s4,8(sp)
    1278:	4a92                	lw	s5,4(sp)
    127a:	4b02                	lw	s6,0(sp)
    127c:	6105                	addi	sp,sp,32
    127e:	8082                	ret
    1280:	40012537          	lui	a0,0x40012
    1284:	4585                	li	a1,1
    1286:	40050513          	addi	a0,a0,1024 # 40012400 <_eusrstack+0x2000a400>
    128a:	3a0010ef          	jal	ra,262a <ADC_SoftwareStartConvCmd>
    128e:	0009d503          	lhu	a0,0(s3)
    1292:	0905                	addi	s2,s2,1
    1294:	637030ef          	jal	ra,50ca <__floatsidf>
    1298:	8652                	mv	a2,s4
    129a:	86d6                	mv	a3,s5
    129c:	6b4030ef          	jal	ra,4950 <__subdf3>
    12a0:	41f040ef          	jal	ra,5ebe <__truncdfsf2>
    12a4:	85da                	mv	a1,s6
    12a6:	7b8040ef          	jal	ra,5a5e <__mulsf3>
    12aa:	0000d7b7          	lui	a5,0xd
    12ae:	afc7a583          	lw	a1,-1284(a5) # cafc <u8x8_ssd1306_128x64_noname_display_info+0x50>
    12b2:	3e8040ef          	jal	ra,569a <__divsf3>
    12b6:	35d040ef          	jal	ra,5e12 <__extendsfdf2>
    12ba:	862a                	mv	a2,a0
    12bc:	86ae                	mv	a3,a1
    12be:	1da030ef          	jal	ra,4498 <__muldf3>
    12c2:	3fd040ef          	jal	ra,5ebe <__truncdfsf2>
    12c6:	34d040ef          	jal	ra,5e12 <__extendsfdf2>
    12ca:	862a                	mv	a2,a0
    12cc:	86ae                	mv	a3,a1
    12ce:	8522                	mv	a0,s0
    12d0:	85a6                	mv	a1,s1
    12d2:	42c020ef          	jal	ra,36fe <__adddf3>
    12d6:	842a                	mv	s0,a0
    12d8:	84ae                	mv	s1,a1
    12da:	b7a5                	j	1242 <getRMS+0x56>

000012dc <V_rms>:
    12dc:	1141                	addi	sp,sp,-16
    12de:	4501                	li	a0,0
    12e0:	c606                	sw	ra,12(sp)
    12e2:	3729                	jal	11ec <getRMS>
    12e4:	20b040ef          	jal	ra,5cee <__fixunssfsi>
    12e8:	c8018593          	addi	a1,gp,-896 # 20000660 <filterStruct_V>
    12ec:	7f3000ef          	jal	ra,22de <Moving_Average_Compute>
    12f0:	255040ef          	jal	ra,5d44 <__floatunsisf>
    12f4:	31f040ef          	jal	ra,5e12 <__extendsfdf2>
    12f8:	0000d7b7          	lui	a5,0xd
    12fc:	ae87a603          	lw	a2,-1304(a5) # cae8 <u8x8_ssd1306_128x64_noname_display_info+0x3c>
    1300:	aec7a683          	lw	a3,-1300(a5)
    1304:	32b020ef          	jal	ra,3e2e <__divdf3>
    1308:	0000d7b7          	lui	a5,0xd
    130c:	af07a603          	lw	a2,-1296(a5) # caf0 <u8x8_ssd1306_128x64_noname_display_info+0x44>
    1310:	af47a683          	lw	a3,-1292(a5)
    1314:	184030ef          	jal	ra,4498 <__muldf3>
    1318:	3a7040ef          	jal	ra,5ebe <__truncdfsf2>
    131c:	0000d7b7          	lui	a5,0xd
    1320:	ae07a583          	lw	a1,-1312(a5) # cae0 <u8x8_ssd1306_128x64_noname_display_info+0x34>
    1324:	376040ef          	jal	ra,569a <__divsf3>
    1328:	00000593          	li	a1,0
    132c:	004040ef          	jal	ra,5330 <__addsf3>
    1330:	40b2                	lw	ra,12(sp)
    1332:	0141                	addi	sp,sp,16
    1334:	8082                	ret

00001336 <I_rms>:
    1336:	1141                	addi	sp,sp,-16
    1338:	4505                	li	a0,1
    133a:	c606                	sw	ra,12(sp)
    133c:	3d45                	jal	11ec <getRMS>
    133e:	1b1040ef          	jal	ra,5cee <__fixunssfsi>
    1342:	c9018593          	addi	a1,gp,-880 # 20000670 <filterStruct_I>
    1346:	799000ef          	jal	ra,22de <Moving_Average_Compute>
    134a:	1fb040ef          	jal	ra,5d44 <__floatunsisf>
    134e:	0000d7b7          	lui	a5,0xd
    1352:	ac47a583          	lw	a1,-1340(a5) # cac4 <u8x8_ssd1306_128x64_noname_display_info+0x18>
    1356:	344040ef          	jal	ra,569a <__divsf3>
    135a:	2b9040ef          	jal	ra,5e12 <__extendsfdf2>
    135e:	0000d7b7          	lui	a5,0xd
    1362:	ac87a603          	lw	a2,-1336(a5) # cac8 <u8x8_ssd1306_128x64_noname_display_info+0x1c>
    1366:	acc7a683          	lw	a3,-1332(a5)
    136a:	5e6030ef          	jal	ra,4950 <__subdf3>
    136e:	351040ef          	jal	ra,5ebe <__truncdfsf2>
    1372:	40b2                	lw	ra,12(sp)
    1374:	0141                	addi	sp,sp,16
    1376:	8082                	ret

00001378 <V_ins>:
    1378:	ca01d503          	lhu	a0,-864(gp) # 20000680 <Adc_Val>
    137c:	1141                	addi	sp,sp,-16
    137e:	c606                	sw	ra,12(sp)
    1380:	54b030ef          	jal	ra,50ca <__floatsidf>
    1384:	0000d7b7          	lui	a5,0xd
    1388:	b007a603          	lw	a2,-1280(a5) # cb00 <u8x8_ssd1306_128x64_noname_display_info+0x54>
    138c:	b047a683          	lw	a3,-1276(a5)
    1390:	5c0030ef          	jal	ra,4950 <__subdf3>
    1394:	32b040ef          	jal	ra,5ebe <__truncdfsf2>
    1398:	27b040ef          	jal	ra,5e12 <__extendsfdf2>
    139c:	0000d7b7          	lui	a5,0xd
    13a0:	ad87a603          	lw	a2,-1320(a5) # cad8 <u8x8_ssd1306_128x64_noname_display_info+0x2c>
    13a4:	adc7a683          	lw	a3,-1316(a5)
    13a8:	0f0030ef          	jal	ra,4498 <__muldf3>
    13ac:	313040ef          	jal	ra,5ebe <__truncdfsf2>
    13b0:	263040ef          	jal	ra,5e12 <__extendsfdf2>
    13b4:	0000d7b7          	lui	a5,0xd
    13b8:	ae87a603          	lw	a2,-1304(a5) # cae8 <u8x8_ssd1306_128x64_noname_display_info+0x3c>
    13bc:	aec7a683          	lw	a3,-1300(a5)
    13c0:	26f020ef          	jal	ra,3e2e <__divdf3>
    13c4:	0000d7b7          	lui	a5,0xd
    13c8:	af07a603          	lw	a2,-1296(a5) # caf0 <u8x8_ssd1306_128x64_noname_display_info+0x44>
    13cc:	af47a683          	lw	a3,-1292(a5)
    13d0:	0c8030ef          	jal	ra,4498 <__muldf3>
    13d4:	2eb040ef          	jal	ra,5ebe <__truncdfsf2>
    13d8:	0000d7b7          	lui	a5,0xd
    13dc:	ae07a583          	lw	a1,-1312(a5) # cae0 <u8x8_ssd1306_128x64_noname_display_info+0x34>
    13e0:	2ba040ef          	jal	ra,569a <__divsf3>
    13e4:	40b2                	lw	ra,12(sp)
    13e6:	0141                	addi	sp,sp,16
    13e8:	8082                	ret

000013ea <I_ins>:
    13ea:	ca21d503          	lhu	a0,-862(gp) # 20000682 <Adc_Val+0x2>
    13ee:	1141                	addi	sp,sp,-16
    13f0:	c606                	sw	ra,12(sp)
    13f2:	4d9030ef          	jal	ra,50ca <__floatsidf>
    13f6:	0000d7b7          	lui	a5,0xd
    13fa:	b007a603          	lw	a2,-1280(a5) # cb00 <u8x8_ssd1306_128x64_noname_display_info+0x54>
    13fe:	b047a683          	lw	a3,-1276(a5)
    1402:	54e030ef          	jal	ra,4950 <__subdf3>
    1406:	2b9040ef          	jal	ra,5ebe <__truncdfsf2>
    140a:	209040ef          	jal	ra,5e12 <__extendsfdf2>
    140e:	0000d7b7          	lui	a5,0xd
    1412:	ad87a603          	lw	a2,-1320(a5) # cad8 <u8x8_ssd1306_128x64_noname_display_info+0x2c>
    1416:	adc7a683          	lw	a3,-1316(a5)
    141a:	07e030ef          	jal	ra,4498 <__muldf3>
    141e:	2a1040ef          	jal	ra,5ebe <__truncdfsf2>
    1422:	0000d7b7          	lui	a5,0xd
    1426:	ac47a583          	lw	a1,-1340(a5) # cac4 <u8x8_ssd1306_128x64_noname_display_info+0x18>
    142a:	270040ef          	jal	ra,569a <__divsf3>
    142e:	40b2                	lw	ra,12(sp)
    1430:	0141                	addi	sp,sp,16
    1432:	8082                	ret

00001434 <plotter>:
    1434:	1141                	addi	sp,sp,-16
    1436:	4551                	li	a0,20
    1438:	c606                	sw	ra,12(sp)
    143a:	c422                	sw	s0,8(sp)
    143c:	c226                	sw	s1,4(sp)
    143e:	c04a                	sw	s2,0(sp)
    1440:	703010ef          	jal	ra,3342 <Delay_Us>
    1444:	3f15                	jal	1378 <V_ins>
    1446:	84aa                	mv	s1,a0
    1448:	374d                	jal	13ea <I_ins>
    144a:	842a                	mv	s0,a0
    144c:	40012537          	lui	a0,0x40012
    1450:	4585                	li	a1,1
    1452:	40050513          	addi	a0,a0,1024 # 40012400 <_eusrstack+0x2000a400>
    1456:	1d4010ef          	jal	ra,262a <ADC_SoftwareStartConvCmd>
    145a:	0000d7b7          	lui	a5,0xd
    145e:	b087a903          	lw	s2,-1272(a5) # cb08 <u8x8_ssd1306_128x64_noname_display_info+0x5c>
    1462:	8526                	mv	a0,s1
    1464:	85ca                	mv	a1,s2
    1466:	56c040ef          	jal	ra,59d2 <__lesf2>
    146a:	00054c63          	bltz	a0,1482 <plotter+0x4e>
    146e:	0000d7b7          	lui	a5,0xd
    1472:	ae07a903          	lw	s2,-1312(a5) # cae0 <u8x8_ssd1306_128x64_noname_display_info+0x34>
    1476:	8526                	mv	a0,s1
    1478:	85ca                	mv	a1,s2
    147a:	4d2040ef          	jal	ra,594c <__gesf2>
    147e:	00a05363          	blez	a0,1484 <plotter+0x50>
    1482:	84ca                	mv	s1,s2
    1484:	0000d7b7          	lui	a5,0xd
    1488:	b0c7a903          	lw	s2,-1268(a5) # cb0c <u8x8_ssd1306_128x64_noname_display_info+0x60>
    148c:	8522                	mv	a0,s0
    148e:	85ca                	mv	a1,s2
    1490:	542040ef          	jal	ra,59d2 <__lesf2>
    1494:	00054c63          	bltz	a0,14ac <plotter+0x78>
    1498:	0000d7b7          	lui	a5,0xd
    149c:	b107a903          	lw	s2,-1264(a5) # cb10 <u8x8_ssd1306_128x64_noname_display_info+0x64>
    14a0:	8522                	mv	a0,s0
    14a2:	85ca                	mv	a1,s2
    14a4:	4a8040ef          	jal	ra,594c <__gesf2>
    14a8:	00a05363          	blez	a0,14ae <plotter+0x7a>
    14ac:	844a                	mv	s0,s2
    14ae:	0000d537          	lui	a0,0xd
    14b2:	b1450513          	addi	a0,a0,-1260 # cb14 <u8x8_ssd1306_128x64_noname_display_info+0x68>
    14b6:	25d050ef          	jal	ra,6f12 <iprintf>
    14ba:	8526                	mv	a0,s1
    14bc:	157040ef          	jal	ra,5e12 <__extendsfdf2>
    14c0:	0000d4b7          	lui	s1,0xd
    14c4:	862a                	mv	a2,a0
    14c6:	86ae                	mv	a3,a1
    14c8:	b1848513          	addi	a0,s1,-1256 # cb18 <u8x8_ssd1306_128x64_noname_display_info+0x6c>
    14cc:	247050ef          	jal	ra,6f12 <iprintf>
    14d0:	02000513          	li	a0,32
    14d4:	281050ef          	jal	ra,6f54 <putchar>
    14d8:	0000d537          	lui	a0,0xd
    14dc:	b1c50513          	addi	a0,a0,-1252 # cb1c <u8x8_ssd1306_128x64_noname_display_info+0x70>
    14e0:	233050ef          	jal	ra,6f12 <iprintf>
    14e4:	8522                	mv	a0,s0
    14e6:	12d040ef          	jal	ra,5e12 <__extendsfdf2>
    14ea:	862a                	mv	a2,a0
    14ec:	86ae                	mv	a3,a1
    14ee:	b1848513          	addi	a0,s1,-1256
    14f2:	221050ef          	jal	ra,6f12 <iprintf>
    14f6:	02000513          	li	a0,32
    14fa:	25b050ef          	jal	ra,6f54 <putchar>
    14fe:	4422                	lw	s0,8(sp)
    1500:	40b2                	lw	ra,12(sp)
    1502:	4492                	lw	s1,4(sp)
    1504:	4902                	lw	s2,0(sp)
    1506:	0000d537          	lui	a0,0xd
    150a:	b2050513          	addi	a0,a0,-1248 # cb20 <u8x8_ssd1306_128x64_noname_display_info+0x74>
    150e:	0141                	addi	sp,sp,16
    1510:	2030506f          	j	6f12 <iprintf>

00001514 <P_avg>:
    1514:	e000f7b7          	lui	a5,0xe000f
    1518:	43d8                	lw	a4,4(a5)
    151a:	1101                	addi	sp,sp,-32
    151c:	cc22                	sw	s0,24(sp)
    151e:	ca26                	sw	s1,20(sp)
    1520:	c84a                	sw	s2,16(sp)
    1522:	c64e                	sw	s3,12(sp)
    1524:	c452                	sw	s4,8(sp)
    1526:	c256                	sw	s5,4(sp)
    1528:	ce06                	sw	ra,28(sp)
    152a:	c05a                	sw	s6,0(sp)
    152c:	9b79                	andi	a4,a4,-2
    152e:	0002c637          	lui	a2,0x2c
    1532:	c3d8                	sw	a4,4(a5)
    1534:	f2060613          	addi	a2,a2,-224 # 2bf20 <_data_lma+0x1eccc>
    1538:	cb90                	sw	a2,16(a5)
    153a:	4681                	li	a3,0
    153c:	cbd4                	sw	a3,20(a5)
    153e:	4398                	lw	a4,0(a5)
    1540:	40012ab7          	lui	s5,0x40012
    1544:	4901                	li	s2,0
    1546:	03176713          	ori	a4,a4,49
    154a:	c398                	sw	a4,0(a5)
    154c:	4981                	li	s3,0
    154e:	4401                	li	s0,0
    1550:	4481                	li	s1,0
    1552:	e000fa37          	lui	s4,0xe000f
    1556:	400a8a93          	addi	s5,s5,1024 # 40012400 <_eusrstack+0x2000a400>
    155a:	004a2783          	lw	a5,4(s4) # e000f004 <_eusrstack+0xc0007004>
    155e:	8b85                	andi	a5,a5,1
    1560:	c7a1                	beqz	a5,15a8 <P_avg+0x94>
    1562:	000a2783          	lw	a5,0(s4)
    1566:	8522                	mv	a0,s0
    1568:	85a6                	mv	a1,s1
    156a:	9bf9                	andi	a5,a5,-2
    156c:	00fa2023          	sw	a5,0(s4)
    1570:	435030ef          	jal	ra,51a4 <__floatundidf>
    1574:	862a                	mv	a2,a0
    1576:	86ae                	mv	a3,a1
    1578:	854a                	mv	a0,s2
    157a:	85ce                	mv	a1,s3
    157c:	0b3020ef          	jal	ra,3e2e <__divdf3>
    1580:	0000d7b7          	lui	a5,0xd
    1584:	ad07a603          	lw	a2,-1328(a5) # cad0 <u8x8_ssd1306_128x64_noname_display_info+0x24>
    1588:	ad47a683          	lw	a3,-1324(a5)
    158c:	172020ef          	jal	ra,36fe <__adddf3>
    1590:	12f040ef          	jal	ra,5ebe <__truncdfsf2>
    1594:	40f2                	lw	ra,28(sp)
    1596:	4462                	lw	s0,24(sp)
    1598:	44d2                	lw	s1,20(sp)
    159a:	4942                	lw	s2,16(sp)
    159c:	49b2                	lw	s3,12(sp)
    159e:	4a22                	lw	s4,8(sp)
    15a0:	4a92                	lw	s5,4(sp)
    15a2:	4b02                	lw	s6,0(sp)
    15a4:	6105                	addi	sp,sp,32
    15a6:	8082                	ret
    15a8:	4585                	li	a1,1
    15aa:	8556                	mv	a0,s5
    15ac:	07e010ef          	jal	ra,262a <ADC_SoftwareStartConvCmd>
    15b0:	3d2d                	jal	13ea <I_ins>
    15b2:	8b2a                	mv	s6,a0
    15b4:	33d1                	jal	1378 <V_ins>
    15b6:	85aa                	mv	a1,a0
    15b8:	855a                	mv	a0,s6
    15ba:	4a4040ef          	jal	ra,5a5e <__mulsf3>
    15be:	055040ef          	jal	ra,5e12 <__extendsfdf2>
    15c2:	862a                	mv	a2,a0
    15c4:	86ae                	mv	a3,a1
    15c6:	854a                	mv	a0,s2
    15c8:	85ce                	mv	a1,s3
    15ca:	134020ef          	jal	ra,36fe <__adddf3>
    15ce:	00140793          	addi	a5,s0,1
    15d2:	0087b733          	sltu	a4,a5,s0
    15d6:	892a                	mv	s2,a0
    15d8:	89ae                	mv	s3,a1
    15da:	843e                	mv	s0,a5
    15dc:	94ba                	add	s1,s1,a4
    15de:	bfb5                	j	155a <P_avg+0x46>

000015e0 <u8g2_gpio_and_delay_stm32>:
    15e0:	1141                	addi	sp,sp,-16
    15e2:	c606                	sw	ra,12(sp)
    15e4:	02900793          	li	a5,41
    15e8:	8532                	mv	a0,a2
    15ea:	04f58f63          	beq	a1,a5,1648 <u8g2_gpio_and_delay_stm32+0x68>
    15ee:	00b7ea63          	bltu	a5,a1,1602 <u8g2_gpio_and_delay_stm32+0x22>
    15f2:	02800793          	li	a5,40
    15f6:	04f58563          	beq	a1,a5,1640 <u8g2_gpio_and_delay_stm32+0x60>
    15fa:	4501                	li	a0,0
    15fc:	40b2                	lw	ra,12(sp)
    15fe:	0141                	addi	sp,sp,16
    1600:	8082                	ret
    1602:	02a00793          	li	a5,42
    1606:	02f58163          	beq	a1,a5,1628 <u8g2_gpio_and_delay_stm32+0x48>
    160a:	02b00693          	li	a3,43
    160e:	4781                	li	a5,0
    1610:	474d                	li	a4,19
    1612:	fed594e3          	bne	a1,a3,15fa <u8g2_gpio_and_delay_stm32+0x1a>
    1616:	02f506b3          	mul	a3,a0,a5
    161a:	02d74563          	blt	a4,a3,1644 <u8g2_gpio_and_delay_stm32+0x64>
    161e:	0001                	nop
    1620:	0785                	addi	a5,a5,1
    1622:	07c2                	slli	a5,a5,0x10
    1624:	83c1                	srli	a5,a5,0x10
    1626:	bfc5                	j	1616 <u8g2_gpio_and_delay_stm32+0x36>
    1628:	7d000613          	li	a2,2000
    162c:	02c50533          	mul	a0,a0,a2
    1630:	4781                	li	a5,0
    1632:	00a7d963          	bge	a5,a0,1644 <u8g2_gpio_and_delay_stm32+0x64>
    1636:	0001                	nop
    1638:	0785                	addi	a5,a5,1
    163a:	07c2                	slli	a5,a5,0x10
    163c:	83c1                	srli	a5,a5,0x10
    163e:	bfd5                	j	1632 <u8g2_gpio_and_delay_stm32+0x52>
    1640:	4d9010ef          	jal	ra,3318 <Delay_Init>
    1644:	4505                	li	a0,1
    1646:	bf5d                	j	15fc <u8g2_gpio_and_delay_stm32+0x1c>
    1648:	529010ef          	jal	ra,3370 <Delay_Ms>
    164c:	bfe5                	j	1644 <u8g2_gpio_and_delay_stm32+0x64>

0000164e <BKP_Tamper_Init>:
    164e:	1141                	addi	sp,sp,-16
    1650:	4585                	li	a1,1
    1652:	18000537          	lui	a0,0x18000
    1656:	c606                	sw	ra,12(sp)
    1658:	25d010ef          	jal	ra,30b4 <RCC_APB1PeriphClockCmd>
    165c:	4501                	li	a0,0
    165e:	222010ef          	jal	ra,2880 <BKP_TamperPinCmd>
    1662:	4505                	li	a0,1
    1664:	0df010ef          	jal	ra,2f42 <PWR_BackupAccessCmd>
    1668:	40b2                	lw	ra,12(sp)
    166a:	0141                	addi	sp,sp,16
    166c:	2540106f          	j	28c0 <BKP_ClearFlag>

00001670 <TIM3_Int_Init>:
    1670:	1101                	addi	sp,sp,-32
    1672:	cc22                	sw	s0,24(sp)
    1674:	ca26                	sw	s1,20(sp)
    1676:	842e                	mv	s0,a1
    1678:	84aa                	mv	s1,a0
    167a:	4585                	li	a1,1
    167c:	4509                	li	a0,2
    167e:	ce06                	sw	ra,28(sp)
    1680:	235010ef          	jal	ra,30b4 <RCC_APB1PeriphClockCmd>
    1684:	00811223          	sh	s0,4(sp)
    1688:	40000437          	lui	s0,0x40000
    168c:	004c                	addi	a1,sp,4
    168e:	40040513          	addi	a0,s0,1024 # 40000400 <_eusrstack+0x1fff8400>
    1692:	00911423          	sh	s1,8(sp)
    1696:	00011523          	sh	zero,10(sp)
    169a:	00011323          	sh	zero,6(sp)
    169e:	253010ef          	jal	ra,30f0 <TIM_TimeBaseInit>
    16a2:	40040513          	addi	a0,s0,1024
    16a6:	4605                	li	a2,1
    16a8:	4585                	li	a1,1
    16aa:	323010ef          	jal	ra,31cc <TIM_ITConfig>
    16ae:	40040513          	addi	a0,s0,1024
    16b2:	4585                	li	a1,1
    16b4:	2fd010ef          	jal	ra,31b0 <TIM_Cmd>
    16b8:	40f2                	lw	ra,28(sp)
    16ba:	4462                	lw	s0,24(sp)
    16bc:	44d2                	lw	s1,20(sp)
    16be:	6105                	addi	sp,sp,32
    16c0:	8082                	ret

000016c2 <GPIO_INIT>:
    16c2:	1101                	addi	sp,sp,-32
    16c4:	4585                	li	a1,1
    16c6:	4511                	li	a0,4
    16c8:	ce06                	sw	ra,28(sp)
    16ca:	c202                	sw	zero,4(sp)
    16cc:	c402                	sw	zero,8(sp)
    16ce:	c602                	sw	zero,12(sp)
    16d0:	1c7010ef          	jal	ra,3096 <RCC_APB2PeriphClockCmd>
    16d4:	478d                	li	a5,3
    16d6:	00f11223          	sh	a5,4(sp)
    16da:	40011537          	lui	a0,0x40011
    16de:	47c1                	li	a5,16
    16e0:	c63e                	sw	a5,12(sp)
    16e2:	004c                	addi	a1,sp,4
    16e4:	478d                	li	a5,3
    16e6:	80050513          	addi	a0,a0,-2048 # 40010800 <_eusrstack+0x20008800>
    16ea:	c43e                	sw	a5,8(sp)
    16ec:	412010ef          	jal	ra,2afe <GPIO_Init>
    16f0:	40f2                	lw	ra,28(sp)
    16f2:	6105                	addi	sp,sp,32
    16f4:	8082                	ret

000016f6 <IIC_Init>:
    16f6:	7139                	addi	sp,sp,-64
    16f8:	d64e                	sw	s3,44(sp)
    16fa:	d452                	sw	s4,40(sp)
    16fc:	89ae                	mv	s3,a1
    16fe:	8a2a                	mv	s4,a0
    1700:	4585                	li	a1,1
    1702:	4525                	li	a0,9
    1704:	de06                	sw	ra,60(sp)
    1706:	dc22                	sw	s0,56(sp)
    1708:	da26                	sw	s1,52(sp)
    170a:	d84a                	sw	s2,48(sp)
    170c:	c202                	sw	zero,4(sp)
    170e:	c402                	sw	zero,8(sp)
    1710:	c602                	sw	zero,12(sp)
    1712:	c802                	sw	zero,16(sp)
    1714:	ca02                	sw	zero,20(sp)
    1716:	cc02                	sw	zero,24(sp)
    1718:	ce02                	sw	zero,28(sp)
    171a:	17d010ef          	jal	ra,3096 <RCC_APB2PeriphClockCmd>
    171e:	4585                	li	a1,1
    1720:	4509                	li	a0,2
    1722:	4a8010ef          	jal	ra,2bca <GPIO_PinRemapConfig>
    1726:	4585                	li	a1,1
    1728:	00200537          	lui	a0,0x200
    172c:	189010ef          	jal	ra,30b4 <RCC_APB1PeriphClockCmd>
    1730:	40011437          	lui	s0,0x40011
    1734:	10000793          	li	a5,256
    1738:	4971                	li	s2,28
    173a:	448d                	li	s1,3
    173c:	004c                	addi	a1,sp,4
    173e:	c0040513          	addi	a0,s0,-1024 # 40010c00 <_eusrstack+0x20008c00>
    1742:	00f11223          	sh	a5,4(sp)
    1746:	c64a                	sw	s2,12(sp)
    1748:	c426                	sw	s1,8(sp)
    174a:	3b4010ef          	jal	ra,2afe <GPIO_Init>
    174e:	20000793          	li	a5,512
    1752:	004c                	addi	a1,sp,4
    1754:	c0040513          	addi	a0,s0,-1024
    1758:	00f11223          	sh	a5,4(sp)
    175c:	c64a                	sw	s2,12(sp)
    175e:	c426                	sw	s1,8(sp)
    1760:	39e010ef          	jal	ra,2afe <GPIO_Init>
    1764:	400007b7          	lui	a5,0x40000
    1768:	40005437          	lui	s0,0x40005
    176c:	ca3e                	sw	a5,20(sp)
    176e:	40000793          	li	a5,1024
    1772:	00f11d23          	sh	a5,26(sp)
    1776:	080c                	addi	a1,sp,16
    1778:	6791                	lui	a5,0x4
    177a:	40040513          	addi	a0,s0,1024 # 40005400 <_eusrstack+0x1fffd400>
    177e:	00f11e23          	sh	a5,28(sp)
    1782:	c852                	sw	s4,16(sp)
    1784:	01311c23          	sh	s3,24(sp)
    1788:	506010ef          	jal	ra,2c8e <I2C_Init>
    178c:	40040513          	addi	a0,s0,1024
    1790:	4585                	li	a1,1
    1792:	616010ef          	jal	ra,2da8 <I2C_Cmd>
    1796:	40040513          	addi	a0,s0,1024
    179a:	4585                	li	a1,1
    179c:	664010ef          	jal	ra,2e00 <I2C_AcknowledgeConfig>
    17a0:	50f2                	lw	ra,60(sp)
    17a2:	5462                	lw	s0,56(sp)
    17a4:	54d2                	lw	s1,52(sp)
    17a6:	5942                	lw	s2,48(sp)
    17a8:	59b2                	lw	s3,44(sp)
    17aa:	5a22                	lw	s4,40(sp)
    17ac:	6121                	addi	sp,sp,64
    17ae:	8082                	ret

000017b0 <I2C_Master_Transmit>:
    17b0:	1101                	addi	sp,sp,-32
    17b2:	cc22                	sw	s0,24(sp)
    17b4:	842a                	mv	s0,a0
    17b6:	6561                	lui	a0,0x18
    17b8:	6a050513          	addi	a0,a0,1696 # 186a0 <_data_lma+0xb44c>
    17bc:	c84a                	sw	s2,16(sp)
    17be:	c64e                	sw	s3,12(sp)
    17c0:	c452                	sw	s4,8(sp)
    17c2:	ce06                	sw	ra,28(sp)
    17c4:	ca26                	sw	s1,20(sp)
    17c6:	892e                	mv	s2,a1
    17c8:	8a32                	mv	s4,a2
    17ca:	89b6                	mv	s3,a3
    17cc:	372d                	jal	16f6 <IIC_Init>
    17ce:	000205b7          	lui	a1,0x20
    17d2:	8522                	mv	a0,s0
    17d4:	67e010ef          	jal	ra,2e52 <I2C_GetFlagStatus>
    17d8:	f97d                	bnez	a0,17ce <I2C_Master_Transmit+0x1e>
    17da:	40005537          	lui	a0,0x40005
    17de:	4585                	li	a1,1
    17e0:	40050513          	addi	a0,a0,1024 # 40005400 <_eusrstack+0x1fffd400>
    17e4:	000304b7          	lui	s1,0x30
    17e8:	5dc010ef          	jal	ra,2dc4 <I2C_GenerateSTART>
    17ec:	0485                	addi	s1,s1,1
    17ee:	85a6                	mv	a1,s1
    17f0:	8522                	mv	a0,s0
    17f2:	646010ef          	jal	ra,2e38 <I2C_CheckEvent>
    17f6:	dd65                	beqz	a0,17ee <I2C_Master_Transmit+0x3e>
    17f8:	4601                	li	a2,0
    17fa:	0ff97593          	andi	a1,s2,255
    17fe:	8522                	mv	a0,s0
    1800:	000704b7          	lui	s1,0x70
    1804:	620010ef          	jal	ra,2e24 <I2C_Send7bitAddress>
    1808:	08248493          	addi	s1,s1,130 # 70082 <_data_lma+0x62e2e>
    180c:	85a6                	mv	a1,s1
    180e:	8522                	mv	a0,s0
    1810:	628010ef          	jal	ra,2e38 <I2C_CheckEvent>
    1814:	dd65                	beqz	a0,180c <I2C_Master_Transmit+0x5c>
    1816:	10000937          	lui	s2,0x10000
    181a:	4481                	li	s1,0
    181c:	08090913          	addi	s2,s2,128 # 10000080 <_data_lma+0xfff2e2c>
    1820:	03349663          	bne	s1,s3,184c <I2C_Master_Transmit+0x9c>
    1824:	000704b7          	lui	s1,0x70
    1828:	08448493          	addi	s1,s1,132 # 70084 <_data_lma+0x62e30>
    182c:	85a6                	mv	a1,s1
    182e:	8522                	mv	a0,s0
    1830:	608010ef          	jal	ra,2e38 <I2C_CheckEvent>
    1834:	dd65                	beqz	a0,182c <I2C_Master_Transmit+0x7c>
    1836:	8522                	mv	a0,s0
    1838:	4462                	lw	s0,24(sp)
    183a:	40f2                	lw	ra,28(sp)
    183c:	44d2                	lw	s1,20(sp)
    183e:	4942                	lw	s2,16(sp)
    1840:	49b2                	lw	s3,12(sp)
    1842:	4a22                	lw	s4,8(sp)
    1844:	4585                	li	a1,1
    1846:	6105                	addi	sp,sp,32
    1848:	59a0106f          	j	2de2 <I2C_GenerateSTOP>
    184c:	85ca                	mv	a1,s2
    184e:	8522                	mv	a0,s0
    1850:	602010ef          	jal	ra,2e52 <I2C_GetFlagStatus>
    1854:	d571                	beqz	a0,1820 <I2C_Master_Transmit+0x70>
    1856:	009a07b3          	add	a5,s4,s1
    185a:	0007c583          	lbu	a1,0(a5) # 4000 <__divdf3+0x1d2>
    185e:	8522                	mv	a0,s0
    1860:	0485                	addi	s1,s1,1
    1862:	5bc010ef          	jal	ra,2e1e <I2C_SendData>
    1866:	bf6d                	j	1820 <I2C_Master_Transmit+0x70>

00001868 <u8x8_byte_stm32_hw_i2c>:
    1868:	15b1                	addi	a1,a1,-20
    186a:	0ff5f593          	andi	a1,a1,255
    186e:	47b1                	li	a5,12
    1870:	06b7ea63          	bltu	a5,a1,18e4 <u8x8_byte_stm32_hw_i2c+0x7c>
    1874:	67b5                	lui	a5,0xd
    1876:	b2478793          	addi	a5,a5,-1244 # cb24 <u8x8_ssd1306_128x64_noname_display_info+0x78>
    187a:	058a                	slli	a1,a1,0x2
    187c:	95be                	add	a1,a1,a5
    187e:	419c                	lw	a5,0(a1)
    1880:	8782                	jr	a5
    1882:	83e1c783          	lbu	a5,-1986(gp) # 2000021e <buf_idx.11992>
    1886:	4501                	li	a0,0
    1888:	963e                	add	a2,a2,a5
    188a:	0ff67613          	andi	a2,a2,255
    188e:	83e18713          	addi	a4,gp,-1986 # 2000021e <buf_idx.11992>
    1892:	c5018593          	addi	a1,gp,-944 # 20000630 <buffer.11991>
    1896:	00c79763          	bne	a5,a2,18a4 <u8x8_byte_stm32_hw_i2c+0x3c>
    189a:	c119                	beqz	a0,18a0 <u8x8_byte_stm32_hw_i2c+0x38>
    189c:	00f70023          	sb	a5,0(a4)
    18a0:	4505                	li	a0,1
    18a2:	8082                	ret
    18a4:	0006c503          	lbu	a0,0(a3)
    18a8:	00178813          	addi	a6,a5,1
    18ac:	97ae                	add	a5,a5,a1
    18ae:	00a78023          	sb	a0,0(a5)
    18b2:	0685                	addi	a3,a3,1
    18b4:	4505                	li	a0,1
    18b6:	0ff87793          	andi	a5,a6,255
    18ba:	bff1                	j	1896 <u8x8_byte_stm32_hw_i2c+0x2e>
    18bc:	82018f23          	sb	zero,-1986(gp) # 2000021e <buf_idx.11992>
    18c0:	b7c5                	j	18a0 <u8x8_byte_stm32_hw_i2c+0x38>
    18c2:	83e1c683          	lbu	a3,-1986(gp) # 2000021e <buf_idx.11992>
    18c6:	40005537          	lui	a0,0x40005
    18ca:	1141                	addi	sp,sp,-16
    18cc:	40050513          	addi	a0,a0,1024 # 40005400 <_eusrstack+0x1fffd400>
    18d0:	c5018613          	addi	a2,gp,-944 # 20000630 <buffer.11991>
    18d4:	07800593          	li	a1,120
    18d8:	c606                	sw	ra,12(sp)
    18da:	3dd9                	jal	17b0 <I2C_Master_Transmit>
    18dc:	40b2                	lw	ra,12(sp)
    18de:	4505                	li	a0,1
    18e0:	0141                	addi	sp,sp,16
    18e2:	8082                	ret
    18e4:	4501                	li	a0,0
    18e6:	8082                	ret

000018e8 <ADC_Function_Init>:
    18e8:	7139                	addi	sp,sp,-64
    18ea:	02000613          	li	a2,32
    18ee:	4581                	li	a1,0
    18f0:	0808                	addi	a0,sp,16
    18f2:	de06                	sw	ra,60(sp)
    18f4:	dc22                	sw	s0,56(sp)
    18f6:	da26                	sw	s1,52(sp)
    18f8:	909fe0ef          	jal	ra,200 <memset>
    18fc:	4585                	li	a1,1
    18fe:	4511                	li	a0,4
    1900:	c202                	sw	zero,4(sp)
    1902:	c402                	sw	zero,8(sp)
    1904:	c602                	sw	zero,12(sp)
    1906:	790010ef          	jal	ra,3096 <RCC_APB2PeriphClockCmd>
    190a:	4585                	li	a1,1
    190c:	20000513          	li	a0,512
    1910:	786010ef          	jal	ra,3096 <RCC_APB2PeriphClockCmd>
    1914:	4585                	li	a1,1
    1916:	40000513          	li	a0,1024
    191a:	77c010ef          	jal	ra,3096 <RCC_APB2PeriphClockCmd>
    191e:	6511                	lui	a0,0x4
    1920:	638010ef          	jal	ra,2f58 <RCC_ADCCLKConfig>
    1924:	40011537          	lui	a0,0x40011
    1928:	47b1                	li	a5,12
    192a:	004c                	addi	a1,sp,4
    192c:	80050513          	addi	a0,a0,-2048 # 40010800 <_eusrstack+0x20008800>
    1930:	40012437          	lui	s0,0x40012
    1934:	00f11223          	sh	a5,4(sp)
    1938:	c602                	sw	zero,12(sp)
    193a:	1c4010ef          	jal	ra,2afe <GPIO_Init>
    193e:	40040513          	addi	a0,s0,1024 # 40012400 <_eusrstack+0x2000a400>
    1942:	3ff000ef          	jal	ra,2540 <ADC_DeInit>
    1946:	40013537          	lui	a0,0x40013
    194a:	80050513          	addi	a0,a0,-2048 # 40012800 <_eusrstack+0x2000a800>
    194e:	3f3000ef          	jal	ra,2540 <ADC_DeInit>
    1952:	000607b7          	lui	a5,0x60
    1956:	c83e                	sw	a5,16(sp)
    1958:	000e07b7          	lui	a5,0xe0
    195c:	ce3e                	sw	a5,28(sp)
    195e:	080c                	addi	a1,sp,16
    1960:	4785                	li	a5,1
    1962:	40040513          	addi	a0,s0,1024
    1966:	02f10223          	sb	a5,36(sp)
    196a:	ca02                	sw	zero,20(sp)
    196c:	cc02                	sw	zero,24(sp)
    196e:	d002                	sw	zero,32(sp)
    1970:	d402                	sw	zero,40(sp)
    1972:	d602                	sw	zero,44(sp)
    1974:	419000ef          	jal	ra,258c <ADC_Init>
    1978:	469d                	li	a3,7
    197a:	4605                	li	a2,1
    197c:	4589                	li	a1,2
    197e:	40040513          	addi	a0,s0,1024
    1982:	4c1000ef          	jal	ra,2642 <ADC_RegularChannelConfig>
    1986:	4585                	li	a1,1
    1988:	40040513          	addi	a0,s0,1024
    198c:	469000ef          	jal	ra,25f4 <ADC_DMACmd>
    1990:	4585                	li	a1,1
    1992:	40040513          	addi	a0,s0,1024
    1996:	44f000ef          	jal	ra,25e4 <ADC_Cmd>
    199a:	4581                	li	a1,0
    199c:	40040513          	addi	a0,s0,1024
    19a0:	55b000ef          	jal	ra,26fa <ADC_BufferCmd>
    19a4:	40040513          	addi	a0,s0,1024
    19a8:	45f000ef          	jal	ra,2606 <ADC_ResetCalibration>
    19ac:	40040493          	addi	s1,s0,1024
    19b0:	8526                	mv	a0,s1
    19b2:	45f000ef          	jal	ra,2610 <ADC_GetResetCalibrationStatus>
    19b6:	fd6d                	bnez	a0,19b0 <ADC_Function_Init+0xc8>
    19b8:	40040513          	addi	a0,s0,1024
    19bc:	40012437          	lui	s0,0x40012
    19c0:	459000ef          	jal	ra,2618 <ADC_StartCalibration>
    19c4:	40040493          	addi	s1,s0,1024 # 40012400 <_eusrstack+0x2000a400>
    19c8:	8526                	mv	a0,s1
    19ca:	459000ef          	jal	ra,2622 <ADC_GetCalibrationStatus>
    19ce:	fd6d                	bnez	a0,19c8 <ADC_Function_Init+0xe0>
    19d0:	40040513          	addi	a0,s0,1024
    19d4:	53f000ef          	jal	ra,2712 <Get_CalibrationValue>
    19d8:	82a19d23          	sh	a0,-1990(gp) # 2000021a <Calibrattion_Val1>
    19dc:	4585                	li	a1,1
    19de:	40040513          	addi	a0,s0,1024
    19e2:	519000ef          	jal	ra,26fa <ADC_BufferCmd>
    19e6:	40013437          	lui	s0,0x40013
    19ea:	080c                	addi	a1,sp,16
    19ec:	80040513          	addi	a0,s0,-2048 # 40012800 <_eusrstack+0x2000a800>
    19f0:	39d000ef          	jal	ra,258c <ADC_Init>
    19f4:	469d                	li	a3,7
    19f6:	4605                	li	a2,1
    19f8:	458d                	li	a1,3
    19fa:	80040513          	addi	a0,s0,-2048
    19fe:	445000ef          	jal	ra,2642 <ADC_RegularChannelConfig>
    1a02:	4585                	li	a1,1
    1a04:	80040513          	addi	a0,s0,-2048
    1a08:	423000ef          	jal	ra,262a <ADC_SoftwareStartConvCmd>
    1a0c:	4585                	li	a1,1
    1a0e:	80040513          	addi	a0,s0,-2048
    1a12:	3d3000ef          	jal	ra,25e4 <ADC_Cmd>
    1a16:	4581                	li	a1,0
    1a18:	80040513          	addi	a0,s0,-2048
    1a1c:	4df000ef          	jal	ra,26fa <ADC_BufferCmd>
    1a20:	80040513          	addi	a0,s0,-2048
    1a24:	3e3000ef          	jal	ra,2606 <ADC_ResetCalibration>
    1a28:	80040493          	addi	s1,s0,-2048
    1a2c:	8526                	mv	a0,s1
    1a2e:	3e3000ef          	jal	ra,2610 <ADC_GetResetCalibrationStatus>
    1a32:	fd6d                	bnez	a0,1a2c <ADC_Function_Init+0x144>
    1a34:	80040513          	addi	a0,s0,-2048
    1a38:	40013437          	lui	s0,0x40013
    1a3c:	3dd000ef          	jal	ra,2618 <ADC_StartCalibration>
    1a40:	80040493          	addi	s1,s0,-2048 # 40012800 <_eusrstack+0x2000a800>
    1a44:	8526                	mv	a0,s1
    1a46:	3dd000ef          	jal	ra,2622 <ADC_GetCalibrationStatus>
    1a4a:	fd6d                	bnez	a0,1a44 <ADC_Function_Init+0x15c>
    1a4c:	80040513          	addi	a0,s0,-2048
    1a50:	4c3000ef          	jal	ra,2712 <Get_CalibrationValue>
    1a54:	82a19e23          	sh	a0,-1988(gp) # 2000021c <Calibrattion_Val2>
    1a58:	4585                	li	a1,1
    1a5a:	80040513          	addi	a0,s0,-2048
    1a5e:	49d000ef          	jal	ra,26fa <ADC_BufferCmd>
    1a62:	50f2                	lw	ra,60(sp)
    1a64:	5462                	lw	s0,56(sp)
    1a66:	54d2                	lw	s1,52(sp)
    1a68:	6121                	addi	sp,sp,64
    1a6a:	8082                	ret

00001a6c <DMA_Tx_Init>:
    1a6c:	711d                	addi	sp,sp,-96
    1a6e:	cca2                	sw	s0,88(sp)
    1a70:	caa6                	sw	s1,84(sp)
    1a72:	c8ca                	sw	s2,80(sp)
    1a74:	842a                	mv	s0,a0
    1a76:	892e                	mv	s2,a1
    1a78:	84b2                	mv	s1,a2
    1a7a:	4581                	li	a1,0
    1a7c:	02c00613          	li	a2,44
    1a80:	1048                	addi	a0,sp,36
    1a82:	ce86                	sw	ra,92(sp)
    1a84:	c636                	sw	a3,12(sp)
    1a86:	f7afe0ef          	jal	ra,200 <memset>
    1a8a:	4585                	li	a1,1
    1a8c:	4505                	li	a0,1
    1a8e:	ce02                	sw	zero,28(sp)
    1a90:	d002                	sw	zero,32(sp)
    1a92:	5e6010ef          	jal	ra,3078 <RCC_AHBPeriphClockCmd>
    1a96:	8522                	mv	a0,s0
    1a98:	63b000ef          	jal	ra,28d2 <DMA_DeInit>
    1a9c:	08000793          	li	a5,128
    1aa0:	dc3e                	sw	a5,56(sp)
    1aa2:	20000793          	li	a5,512
    1aa6:	de3e                	sw	a5,60(sp)
    1aa8:	6785                	lui	a5,0x1
    1aaa:	46b2                	lw	a3,12(sp)
    1aac:	80078793          	addi	a5,a5,-2048 # 800 <__stack_size>
    1ab0:	c0be                	sw	a5,64(sp)
    1ab2:	02000793          	li	a5,32
    1ab6:	104c                	addi	a1,sp,36
    1ab8:	c2be                	sw	a5,68(sp)
    1aba:	8522                	mv	a0,s0
    1abc:	678d                	lui	a5,0x3
    1abe:	d836                	sw	a3,48(sp)
    1ac0:	d24a                	sw	s2,36(sp)
    1ac2:	d426                	sw	s1,40(sp)
    1ac4:	c4be                	sw	a5,72(sp)
    1ac6:	d602                	sw	zero,44(sp)
    1ac8:	da02                	sw	zero,52(sp)
    1aca:	c682                	sw	zero,76(sp)
    1acc:	773000ef          	jal	ra,2a3e <DMA_Init>
    1ad0:	21b00793          	li	a5,539
    1ad4:	00f11e23          	sh	a5,28(sp)
    1ad8:	0868                	addi	a0,sp,28
    1ada:	4785                	li	a5,1
    1adc:	d03e                	sw	a5,32(sp)
    1ade:	00010f23          	sb	zero,30(sp)
    1ae2:	3a8010ef          	jal	ra,2e8a <NVIC_Init>
    1ae6:	40020537          	lui	a0,0x40020
    1aea:	4605                	li	a2,1
    1aec:	45b9                	li	a1,14
    1aee:	0521                	addi	a0,a0,8
    1af0:	79b000ef          	jal	ra,2a8a <DMA_ITConfig>
    1af4:	40f6                	lw	ra,92(sp)
    1af6:	4466                	lw	s0,88(sp)
    1af8:	44d6                	lw	s1,84(sp)
    1afa:	4946                	lw	s2,80(sp)
    1afc:	6125                	addi	sp,sp,96
    1afe:	8082                	ret

00001b00 <main>:
    1b00:	7159                	addi	sp,sp,-112
    1b02:	d686                	sw	ra,108(sp)
    1b04:	d4a2                	sw	s0,104(sp)
    1b06:	d2a6                	sw	s1,100(sp)
    1b08:	d0ca                	sw	s2,96(sp)
    1b0a:	cece                	sw	s3,92(sp)
    1b0c:	ccd2                	sw	s4,88(sp)
    1b0e:	cad6                	sw	s5,84(sp)
    1b10:	c8da                	sw	s6,80(sp)
    1b12:	c6de                	sw	s7,76(sp)
    1b14:	c4e2                	sw	s8,72(sp)
    1b16:	c2e6                	sw	s9,68(sp)
    1b18:	c0ea                	sw	s10,64(sp)
    1b1a:	de6e                	sw	s11,60(sp)
    1b1c:	7fc010ef          	jal	ra,3318 <Delay_Init>
    1b20:	6571                	lui	a0,0x1c
    1b22:	20050513          	addi	a0,a0,512 # 1c200 <_data_lma+0xefac>
    1b26:	079010ef          	jal	ra,339e <USART_Printf_Init>
    1b2a:	200007b7          	lui	a5,0x20000
    1b2e:	1e07a583          	lw	a1,480(a5) # 200001e0 <SystemCoreClock>
    1b32:	0000d537          	lui	a0,0xd
    1b36:	b9850513          	addi	a0,a0,-1128 # cb98 <u8x8_ssd1306_128x64_noname_display_info+0xec>
    1b3a:	3d8050ef          	jal	ra,6f12 <iprintf>
    1b3e:	000016b7          	lui	a3,0x1
    1b42:	00002637          	lui	a2,0x2
    1b46:	65b5                	lui	a1,0xd
    1b48:	5e068693          	addi	a3,a3,1504 # 15e0 <u8g2_gpio_and_delay_stm32>
    1b4c:	86860613          	addi	a2,a2,-1944 # 1868 <u8x8_byte_stm32_hw_i2c>
    1b50:	a5058593          	addi	a1,a1,-1456 # ca50 <u8g2_cb_r0>
    1b54:	ca818513          	addi	a0,gp,-856 # 20000688 <u8g2>
    1b58:	801fe0ef          	jal	ra,358 <u8g2_Setup_ssd1306_i2c_128x64_noname_f>
    1b5c:	ca818513          	addi	a0,gp,-856 # 20000688 <u8g2>
    1b60:	dfeff0ef          	jal	ra,115e <u8x8_InitDisplay>
    1b64:	4581                	li	a1,0
    1b66:	ca818513          	addi	a0,gp,-856 # 20000688 <u8g2>
    1b6a:	e00ff0ef          	jal	ra,116a <u8x8_SetPowerSave>
    1b6e:	ca818513          	addi	a0,gp,-856 # 20000688 <u8g2>
    1b72:	faefe0ef          	jal	ra,320 <u8g2_ClearBuffer>
    1b76:	65ad                	lui	a1,0xb
    1b78:	58c58593          	addi	a1,a1,1420 # b58c <u8g2_font_courB14_tf>
    1b7c:	ca818513          	addi	a0,gp,-856 # 20000688 <u8g2>
    1b80:	e6bfe0ef          	jal	ra,9ea <u8g2_SetFont>
    1b84:	3395                	jal	18e8 <ADC_Function_Init>
    1b86:	400204b7          	lui	s1,0x40020
    1b8a:	400125b7          	lui	a1,0x40012
    1b8e:	4685                	li	a3,1
    1b90:	c7818613          	addi	a2,gp,-904 # 20000658 <TxBuf>
    1b94:	00848513          	addi	a0,s1,8 # 40020008 <_eusrstack+0x20018008>
    1b98:	44c58593          	addi	a1,a1,1100 # 4001244c <_eusrstack+0x2000a44c>
    1b9c:	3dc1                	jal	1a6c <DMA_Tx_Init>
    1b9e:	00848513          	addi	a0,s1,8
    1ba2:	4585                	li	a1,1
    1ba4:	6d3000ef          	jal	ra,2a76 <DMA_Cmd>
    1ba8:	400114b7          	lui	s1,0x40011
    1bac:	b17ff0ef          	jal	ra,16c2 <GPIO_INIT>
    1bb0:	4601                	li	a2,0
    1bb2:	4585                	li	a1,1
    1bb4:	80048513          	addi	a0,s1,-2048 # 40010800 <_eusrstack+0x20008800>
    1bb8:	008010ef          	jal	ra,2bc0 <GPIO_WriteBit>
    1bbc:	4509                	li	a0,2
    1bbe:	2c6010ef          	jal	ra,2e84 <NVIC_PriorityGroupConfig>
    1bc2:	6589                	lui	a1,0x2
    1bc4:	6515                	lui	a0,0x5
    1bc6:	c1f58593          	addi	a1,a1,-993 # 1c1f <main+0x11f>
    1bca:	e1f50513          	addi	a0,a0,-481 # 4e1f <__subdf3+0x4cf>
    1bce:	aa3ff0ef          	jal	ra,1670 <TIM3_Int_Init>
    1bd2:	a7dff0ef          	jal	ra,164e <BKP_Tamper_Init>
    1bd6:	400077b7          	lui	a5,0x40007
    1bda:	c0078793          	addi	a5,a5,-1024 # 40006c00 <_eusrstack+0x1fffec00>
    1bde:	0047d783          	lhu	a5,4(a5)
    1be2:	80048513          	addi	a0,s1,-2048
    1be6:	4601                	li	a2,0
    1be8:	4585                	li	a1,1
    1bea:	6985                	lui	s3,0x1
    1bec:	c6f1aa23          	sw	a5,-908(gp) # 20000654 <Wh>
    1bf0:	c9598993          	addi	s3,s3,-875 # c95 <u8g2_apply_clip_window+0x1d>
    1bf4:	7cd000ef          	jal	ra,2bc0 <GPIO_WriteBit>
    1bf8:	80048493          	addi	s1,s1,-2048
    1bfc:	4605                	li	a2,1
    1bfe:	4585                	li	a1,1
    1c00:	8526                	mv	a0,s1
    1c02:	7bf000ef          	jal	ra,2bc0 <GPIO_WriteBit>
    1c06:	0f400513          	li	a0,244
    1c0a:	738010ef          	jal	ra,3342 <Delay_Us>
    1c0e:	4601                	li	a2,0
    1c10:	4585                	li	a1,1
    1c12:	8526                	mv	a0,s1
    1c14:	7ad000ef          	jal	ra,2bc0 <GPIO_WriteBit>
    1c18:	0f400513          	li	a0,244
    1c1c:	19fd                	addi	s3,s3,-1
    1c1e:	724010ef          	jal	ra,3342 <Delay_Us>
    1c22:	fc099de3          	bnez	s3,1bfc <main+0xfc>
    1c26:	4495                	li	s1,5
    1c28:	0000db37          	lui	s6,0xd
    1c2c:	0000da37          	lui	s4,0xd
    1c30:	5afd                	li	s5,-1
    1c32:	ba8b0693          	addi	a3,s6,-1112 # cba8 <u8x8_ssd1306_128x64_noname_display_info+0xfc>
    1c36:	4665                	li	a2,25
    1c38:	45dd                	li	a1,23
    1c3a:	ca818513          	addi	a0,gp,-856 # 20000688 <u8g2>
    1c3e:	d3ffe0ef          	jal	ra,97c <u8g2_DrawStr>
    1c42:	8626                	mv	a2,s1
    1c44:	bb4a0593          	addi	a1,s4,-1100 # cbb4 <u8x8_ssd1306_128x64_noname_display_info+0x108>
    1c48:	d8818513          	addi	a0,gp,-632 # 20000768 <bs>
    1c4c:	340050ef          	jal	ra,6f8c <siprintf>
    1c50:	d8818693          	addi	a3,gp,-632 # 20000768 <bs>
    1c54:	03200613          	li	a2,50
    1c58:	03900593          	li	a1,57
    1c5c:	ca818513          	addi	a0,gp,-856 # 20000688 <u8g2>
    1c60:	d1dfe0ef          	jal	ra,97c <u8g2_DrawStr>
    1c64:	3e800513          	li	a0,1000
    1c68:	708010ef          	jal	ra,3370 <Delay_Ms>
    1c6c:	ca818513          	addi	a0,gp,-856 # 20000688 <u8g2>
    1c70:	ec6fe0ef          	jal	ra,336 <u8g2_SendBuffer>
    1c74:	ca818513          	addi	a0,gp,-856 # 20000688 <u8g2>
    1c78:	14fd                	addi	s1,s1,-1
    1c7a:	ea6fe0ef          	jal	ra,320 <u8g2_ClearBuffer>
    1c7e:	fb549ae3          	bne	s1,s5,1c32 <main+0x132>
    1c82:	40011537          	lui	a0,0x40011
    1c86:	4605                	li	a2,1
    1c88:	4589                	li	a1,2
    1c8a:	80050513          	addi	a0,a0,-2048 # 40010800 <_eusrstack+0x20008800>
    1c8e:	733000ef          	jal	ra,2bc0 <GPIO_WriteBit>
    1c92:	0000d7b7          	lui	a5,0xd
    1c96:	b5c7a783          	lw	a5,-1188(a5) # cb5c <u8x8_ssd1306_128x64_noname_display_info+0xb0>
    1c9a:	0000dd37          	lui	s10,0xd
    1c9e:	c83e                	sw	a5,16(sp)
    1ca0:	0000d7b7          	lui	a5,0xd
    1ca4:	b607a783          	lw	a5,-1184(a5) # cb60 <u8x8_ssd1306_128x64_noname_display_info+0xb4>
    1ca8:	ca3e                	sw	a5,20(sp)
    1caa:	0000d7b7          	lui	a5,0xd
    1cae:	b847a803          	lw	a6,-1148(a5) # cb84 <u8x8_ssd1306_128x64_noname_display_info+0xd8>
    1cb2:	b807a783          	lw	a5,-1152(a5)
    1cb6:	d242                	sw	a6,36(sp)
    1cb8:	d03e                	sw	a5,32(sp)
    1cba:	0000d7b7          	lui	a5,0xd
    1cbe:	b8c7a803          	lw	a6,-1140(a5) # cb8c <u8x8_ssd1306_128x64_noname_display_info+0xe0>
    1cc2:	b887a783          	lw	a5,-1144(a5)
    1cc6:	ce42                	sw	a6,28(sp)
    1cc8:	cc3e                	sw	a5,24(sp)
    1cca:	0000d7b7          	lui	a5,0xd
    1cce:	b947a803          	lw	a6,-1132(a5) # cb94 <u8x8_ssd1306_128x64_noname_display_info+0xe8>
    1cd2:	b907a783          	lw	a5,-1136(a5)
    1cd6:	d642                	sw	a6,44(sp)
    1cd8:	d43e                	sw	a5,40(sp)
    1cda:	40012537          	lui	a0,0x40012
    1cde:	4585                	li	a1,1
    1ce0:	40050513          	addi	a0,a0,1024 # 40012400 <_eusrstack+0x2000a400>
    1ce4:	147000ef          	jal	ra,262a <ADC_SoftwareStartConvCmd>
    1ce8:	400004b7          	lui	s1,0x40000
    1cec:	4585                	li	a1,1
    1cee:	40048513          	addi	a0,s1,1024 # 40000400 <_eusrstack+0x1fff8400>
    1cf2:	4f0010ef          	jal	ra,31e2 <TIM_GetITStatus>
    1cf6:	c121                	beqz	a0,1d36 <main+0x236>
    1cf8:	4585                	li	a1,1
    1cfa:	40048513          	addi	a0,s1,1024
    1cfe:	500010ef          	jal	ra,31fe <TIM_ClearITPendingBit>
    1d02:	c741a503          	lw	a0,-908(gp) # 20000654 <Wh>
    1d06:	03e040ef          	jal	ra,5d44 <__floatunsisf>
    1d0a:	84aa                	mv	s1,a0
    1d0c:	809ff0ef          	jal	ra,1514 <P_avg>
    1d10:	0000d7b7          	lui	a5,0xd
    1d14:	b647a583          	lw	a1,-1180(a5) # cb64 <u8x8_ssd1306_128x64_noname_display_info+0xb8>
    1d18:	183030ef          	jal	ra,569a <__divsf3>
    1d1c:	85a6                	mv	a1,s1
    1d1e:	612030ef          	jal	ra,5330 <__addsf3>
    1d22:	7cd030ef          	jal	ra,5cee <__fixunssfsi>
    1d26:	01051593          	slli	a1,a0,0x10
    1d2a:	c6a1aa23          	sw	a0,-908(gp) # 20000654 <Wh>
    1d2e:	81c1                	srli	a1,a1,0x10
    1d30:	4511                	li	a0,4
    1d32:	373000ef          	jal	ra,28a4 <BKP_WriteBackupRegister>
    1d36:	efeff0ef          	jal	ra,1434 <plotter>
    1d3a:	dfcff0ef          	jal	ra,1336 <I_rms>
    1d3e:	0000d7b7          	lui	a5,0xd
    1d42:	b587a583          	lw	a1,-1192(a5) # cb58 <u8x8_ssd1306_128x64_noname_display_info+0xac>
    1d46:	89aa                	mv	s3,a0
    1d48:	405030ef          	jal	ra,594c <__gesf2>
    1d4c:	3ea04463          	bgtz	a0,2134 <main+0x634>
    1d50:	00000593          	li	a1,0
    1d54:	854e                	mv	a0,s3
    1d56:	47d030ef          	jal	ra,59d2 <__lesf2>
    1d5a:	00055463          	bgez	a0,1d62 <main+0x262>
    1d5e:	00000993          	li	s3,0
    1d62:	d7aff0ef          	jal	ra,12dc <V_rms>
    1d66:	45c2                	lw	a1,16(sp)
    1d68:	84aa                	mv	s1,a0
    1d6a:	3e3030ef          	jal	ra,594c <__gesf2>
    1d6e:	3ca04863          	bgtz	a0,213e <main+0x63e>
    1d72:	00000593          	li	a1,0
    1d76:	8526                	mv	a0,s1
    1d78:	45b030ef          	jal	ra,59d2 <__lesf2>
    1d7c:	00055463          	bgez	a0,1d84 <main+0x284>
    1d80:	00000493          	li	s1,0
    1d84:	85a6                	mv	a1,s1
    1d86:	854e                	mv	a0,s3
    1d88:	4d7030ef          	jal	ra,5a5e <__mulsf3>
    1d8c:	0000da37          	lui	s4,0xd
    1d90:	ae0a2583          	lw	a1,-1312(s4) # cae0 <u8x8_ssd1306_128x64_noname_display_info+0x34>
    1d94:	107030ef          	jal	ra,569a <__divsf3>
    1d98:	b58d2a83          	lw	s5,-1192(s10) # cb58 <u8x8_ssd1306_128x64_noname_display_info+0xac>
    1d9c:	8b2a                	mv	s6,a0
    1d9e:	85d6                	mv	a1,s5
    1da0:	3ad030ef          	jal	ra,594c <__gesf2>
    1da4:	38a04f63          	bgtz	a0,2142 <main+0x642>
    1da8:	00000593          	li	a1,0
    1dac:	855a                	mv	a0,s6
    1dae:	425030ef          	jal	ra,59d2 <__lesf2>
    1db2:	00055463          	bgez	a0,1dba <main+0x2ba>
    1db6:	00000b13          	li	s6,0
    1dba:	f5aff0ef          	jal	ra,1514 <P_avg>
    1dbe:	ae0a2583          	lw	a1,-1312(s4)
    1dc2:	0d9030ef          	jal	ra,569a <__divsf3>
    1dc6:	b58d2a03          	lw	s4,-1192(s10)
    1dca:	8aaa                	mv	s5,a0
    1dcc:	85d2                	mv	a1,s4
    1dce:	37f030ef          	jal	ra,594c <__gesf2>
    1dd2:	36a04a63          	bgtz	a0,2146 <main+0x646>
    1dd6:	00000593          	li	a1,0
    1dda:	8556                	mv	a0,s5
    1ddc:	3f7030ef          	jal	ra,59d2 <__lesf2>
    1de0:	00055663          	bgez	a0,1dec <main+0x2ec>
    1de4:	800007b7          	lui	a5,0x80000
    1de8:	0157cab3          	xor	s5,a5,s5
    1dec:	85da                	mv	a1,s6
    1dee:	8556                	mv	a0,s5
    1df0:	0ab030ef          	jal	ra,569a <__divsf3>
    1df4:	45d2                	lw	a1,20(sp)
    1df6:	8a2a                	mv	s4,a0
    1df8:	355030ef          	jal	ra,594c <__gesf2>
    1dfc:	34a04763          	bgtz	a0,214a <main+0x64a>
    1e00:	00000593          	li	a1,0
    1e04:	8552                	mv	a0,s4
    1e06:	3cd030ef          	jal	ra,59d2 <__lesf2>
    1e0a:	00055463          	bgez	a0,1e12 <main+0x312>
    1e0e:	00000a13          	li	s4,0
    1e12:	c741a503          	lw	a0,-908(gp) # 20000654 <Wh>
    1e16:	326030ef          	jal	ra,513c <__floatunsidf>
    1e1a:	5602                	lw	a2,32(sp)
    1e1c:	5692                	lw	a3,36(sp)
    1e1e:	010020ef          	jal	ra,3e2e <__divdf3>
    1e22:	09c040ef          	jal	ra,5ebe <__truncdfsf2>
    1e26:	0000d7b7          	lui	a5,0xd
    1e2a:	b687a583          	lw	a1,-1176(a5) # cb68 <u8x8_ssd1306_128x64_noname_display_info+0xbc>
    1e2e:	c42a                	sw	a0,8(sp)
    1e30:	31d030ef          	jal	ra,594c <__gesf2>
    1e34:	00a05563          	blez	a0,1e3e <main+0x33e>
    1e38:	00000793          	li	a5,0
    1e3c:	c43e                	sw	a5,8(sp)
    1e3e:	8526                	mv	a0,s1
    1e40:	7d3030ef          	jal	ra,5e12 <__extendsfdf2>
    1e44:	0000ddb7          	lui	s11,0xd
    1e48:	862a                	mv	a2,a0
    1e4a:	86ae                	mv	a3,a1
    1e4c:	d3018513          	addi	a0,gp,-720 # 20000710 <vol_buffer>
    1e50:	bb8d8593          	addi	a1,s11,-1096 # cbb8 <u8x8_ssd1306_128x64_noname_display_info+0x10c>
    1e54:	138050ef          	jal	ra,6f8c <siprintf>
    1e58:	854e                	mv	a0,s3
    1e5a:	7b9030ef          	jal	ra,5e12 <__extendsfdf2>
    1e5e:	0000dbb7          	lui	s7,0xd
    1e62:	862a                	mv	a2,a0
    1e64:	86ae                	mv	a3,a1
    1e66:	d7818513          	addi	a0,gp,-648 # 20000758 <cur_buffer>
    1e6a:	bc0b8593          	addi	a1,s7,-1088 # cbc0 <u8x8_ssd1306_128x64_noname_display_info+0x114>
    1e6e:	11e050ef          	jal	ra,6f8c <siprintf>
    1e72:	8552                	mv	a0,s4
    1e74:	79f030ef          	jal	ra,5e12 <__extendsfdf2>
    1e78:	86ae                	mv	a3,a1
    1e7a:	0000d5b7          	lui	a1,0xd
    1e7e:	862a                	mv	a2,a0
    1e80:	bc858593          	addi	a1,a1,-1080 # cbc8 <u8x8_ssd1306_128x64_noname_display_info+0x11c>
    1e84:	d6018513          	addi	a0,gp,-672 # 20000740 <pf_buffer>
    1e88:	104050ef          	jal	ra,6f8c <siprintf>
    1e8c:	855a                	mv	a0,s6
    1e8e:	785030ef          	jal	ra,5e12 <__extendsfdf2>
    1e92:	862a                	mv	a2,a0
    1e94:	86ae                	mv	a3,a1
    1e96:	d6c18513          	addi	a0,gp,-660 # 2000074c <pow_rms_buffer>
    1e9a:	bc0b8593          	addi	a1,s7,-1088
    1e9e:	0ee050ef          	jal	ra,6f8c <siprintf>
    1ea2:	8556                	mv	a0,s5
    1ea4:	76f030ef          	jal	ra,5e12 <__extendsfdf2>
    1ea8:	862a                	mv	a2,a0
    1eaa:	86ae                	mv	a3,a1
    1eac:	d4018513          	addi	a0,gp,-704 # 20000720 <pow_av_buffer>
    1eb0:	bc0b8593          	addi	a1,s7,-1088
    1eb4:	0d8050ef          	jal	ra,6f8c <siprintf>
    1eb8:	4522                	lw	a0,8(sp)
    1eba:	759030ef          	jal	ra,5e12 <__extendsfdf2>
    1ebe:	4662                	lw	a2,24(sp)
    1ec0:	46f2                	lw	a3,28(sp)
    1ec2:	c42a                	sw	a0,8(sp)
    1ec4:	c62e                	sw	a1,12(sp)
    1ec6:	51c020ef          	jal	ra,43e2 <__ledf2>
    1eca:	8bc2                	mv	s7,a6
    1ecc:	4722                	lw	a4,8(sp)
    1ece:	47b2                	lw	a5,12(sp)
    1ed0:	26055f63          	bgez	a0,214e <main+0x64e>
    1ed4:	0000d5b7          	lui	a1,0xd
    1ed8:	863a                	mv	a2,a4
    1eda:	86be                	mv	a3,a5
    1edc:	bd058593          	addi	a1,a1,-1072 # cbd0 <u8x8_ssd1306_128x64_noname_display_info+0x124>
    1ee0:	d5018513          	addi	a0,gp,-688 # 20000730 <kWh_buffer>
    1ee4:	0a8050ef          	jal	ra,6f8c <siprintf>
    1ee8:	ca818513          	addi	a0,gp,-856 # 20000688 <u8g2>
    1eec:	c34fe0ef          	jal	ra,320 <u8g2_ClearBuffer>
    1ef0:	6db1                	lui	s11,0xc
    1ef2:	444d8593          	addi	a1,s11,1092 # c444 <u8g2_font_crox1c_tr>
    1ef6:	ca818513          	addi	a0,gp,-856 # 20000688 <u8g2>
    1efa:	af1fe0ef          	jal	ra,9ea <u8g2_SetFont>
    1efe:	0000d6b7          	lui	a3,0xd
    1f02:	be068693          	addi	a3,a3,-1056 # cbe0 <u8x8_ssd1306_128x64_noname_display_info+0x134>
    1f06:	463d                	li	a2,15
    1f08:	02a00593          	li	a1,42
    1f0c:	ca818513          	addi	a0,gp,-856 # 20000688 <u8g2>
    1f10:	a6dfe0ef          	jal	ra,97c <u8g2_DrawStr>
    1f14:	0000d6b7          	lui	a3,0xd
    1f18:	be468693          	addi	a3,a3,-1052 # cbe4 <u8x8_ssd1306_128x64_noname_display_info+0x138>
    1f1c:	4679                	li	a2,30
    1f1e:	02a00593          	li	a1,42
    1f22:	ca818513          	addi	a0,gp,-856 # 20000688 <u8g2>
    1f26:	a57fe0ef          	jal	ra,97c <u8g2_DrawStr>
    1f2a:	0000d6b7          	lui	a3,0xd
    1f2e:	be868693          	addi	a3,a3,-1048 # cbe8 <u8x8_ssd1306_128x64_noname_display_info+0x13c>
    1f32:	02d00613          	li	a2,45
    1f36:	02a00593          	li	a1,42
    1f3a:	ca818513          	addi	a0,gp,-856 # 20000688 <u8g2>
    1f3e:	a3ffe0ef          	jal	ra,97c <u8g2_DrawStr>
    1f42:	0000d6b7          	lui	a3,0xd
    1f46:	bec68693          	addi	a3,a3,-1044 # cbec <u8x8_ssd1306_128x64_noname_display_info+0x140>
    1f4a:	463d                	li	a2,15
    1f4c:	06c00593          	li	a1,108
    1f50:	ca818513          	addi	a0,gp,-856 # 20000688 <u8g2>
    1f54:	a29fe0ef          	jal	ra,97c <u8g2_DrawStr>
    1f58:	0000d6b7          	lui	a3,0xd
    1f5c:	bf068693          	addi	a3,a3,-1040 # cbf0 <u8x8_ssd1306_128x64_noname_display_info+0x144>
    1f60:	4679                	li	a2,30
    1f62:	06c00593          	li	a1,108
    1f66:	ca818513          	addi	a0,gp,-856 # 20000688 <u8g2>
    1f6a:	a13fe0ef          	jal	ra,97c <u8g2_DrawStr>
    1f6e:	0000d6b7          	lui	a3,0xd
    1f72:	bf468693          	addi	a3,a3,-1036 # cbf4 <u8x8_ssd1306_128x64_noname_display_info+0x148>
    1f76:	02d00613          	li	a2,45
    1f7a:	06c00593          	li	a1,108
    1f7e:	ca818513          	addi	a0,gp,-856 # 20000688 <u8g2>
    1f82:	9fbfe0ef          	jal	ra,97c <u8g2_DrawStr>
    1f86:	65b5                	lui	a1,0xd
    1f88:	91c58593          	addi	a1,a1,-1764 # c91c <u8g2_font_t0_16b_mn>
    1f8c:	ca818513          	addi	a0,gp,-856 # 20000688 <u8g2>
    1f90:	a5bfe0ef          	jal	ra,9ea <u8g2_SetFont>
    1f94:	d7818693          	addi	a3,gp,-648 # 20000758 <cur_buffer>
    1f98:	463d                	li	a2,15
    1f9a:	4595                	li	a1,5
    1f9c:	ca818513          	addi	a0,gp,-856 # 20000688 <u8g2>
    1fa0:	9ddfe0ef          	jal	ra,97c <u8g2_DrawStr>
    1fa4:	d3018693          	addi	a3,gp,-720 # 20000710 <vol_buffer>
    1fa8:	463d                	li	a2,15
    1faa:	04b00593          	li	a1,75
    1fae:	ca818513          	addi	a0,gp,-856 # 20000688 <u8g2>
    1fb2:	9cbfe0ef          	jal	ra,97c <u8g2_DrawStr>
    1fb6:	d6c18693          	addi	a3,gp,-660 # 2000074c <pow_rms_buffer>
    1fba:	4679                	li	a2,30
    1fbc:	4595                	li	a1,5
    1fbe:	ca818513          	addi	a0,gp,-856 # 20000688 <u8g2>
    1fc2:	9bbfe0ef          	jal	ra,97c <u8g2_DrawStr>
    1fc6:	d4018693          	addi	a3,gp,-704 # 20000720 <pow_av_buffer>
    1fca:	4679                	li	a2,30
    1fcc:	04b00593          	li	a1,75
    1fd0:	ca818513          	addi	a0,gp,-856 # 20000688 <u8g2>
    1fd4:	9a9fe0ef          	jal	ra,97c <u8g2_DrawStr>
    1fd8:	d5018693          	addi	a3,gp,-688 # 20000730 <kWh_buffer>
    1fdc:	02d00613          	li	a2,45
    1fe0:	4595                	li	a1,5
    1fe2:	ca818513          	addi	a0,gp,-856 # 20000688 <u8g2>
    1fe6:	997fe0ef          	jal	ra,97c <u8g2_DrawStr>
    1fea:	d6018693          	addi	a3,gp,-672 # 20000740 <pf_buffer>
    1fee:	02d00613          	li	a2,45
    1ff2:	04b00593          	li	a1,75
    1ff6:	ca818513          	addi	a0,gp,-856 # 20000688 <u8g2>
    1ffa:	983fe0ef          	jal	ra,97c <u8g2_DrawStr>
    1ffe:	444d8593          	addi	a1,s11,1092
    2002:	ca818513          	addi	a0,gp,-856 # 20000688 <u8g2>
    2006:	9e5fe0ef          	jal	ra,9ea <u8g2_SetFont>
    200a:	0000d7b7          	lui	a5,0xd
    200e:	b6c7a583          	lw	a1,-1172(a5) # cb6c <u8x8_ssd1306_128x64_noname_display_info+0xc0>
    2012:	8526                	mv	a0,s1
    2014:	1bf030ef          	jal	ra,59d2 <__lesf2>
    2018:	16055063          	bgez	a0,2178 <main+0x678>
    201c:	40011537          	lui	a0,0x40011
    2020:	4601                	li	a2,0
    2022:	4589                	li	a1,2
    2024:	80050513          	addi	a0,a0,-2048 # 40010800 <_eusrstack+0x20008800>
    2028:	399000ef          	jal	ra,2bc0 <GPIO_WriteBit>
    202c:	0000d6b7          	lui	a3,0xd
    2030:	bf868693          	addi	a3,a3,-1032 # cbf8 <u8x8_ssd1306_128x64_noname_display_info+0x14c>
    2034:	03c00613          	li	a2,60
    2038:	45f9                	li	a1,30
    203a:	ca818513          	addi	a0,gp,-856 # 20000688 <u8g2>
    203e:	93ffe0ef          	jal	ra,97c <u8g2_DrawStr>
    2042:	4705                	li	a4,1
    2044:	d4e19523          	sh	a4,-694(gp) # 2000072a <UNDER_VOL_FLAG>
    2048:	0000d7b7          	lui	a5,0xd
    204c:	b7c7a583          	lw	a1,-1156(a5) # cb7c <u8x8_ssd1306_128x64_noname_display_info+0xd0>
    2050:	854e                	mv	a0,s3
    2052:	0fb030ef          	jal	ra,594c <__gesf2>
    2056:	24a05c63          	blez	a0,22ae <main+0x7ae>
    205a:	400114b7          	lui	s1,0x40011
    205e:	80048513          	addi	a0,s1,-2048 # 40010800 <_eusrstack+0x20008800>
    2062:	4601                	li	a2,0
    2064:	4589                	li	a1,2
    2066:	beef09b7          	lui	s3,0xbeef0
    206a:	357000ef          	jal	ra,2bc0 <GPIO_WriteBit>
    206e:	4979                	li	s2,30
    2070:	0000dab7          	lui	s5,0xd
    2074:	0000db37          	lui	s6,0xd
    2078:	0000dbb7          	lui	s7,0xd
    207c:	80048493          	addi	s1,s1,-2048
    2080:	e000ec37          	lui	s8,0xe000e
    2084:	08098993          	addi	s3,s3,128 # beef0080 <_eusrstack+0x9eee8080>
    2088:	ca818513          	addi	a0,gp,-856 # 20000688 <u8g2>
    208c:	a94fe0ef          	jal	ra,320 <u8g2_ClearBuffer>
    2090:	c18a8693          	addi	a3,s5,-1000 # cc18 <u8x8_ssd1306_128x64_noname_display_info+0x16c>
    2094:	463d                	li	a2,15
    2096:	45e9                	li	a1,26
    2098:	ca818513          	addi	a0,gp,-856 # 20000688 <u8g2>
    209c:	8e1fe0ef          	jal	ra,97c <u8g2_DrawStr>
    20a0:	c24b0693          	addi	a3,s6,-988 # cc24 <u8x8_ssd1306_128x64_noname_display_info+0x178>
    20a4:	4679                	li	a2,30
    20a6:	45e9                	li	a1,26
    20a8:	ca818513          	addi	a0,gp,-856 # 20000688 <u8g2>
    20ac:	8d1fe0ef          	jal	ra,97c <u8g2_DrawStr>
    20b0:	c30b8693          	addi	a3,s7,-976 # cc30 <u8x8_ssd1306_128x64_noname_display_info+0x184>
    20b4:	02d00613          	li	a2,45
    20b8:	45e9                	li	a1,26
    20ba:	ca818513          	addi	a0,gp,-856 # 20000688 <u8g2>
    20be:	8bffe0ef          	jal	ra,97c <u8g2_DrawStr>
    20c2:	0000d7b7          	lui	a5,0xd
    20c6:	bb478593          	addi	a1,a5,-1100 # cbb4 <u8x8_ssd1306_128x64_noname_display_info+0x108>
    20ca:	197d                	addi	s2,s2,-1
    20cc:	864a                	mv	a2,s2
    20ce:	d8818513          	addi	a0,gp,-632 # 20000768 <bs>
    20d2:	8a3e                	mv	s4,a5
    20d4:	6b9040ef          	jal	ra,6f8c <siprintf>
    20d8:	d8818693          	addi	a3,gp,-632 # 20000768 <bs>
    20dc:	03c00613          	li	a2,60
    20e0:	04000593          	li	a1,64
    20e4:	ca818513          	addi	a0,gp,-856 # 20000688 <u8g2>
    20e8:	895fe0ef          	jal	ra,97c <u8g2_DrawStr>
    20ec:	3e900a13          	li	s4,1001
    20f0:	4605                	li	a2,1
    20f2:	4585                	li	a1,1
    20f4:	8526                	mv	a0,s1
    20f6:	2cb000ef          	jal	ra,2bc0 <GPIO_WriteBit>
    20fa:	0f400513          	li	a0,244
    20fe:	244010ef          	jal	ra,3342 <Delay_Us>
    2102:	4601                	li	a2,0
    2104:	4585                	li	a1,1
    2106:	8526                	mv	a0,s1
    2108:	2b9000ef          	jal	ra,2bc0 <GPIO_WriteBit>
    210c:	0f400513          	li	a0,244
    2110:	1a7d                	addi	s4,s4,-1
    2112:	230010ef          	jal	ra,3342 <Delay_Us>
    2116:	fc0a1de3          	bnez	s4,20f0 <main+0x5f0>
    211a:	3e800513          	li	a0,1000
    211e:	252010ef          	jal	ra,3370 <Delay_Ms>
    2122:	ca818513          	addi	a0,gp,-856 # 20000688 <u8g2>
    2126:	a10fe0ef          	jal	ra,336 <u8g2_SendBuffer>
    212a:	f5204fe3          	bgtz	s2,2088 <main+0x588>
    212e:	053c2423          	sw	s3,72(s8) # e000e048 <_eusrstack+0xc0006048>
    2132:	bf99                	j	2088 <main+0x588>
    2134:	0000d7b7          	lui	a5,0xd
    2138:	b587a983          	lw	s3,-1192(a5) # cb58 <u8x8_ssd1306_128x64_noname_display_info+0xac>
    213c:	b11d                	j	1d62 <main+0x262>
    213e:	44c2                	lw	s1,16(sp)
    2140:	b191                	j	1d84 <main+0x284>
    2142:	8b56                	mv	s6,s5
    2144:	b99d                	j	1dba <main+0x2ba>
    2146:	8ad2                	mv	s5,s4
    2148:	b155                	j	1dec <main+0x2ec>
    214a:	4a52                	lw	s4,20(sp)
    214c:	b1d9                	j	1e12 <main+0x312>
    214e:	5622                	lw	a2,40(sp)
    2150:	56b2                	lw	a3,44(sp)
    2152:	85be                	mv	a1,a5
    2154:	853a                	mv	a0,a4
    2156:	c43a                	sw	a4,8(sp)
    2158:	c63e                	sw	a5,12(sp)
    215a:	288020ef          	jal	ra,43e2 <__ledf2>
    215e:	4722                	lw	a4,8(sp)
    2160:	47b2                	lw	a5,12(sp)
    2162:	bb8d8593          	addi	a1,s11,-1096
    2166:	863a                	mv	a2,a4
    2168:	86be                	mv	a3,a5
    216a:	d6055be3          	bgez	a0,1ee0 <main+0x3e0>
    216e:	0000d5b7          	lui	a1,0xd
    2172:	bd858593          	addi	a1,a1,-1064 # cbd8 <u8x8_ssd1306_128x64_noname_display_info+0x12c>
    2176:	b3ad                	j	1ee0 <main+0x3e0>
    2178:	0000d7b7          	lui	a5,0xd
    217c:	b707a583          	lw	a1,-1168(a5) # cb70 <u8x8_ssd1306_128x64_noname_display_info+0xc4>
    2180:	8526                	mv	a0,s1
    2182:	7ca030ef          	jal	ra,594c <__gesf2>
    2186:	02a05963          	blez	a0,21b8 <main+0x6b8>
    218a:	40011537          	lui	a0,0x40011
    218e:	4601                	li	a2,0
    2190:	4589                	li	a1,2
    2192:	80050513          	addi	a0,a0,-2048 # 40010800 <_eusrstack+0x20008800>
    2196:	22b000ef          	jal	ra,2bc0 <GPIO_WriteBit>
    219a:	0000d6b7          	lui	a3,0xd
    219e:	c0468693          	addi	a3,a3,-1020 # cc04 <u8x8_ssd1306_128x64_noname_display_info+0x158>
    21a2:	03c00613          	li	a2,60
    21a6:	45f9                	li	a1,30
    21a8:	ca818513          	addi	a0,gp,-856 # 20000688 <u8g2>
    21ac:	fd0fe0ef          	jal	ra,97c <u8g2_DrawStr>
    21b0:	4705                	li	a4,1
    21b2:	d2e19d23          	sh	a4,-710(gp) # 2000071a <OVER_VOL_FLAG>
    21b6:	bd49                	j	2048 <main+0x548>
    21b8:	d4a19703          	lh	a4,-694(gp) # 2000072a <UNDER_VOL_FLAG>
    21bc:	4785                	li	a5,1
    21be:	06f71663          	bne	a4,a5,222a <main+0x72a>
    21c2:	0000d7b7          	lui	a5,0xd
    21c6:	b747a583          	lw	a1,-1164(a5) # cb74 <u8x8_ssd1306_128x64_noname_display_info+0xc8>
    21ca:	8526                	mv	a0,s1
    21cc:	780030ef          	jal	ra,594c <__gesf2>
    21d0:	02a05963          	blez	a0,2202 <main+0x702>
    21d4:	40011537          	lui	a0,0x40011
    21d8:	4605                	li	a2,1
    21da:	4589                	li	a1,2
    21dc:	80050513          	addi	a0,a0,-2048 # 40010800 <_eusrstack+0x20008800>
    21e0:	1e1000ef          	jal	ra,2bc0 <GPIO_WriteBit>
    21e4:	0000d6b7          	lui	a3,0xd
    21e8:	c1068693          	addi	a3,a3,-1008 # cc10 <u8x8_ssd1306_128x64_noname_display_info+0x164>
    21ec:	03c00613          	li	a2,60
    21f0:	02300593          	li	a1,35
    21f4:	ca818513          	addi	a0,gp,-856 # 20000688 <u8g2>
    21f8:	f84fe0ef          	jal	ra,97c <u8g2_DrawStr>
    21fc:	d4019523          	sh	zero,-694(gp) # 2000072a <UNDER_VOL_FLAG>
    2200:	b5a1                	j	2048 <main+0x548>
    2202:	40011537          	lui	a0,0x40011
    2206:	4601                	li	a2,0
    2208:	4589                	li	a1,2
    220a:	80050513          	addi	a0,a0,-2048 # 40010800 <_eusrstack+0x20008800>
    220e:	1b3000ef          	jal	ra,2bc0 <GPIO_WriteBit>
    2212:	0000d6b7          	lui	a3,0xd
    2216:	bf868693          	addi	a3,a3,-1032 # cbf8 <u8x8_ssd1306_128x64_noname_display_info+0x14c>
    221a:	03c00613          	li	a2,60
    221e:	45f9                	li	a1,30
    2220:	ca818513          	addi	a0,gp,-856 # 20000688 <u8g2>
    2224:	f58fe0ef          	jal	ra,97c <u8g2_DrawStr>
    2228:	b505                	j	2048 <main+0x548>
    222a:	d3a19703          	lh	a4,-710(gp) # 2000071a <OVER_VOL_FLAG>
    222e:	04f71f63          	bne	a4,a5,228c <main+0x78c>
    2232:	0000d7b7          	lui	a5,0xd
    2236:	b787a583          	lw	a1,-1160(a5) # cb78 <u8x8_ssd1306_128x64_noname_display_info+0xcc>
    223a:	8526                	mv	a0,s1
    223c:	796030ef          	jal	ra,59d2 <__lesf2>
    2240:	02055963          	bgez	a0,2272 <main+0x772>
    2244:	40011537          	lui	a0,0x40011
    2248:	4605                	li	a2,1
    224a:	4589                	li	a1,2
    224c:	80050513          	addi	a0,a0,-2048 # 40010800 <_eusrstack+0x20008800>
    2250:	171000ef          	jal	ra,2bc0 <GPIO_WriteBit>
    2254:	0000d6b7          	lui	a3,0xd
    2258:	c1068693          	addi	a3,a3,-1008 # cc10 <u8x8_ssd1306_128x64_noname_display_info+0x164>
    225c:	03c00613          	li	a2,60
    2260:	02300593          	li	a1,35
    2264:	ca818513          	addi	a0,gp,-856 # 20000688 <u8g2>
    2268:	f14fe0ef          	jal	ra,97c <u8g2_DrawStr>
    226c:	d2019d23          	sh	zero,-710(gp) # 2000071a <OVER_VOL_FLAG>
    2270:	bbe1                	j	2048 <main+0x548>
    2272:	40011537          	lui	a0,0x40011
    2276:	4601                	li	a2,0
    2278:	4589                	li	a1,2
    227a:	80050513          	addi	a0,a0,-2048 # 40010800 <_eusrstack+0x20008800>
    227e:	143000ef          	jal	ra,2bc0 <GPIO_WriteBit>
    2282:	0000d6b7          	lui	a3,0xd
    2286:	c0468693          	addi	a3,a3,-1020 # cc04 <u8x8_ssd1306_128x64_noname_display_info+0x158>
    228a:	bf41                	j	221a <main+0x71a>
    228c:	40011537          	lui	a0,0x40011
    2290:	4605                	li	a2,1
    2292:	4589                	li	a1,2
    2294:	80050513          	addi	a0,a0,-2048 # 40010800 <_eusrstack+0x20008800>
    2298:	129000ef          	jal	ra,2bc0 <GPIO_WriteBit>
    229c:	0000d6b7          	lui	a3,0xd
    22a0:	c1068693          	addi	a3,a3,-1008 # cc10 <u8x8_ssd1306_128x64_noname_display_info+0x164>
    22a4:	03c00613          	li	a2,60
    22a8:	02300593          	li	a1,35
    22ac:	bf95                	j	2220 <main+0x720>
    22ae:	ca818513          	addi	a0,gp,-856 # 20000688 <u8g2>
    22b2:	884fe0ef          	jal	ra,336 <u8g2_SendBuffer>
    22b6:	b415                	j	1cda <main+0x1da>

000022b8 <DMA1_Channel1_IRQHandler>:
    22b8:	4509                	li	a0,2
    22ba:	041000ef          	jal	ra,2afa <DMA_GetITStatus>
    22be:	4785                	li	a5,1
    22c0:	00f51d63          	bne	a0,a5,22da <DMA1_Channel1_IRQHandler+0x22>
    22c4:	039000ef          	jal	ra,2afc <DMA_ClearITPendingBit>
    22c8:	c781a703          	lw	a4,-904(gp) # 20000658 <TxBuf>
    22cc:	cae19023          	sh	a4,-864(gp) # 20000680 <Adc_Val>
    22d0:	ca018793          	addi	a5,gp,-864 # 20000680 <Adc_Val>
    22d4:	8341                	srli	a4,a4,0x10
    22d6:	00e79123          	sh	a4,2(a5)
    22da:	30200073          	mret

000022de <Moving_Average_Compute>:
    22de:	45d8                	lw	a4,12(a1)
    22e0:	459c                	lw	a5,8(a1)
    22e2:	00271693          	slli	a3,a4,0x2
    22e6:	96ae                	add	a3,a3,a1
    22e8:	4290                	lw	a2,0(a3)
    22ea:	97aa                	add	a5,a5,a0
    22ec:	00173713          	seqz	a4,a4
    22f0:	8f91                	sub	a5,a5,a2
    22f2:	c59c                	sw	a5,8(a1)
    22f4:	c288                	sw	a0,0(a3)
    22f6:	c5d8                	sw	a4,12(a1)
    22f8:	0017d513          	srli	a0,a5,0x1
    22fc:	8082                	ret

000022fe <SystemInit>:
    22fe:	400217b7          	lui	a5,0x40021
    2302:	4398                	lw	a4,0(a5)
    2304:	f8ff06b7          	lui	a3,0xf8ff0
    2308:	1141                	addi	sp,sp,-16
    230a:	00176713          	ori	a4,a4,1
    230e:	c398                	sw	a4,0(a5)
    2310:	43d8                	lw	a4,4(a5)
    2312:	00020637          	lui	a2,0x20
    2316:	8f75                	and	a4,a4,a3
    2318:	c3d8                	sw	a4,4(a5)
    231a:	4398                	lw	a4,0(a5)
    231c:	fef706b7          	lui	a3,0xfef70
    2320:	16fd                	addi	a3,a3,-1
    2322:	8f75                	and	a4,a4,a3
    2324:	c398                	sw	a4,0(a5)
    2326:	4398                	lw	a4,0(a5)
    2328:	fffc06b7          	lui	a3,0xfffc0
    232c:	16fd                	addi	a3,a3,-1
    232e:	8f75                	and	a4,a4,a3
    2330:	c398                	sw	a4,0(a5)
    2332:	43d8                	lw	a4,4(a5)
    2334:	ff8106b7          	lui	a3,0xff810
    2338:	16fd                	addi	a3,a3,-1
    233a:	8f75                	and	a4,a4,a3
    233c:	c3d8                	sw	a4,4(a5)
    233e:	4398                	lw	a4,0(a5)
    2340:	ec0006b7          	lui	a3,0xec000
    2344:	16fd                	addi	a3,a3,-1
    2346:	8f75                	and	a4,a4,a3
    2348:	c398                	sw	a4,0(a5)
    234a:	00ff0737          	lui	a4,0xff0
    234e:	c798                	sw	a4,8(a5)
    2350:	0207a623          	sw	zero,44(a5) # 4002102c <_eusrstack+0x2001902c>
    2354:	c402                	sw	zero,8(sp)
    2356:	c602                	sw	zero,12(sp)
    2358:	4398                	lw	a4,0(a5)
    235a:	66c1                	lui	a3,0x10
    235c:	8f55                	or	a4,a4,a3
    235e:	c398                	sw	a4,0(a5)
    2360:	400216b7          	lui	a3,0x40021
    2364:	6705                	lui	a4,0x1
    2366:	429c                	lw	a5,0(a3)
    2368:	8ff1                	and	a5,a5,a2
    236a:	c63e                	sw	a5,12(sp)
    236c:	47a2                	lw	a5,8(sp)
    236e:	0785                	addi	a5,a5,1
    2370:	c43e                	sw	a5,8(sp)
    2372:	47b2                	lw	a5,12(sp)
    2374:	e781                	bnez	a5,237c <SystemInit+0x7e>
    2376:	47a2                	lw	a5,8(sp)
    2378:	fee797e3          	bne	a5,a4,2366 <SystemInit+0x68>
    237c:	400217b7          	lui	a5,0x40021
    2380:	439c                	lw	a5,0(a5)
    2382:	00e79713          	slli	a4,a5,0xe
    2386:	06075763          	bgez	a4,23f4 <SystemInit+0xf6>
    238a:	4785                	li	a5,1
    238c:	c63e                	sw	a5,12(sp)
    238e:	4732                	lw	a4,12(sp)
    2390:	4785                	li	a5,1
    2392:	04f71f63          	bne	a4,a5,23f0 <SystemInit+0xf2>
    2396:	400217b7          	lui	a5,0x40021
    239a:	43d8                	lw	a4,4(a5)
    239c:	ffc106b7          	lui	a3,0xffc10
    23a0:	16fd                	addi	a3,a3,-1
    23a2:	c3d8                	sw	a4,4(a5)
    23a4:	43d8                	lw	a4,4(a5)
    23a6:	c3d8                	sw	a4,4(a5)
    23a8:	43d8                	lw	a4,4(a5)
    23aa:	40076713          	ori	a4,a4,1024
    23ae:	c3d8                	sw	a4,4(a5)
    23b0:	43d8                	lw	a4,4(a5)
    23b2:	8f75                	and	a4,a4,a3
    23b4:	c3d8                	sw	a4,4(a5)
    23b6:	43d8                	lw	a4,4(a5)
    23b8:	001d06b7          	lui	a3,0x1d0
    23bc:	8f55                	or	a4,a4,a3
    23be:	c3d8                	sw	a4,4(a5)
    23c0:	4398                	lw	a4,0(a5)
    23c2:	010006b7          	lui	a3,0x1000
    23c6:	8f55                	or	a4,a4,a3
    23c8:	c398                	sw	a4,0(a5)
    23ca:	4398                	lw	a4,0(a5)
    23cc:	00671693          	slli	a3,a4,0x6
    23d0:	fe06dde3          	bgez	a3,23ca <SystemInit+0xcc>
    23d4:	43d8                	lw	a4,4(a5)
    23d6:	400216b7          	lui	a3,0x40021
    23da:	9b71                	andi	a4,a4,-4
    23dc:	c3d8                	sw	a4,4(a5)
    23de:	43d8                	lw	a4,4(a5)
    23e0:	00276713          	ori	a4,a4,2
    23e4:	c3d8                	sw	a4,4(a5)
    23e6:	4721                	li	a4,8
    23e8:	42dc                	lw	a5,4(a3)
    23ea:	8bb1                	andi	a5,a5,12
    23ec:	fee79ee3          	bne	a5,a4,23e8 <SystemInit+0xea>
    23f0:	0141                	addi	sp,sp,16
    23f2:	8082                	ret
    23f4:	c602                	sw	zero,12(sp)
    23f6:	bf61                	j	238e <SystemInit+0x90>
    23f8:	a001                	j	23f8 <SystemInit+0xfa>
    23fa:	a001                	j	23fa <SystemInit+0xfc>

000023fc <Ecall_M_Mode_Handler>:
    23fc:	a001                	j	23fc <Ecall_M_Mode_Handler>

000023fe <Ecall_U_Mode_Handler>:
    23fe:	a001                	j	23fe <Ecall_U_Mode_Handler>

00002400 <Break_Point_Handler>:
    2400:	a001                	j	2400 <Break_Point_Handler>

00002402 <SysTick_Handler>:
    2402:	a001                	j	2402 <SysTick_Handler>

00002404 <SW_Handler>:
    2404:	a001                	j	2404 <SW_Handler>

00002406 <WWDG_IRQHandler>:
    2406:	a001                	j	2406 <WWDG_IRQHandler>

00002408 <PVD_IRQHandler>:
    2408:	a001                	j	2408 <PVD_IRQHandler>

0000240a <TAMPER_IRQHandler>:
    240a:	a001                	j	240a <TAMPER_IRQHandler>

0000240c <RTC_IRQHandler>:
    240c:	a001                	j	240c <RTC_IRQHandler>

0000240e <FLASH_IRQHandler>:
    240e:	a001                	j	240e <FLASH_IRQHandler>

00002410 <RCC_IRQHandler>:
    2410:	a001                	j	2410 <RCC_IRQHandler>

00002412 <EXTI0_IRQHandler>:
    2412:	a001                	j	2412 <EXTI0_IRQHandler>

00002414 <EXTI1_IRQHandler>:
    2414:	a001                	j	2414 <EXTI1_IRQHandler>

00002416 <EXTI2_IRQHandler>:
    2416:	a001                	j	2416 <EXTI2_IRQHandler>

00002418 <EXTI3_IRQHandler>:
    2418:	a001                	j	2418 <EXTI3_IRQHandler>

0000241a <EXTI4_IRQHandler>:
    241a:	a001                	j	241a <EXTI4_IRQHandler>
    241c:	a001                	j	241c <EXTI4_IRQHandler+0x2>

0000241e <DMA1_Channel2_IRQHandler>:
    241e:	a001                	j	241e <DMA1_Channel2_IRQHandler>

00002420 <DMA1_Channel3_IRQHandler>:
    2420:	a001                	j	2420 <DMA1_Channel3_IRQHandler>

00002422 <DMA1_Channel4_IRQHandler>:
    2422:	a001                	j	2422 <DMA1_Channel4_IRQHandler>

00002424 <DMA1_Channel5_IRQHandler>:
    2424:	a001                	j	2424 <DMA1_Channel5_IRQHandler>

00002426 <DMA1_Channel6_IRQHandler>:
    2426:	a001                	j	2426 <DMA1_Channel6_IRQHandler>

00002428 <DMA1_Channel7_IRQHandler>:
    2428:	a001                	j	2428 <DMA1_Channel7_IRQHandler>

0000242a <ADC1_2_IRQHandler>:
    242a:	a001                	j	242a <ADC1_2_IRQHandler>

0000242c <USB_HP_CAN1_TX_IRQHandler>:
    242c:	a001                	j	242c <USB_HP_CAN1_TX_IRQHandler>

0000242e <USB_LP_CAN1_RX0_IRQHandler>:
    242e:	a001                	j	242e <USB_LP_CAN1_RX0_IRQHandler>

00002430 <CAN1_RX1_IRQHandler>:
    2430:	a001                	j	2430 <CAN1_RX1_IRQHandler>

00002432 <CAN1_SCE_IRQHandler>:
    2432:	a001                	j	2432 <CAN1_SCE_IRQHandler>

00002434 <EXTI9_5_IRQHandler>:
    2434:	a001                	j	2434 <EXTI9_5_IRQHandler>

00002436 <TIM1_BRK_IRQHandler>:
    2436:	a001                	j	2436 <TIM1_BRK_IRQHandler>

00002438 <TIM1_UP_IRQHandler>:
    2438:	a001                	j	2438 <TIM1_UP_IRQHandler>

0000243a <TIM1_TRG_COM_IRQHandler>:
    243a:	a001                	j	243a <TIM1_TRG_COM_IRQHandler>

0000243c <TIM1_CC_IRQHandler>:
    243c:	a001                	j	243c <TIM1_CC_IRQHandler>

0000243e <TIM2_IRQHandler>:
    243e:	a001                	j	243e <TIM2_IRQHandler>

00002440 <TIM3_IRQHandler>:
    2440:	a001                	j	2440 <TIM3_IRQHandler>

00002442 <TIM4_IRQHandler>:
    2442:	a001                	j	2442 <TIM4_IRQHandler>

00002444 <I2C1_EV_IRQHandler>:
    2444:	a001                	j	2444 <I2C1_EV_IRQHandler>

00002446 <I2C1_ER_IRQHandler>:
    2446:	a001                	j	2446 <I2C1_ER_IRQHandler>

00002448 <I2C2_EV_IRQHandler>:
    2448:	a001                	j	2448 <I2C2_EV_IRQHandler>

0000244a <I2C2_ER_IRQHandler>:
    244a:	a001                	j	244a <I2C2_ER_IRQHandler>

0000244c <SPI1_IRQHandler>:
    244c:	a001                	j	244c <SPI1_IRQHandler>

0000244e <SPI2_IRQHandler>:
    244e:	a001                	j	244e <SPI2_IRQHandler>

00002450 <USART1_IRQHandler>:
    2450:	a001                	j	2450 <USART1_IRQHandler>

00002452 <USART2_IRQHandler>:
    2452:	a001                	j	2452 <USART2_IRQHandler>

00002454 <USART3_IRQHandler>:
    2454:	a001                	j	2454 <USART3_IRQHandler>

00002456 <EXTI15_10_IRQHandler>:
    2456:	a001                	j	2456 <EXTI15_10_IRQHandler>

00002458 <RTCAlarm_IRQHandler>:
    2458:	a001                	j	2458 <RTCAlarm_IRQHandler>

0000245a <USBWakeUp_IRQHandler>:
    245a:	a001                	j	245a <USBWakeUp_IRQHandler>

0000245c <TIM8_BRK_IRQHandler>:
    245c:	a001                	j	245c <TIM8_BRK_IRQHandler>

0000245e <TIM8_UP_IRQHandler>:
    245e:	a001                	j	245e <TIM8_UP_IRQHandler>

00002460 <TIM8_TRG_COM_IRQHandler>:
    2460:	a001                	j	2460 <TIM8_TRG_COM_IRQHandler>

00002462 <TIM8_CC_IRQHandler>:
    2462:	a001                	j	2462 <TIM8_CC_IRQHandler>

00002464 <RNG_IRQHandler>:
    2464:	a001                	j	2464 <RNG_IRQHandler>

00002466 <FSMC_IRQHandler>:
    2466:	a001                	j	2466 <FSMC_IRQHandler>

00002468 <SDIO_IRQHandler>:
    2468:	a001                	j	2468 <SDIO_IRQHandler>

0000246a <TIM5_IRQHandler>:
    246a:	a001                	j	246a <TIM5_IRQHandler>

0000246c <SPI3_IRQHandler>:
    246c:	a001                	j	246c <SPI3_IRQHandler>

0000246e <UART4_IRQHandler>:
    246e:	a001                	j	246e <UART4_IRQHandler>

00002470 <UART5_IRQHandler>:
    2470:	a001                	j	2470 <UART5_IRQHandler>

00002472 <TIM6_IRQHandler>:
    2472:	a001                	j	2472 <TIM6_IRQHandler>

00002474 <TIM7_IRQHandler>:
    2474:	a001                	j	2474 <TIM7_IRQHandler>

00002476 <DMA2_Channel1_IRQHandler>:
    2476:	a001                	j	2476 <DMA2_Channel1_IRQHandler>

00002478 <DMA2_Channel2_IRQHandler>:
    2478:	a001                	j	2478 <DMA2_Channel2_IRQHandler>

0000247a <DMA2_Channel3_IRQHandler>:
    247a:	a001                	j	247a <DMA2_Channel3_IRQHandler>

0000247c <DMA2_Channel4_IRQHandler>:
    247c:	a001                	j	247c <DMA2_Channel4_IRQHandler>

0000247e <DMA2_Channel5_IRQHandler>:
    247e:	a001                	j	247e <DMA2_Channel5_IRQHandler>

00002480 <ETH_IRQHandler>:
    2480:	a001                	j	2480 <ETH_IRQHandler>

00002482 <ETH_WKUP_IRQHandler>:
    2482:	a001                	j	2482 <ETH_WKUP_IRQHandler>

00002484 <CAN2_TX_IRQHandler>:
    2484:	a001                	j	2484 <CAN2_TX_IRQHandler>

00002486 <CAN2_RX0_IRQHandler>:
    2486:	a001                	j	2486 <CAN2_RX0_IRQHandler>

00002488 <CAN2_RX1_IRQHandler>:
    2488:	a001                	j	2488 <CAN2_RX1_IRQHandler>

0000248a <CAN2_SCE_IRQHandler>:
    248a:	a001                	j	248a <CAN2_SCE_IRQHandler>

0000248c <OTG_FS_IRQHandler>:
    248c:	a001                	j	248c <OTG_FS_IRQHandler>

0000248e <USBHSWakeup_IRQHandler>:
    248e:	a001                	j	248e <USBHSWakeup_IRQHandler>

00002490 <USBHS_IRQHandler>:
    2490:	a001                	j	2490 <USBHS_IRQHandler>

00002492 <DVP_IRQHandler>:
    2492:	a001                	j	2492 <DVP_IRQHandler>

00002494 <UART6_IRQHandler>:
    2494:	a001                	j	2494 <UART6_IRQHandler>

00002496 <UART7_IRQHandler>:
    2496:	a001                	j	2496 <UART7_IRQHandler>

00002498 <UART8_IRQHandler>:
    2498:	a001                	j	2498 <UART8_IRQHandler>

0000249a <TIM9_BRK_IRQHandler>:
    249a:	a001                	j	249a <TIM9_BRK_IRQHandler>

0000249c <TIM9_UP_IRQHandler>:
    249c:	a001                	j	249c <TIM9_UP_IRQHandler>

0000249e <TIM9_TRG_COM_IRQHandler>:
    249e:	a001                	j	249e <TIM9_TRG_COM_IRQHandler>

000024a0 <TIM9_CC_IRQHandler>:
    24a0:	a001                	j	24a0 <TIM9_CC_IRQHandler>

000024a2 <TIM10_BRK_IRQHandler>:
    24a2:	a001                	j	24a2 <TIM10_BRK_IRQHandler>

000024a4 <TIM10_UP_IRQHandler>:
    24a4:	a001                	j	24a4 <TIM10_UP_IRQHandler>

000024a6 <TIM10_TRG_COM_IRQHandler>:
    24a6:	a001                	j	24a6 <TIM10_TRG_COM_IRQHandler>

000024a8 <TIM10_CC_IRQHandler>:
    24a8:	a001                	j	24a8 <TIM10_CC_IRQHandler>

000024aa <DMA2_Channel6_IRQHandler>:
    24aa:	a001                	j	24aa <DMA2_Channel6_IRQHandler>

000024ac <DMA2_Channel7_IRQHandler>:
    24ac:	a001                	j	24ac <DMA2_Channel7_IRQHandler>

000024ae <DMA2_Channel8_IRQHandler>:
    24ae:	a001                	j	24ae <DMA2_Channel8_IRQHandler>

000024b0 <DMA2_Channel9_IRQHandler>:
    24b0:	a001                	j	24b0 <DMA2_Channel9_IRQHandler>

000024b2 <DMA2_Channel10_IRQHandler>:
    24b2:	a001                	j	24b2 <DMA2_Channel10_IRQHandler>

000024b4 <DMA2_Channel11_IRQHandler>:
    24b4:	a001                	j	24b4 <DMA2_Channel11_IRQHandler>

000024b6 <handle_reset>:
    24b6:	1fffe197          	auipc	gp,0x1fffe
    24ba:	52a18193          	addi	gp,gp,1322 # 200009e0 <__global_pointer$>
    24be:	20006117          	auipc	sp,0x20006
    24c2:	b4210113          	addi	sp,sp,-1214 # 20008000 <_eusrstack>
    24c6:	0000b517          	auipc	a0,0xb
    24ca:	d8e50513          	addi	a0,a0,-626 # d254 <_data_lma>
    24ce:	1fffe597          	auipc	a1,0x1fffe
    24d2:	b3258593          	addi	a1,a1,-1230 # 20000000 <_data_vma>
    24d6:	83818613          	addi	a2,gp,-1992 # 20000218 <_edata>
    24da:	00c5fa63          	bgeu	a1,a2,24ee <handle_reset+0x38>
    24de:	00052283          	lw	t0,0(a0)
    24e2:	0055a023          	sw	t0,0(a1)
    24e6:	0511                	addi	a0,a0,4
    24e8:	0591                	addi	a1,a1,4
    24ea:	fec5eae3          	bltu	a1,a2,24de <handle_reset+0x28>
    24ee:	83818513          	addi	a0,gp,-1992 # 20000218 <_edata>
    24f2:	d9818593          	addi	a1,gp,-616 # 20000778 <_ebss>
    24f6:	00b57763          	bgeu	a0,a1,2504 <handle_reset+0x4e>
    24fa:	00052023          	sw	zero,0(a0)
    24fe:	0511                	addi	a0,a0,4
    2500:	feb56de3          	bltu	a0,a1,24fa <handle_reset+0x44>
    2504:	42fd                	li	t0,31
    2506:	bc029073          	csrw	0xbc0,t0
    250a:	42fd                	li	t0,31
    250c:	80429073          	csrw	0x804,t0
    2510:	000062b7          	lui	t0,0x6
    2514:	08828293          	addi	t0,t0,136 # 6088 <__clzsi2+0x60>
    2518:	3002a073          	csrs	mstatus,t0
    251c:	ffffe297          	auipc	t0,0xffffe
    2520:	b1c28293          	addi	t0,t0,-1252 # 38 <_einit>
    2524:	0032e293          	ori	t0,t0,3
    2528:	30529073          	csrw	mtvec,t0
    252c:	dd3ff0ef          	jal	ra,22fe <SystemInit>
    2530:	fffff297          	auipc	t0,0xfffff
    2534:	5d028293          	addi	t0,t0,1488 # 1b00 <main>
    2538:	34129073          	csrw	mepc,t0
    253c:	30200073          	mret

00002540 <ADC_DeInit>:
    2540:	1141                	addi	sp,sp,-16
    2542:	400127b7          	lui	a5,0x40012
    2546:	c606                	sw	ra,12(sp)
    2548:	40078793          	addi	a5,a5,1024 # 40012400 <_eusrstack+0x2000a400>
    254c:	00f51e63          	bne	a0,a5,2568 <ADC_DeInit+0x28>
    2550:	4585                	li	a1,1
    2552:	20000513          	li	a0,512
    2556:	37d000ef          	jal	ra,30d2 <RCC_APB2PeriphResetCmd>
    255a:	4581                	li	a1,0
    255c:	20000513          	li	a0,512
    2560:	40b2                	lw	ra,12(sp)
    2562:	0141                	addi	sp,sp,16
    2564:	36f0006f          	j	30d2 <RCC_APB2PeriphResetCmd>
    2568:	400137b7          	lui	a5,0x40013
    256c:	80078793          	addi	a5,a5,-2048 # 40012800 <_eusrstack+0x2000a800>
    2570:	00f51b63          	bne	a0,a5,2586 <ADC_DeInit+0x46>
    2574:	4585                	li	a1,1
    2576:	40000513          	li	a0,1024
    257a:	359000ef          	jal	ra,30d2 <RCC_APB2PeriphResetCmd>
    257e:	4581                	li	a1,0
    2580:	40000513          	li	a0,1024
    2584:	bff1                	j	2560 <ADC_DeInit+0x20>
    2586:	40b2                	lw	ra,12(sp)
    2588:	0141                	addi	sp,sp,16
    258a:	8082                	ret

0000258c <ADC_Init>:
    258c:	415c                	lw	a5,4(a0)
    258e:	e0f10737          	lui	a4,0xe0f10
    2592:	eff70713          	addi	a4,a4,-257 # e0f0feff <_eusrstack+0xc0f07eff>
    2596:	4d94                	lw	a3,24(a1)
    2598:	8f7d                	and	a4,a4,a5
    259a:	419c                	lw	a5,0(a1)
    259c:	8fd5                	or	a5,a5,a3
    259e:	4dd4                	lw	a3,28(a1)
    25a0:	8fd5                	or	a5,a5,a3
    25a2:	41d4                	lw	a3,4(a1)
    25a4:	06a2                	slli	a3,a3,0x8
    25a6:	8fd5                	or	a5,a5,a3
    25a8:	8fd9                	or	a5,a5,a4
    25aa:	c15c                	sw	a5,4(a0)
    25ac:	451c                	lw	a5,8(a0)
    25ae:	fff1f737          	lui	a4,0xfff1f
    25b2:	7fd70713          	addi	a4,a4,2045 # fff1f7fd <_eusrstack+0xdff177fd>
    25b6:	45d4                	lw	a3,12(a1)
    25b8:	8f7d                	and	a4,a4,a5
    25ba:	499c                	lw	a5,16(a1)
    25bc:	8fd5                	or	a5,a5,a3
    25be:	4594                	lw	a3,8(a1)
    25c0:	0686                	slli	a3,a3,0x1
    25c2:	8fd5                	or	a5,a5,a3
    25c4:	8fd9                	or	a5,a5,a4
    25c6:	c51c                	sw	a5,8(a0)
    25c8:	555c                	lw	a5,44(a0)
    25ca:	ff100737          	lui	a4,0xff100
    25ce:	177d                	addi	a4,a4,-1
    25d0:	8f7d                	and	a4,a4,a5
    25d2:	0145c783          	lbu	a5,20(a1)
    25d6:	17fd                	addi	a5,a5,-1
    25d8:	0ff7f793          	andi	a5,a5,255
    25dc:	07d2                	slli	a5,a5,0x14
    25de:	8fd9                	or	a5,a5,a4
    25e0:	d55c                	sw	a5,44(a0)
    25e2:	8082                	ret

000025e4 <ADC_Cmd>:
    25e4:	451c                	lw	a5,8(a0)
    25e6:	c589                	beqz	a1,25f0 <ADC_Cmd+0xc>
    25e8:	0017e793          	ori	a5,a5,1
    25ec:	c51c                	sw	a5,8(a0)
    25ee:	8082                	ret
    25f0:	9bf9                	andi	a5,a5,-2
    25f2:	bfed                	j	25ec <ADC_Cmd+0x8>

000025f4 <ADC_DMACmd>:
    25f4:	451c                	lw	a5,8(a0)
    25f6:	c589                	beqz	a1,2600 <ADC_DMACmd+0xc>
    25f8:	1007e793          	ori	a5,a5,256
    25fc:	c51c                	sw	a5,8(a0)
    25fe:	8082                	ret
    2600:	eff7f793          	andi	a5,a5,-257
    2604:	bfe5                	j	25fc <ADC_DMACmd+0x8>

00002606 <ADC_ResetCalibration>:
    2606:	451c                	lw	a5,8(a0)
    2608:	0087e793          	ori	a5,a5,8
    260c:	c51c                	sw	a5,8(a0)
    260e:	8082                	ret

00002610 <ADC_GetResetCalibrationStatus>:
    2610:	4508                	lw	a0,8(a0)
    2612:	810d                	srli	a0,a0,0x3
    2614:	8905                	andi	a0,a0,1
    2616:	8082                	ret

00002618 <ADC_StartCalibration>:
    2618:	451c                	lw	a5,8(a0)
    261a:	0047e793          	ori	a5,a5,4
    261e:	c51c                	sw	a5,8(a0)
    2620:	8082                	ret

00002622 <ADC_GetCalibrationStatus>:
    2622:	4508                	lw	a0,8(a0)
    2624:	8109                	srli	a0,a0,0x2
    2626:	8905                	andi	a0,a0,1
    2628:	8082                	ret

0000262a <ADC_SoftwareStartConvCmd>:
    262a:	451c                	lw	a5,8(a0)
    262c:	c591                	beqz	a1,2638 <ADC_SoftwareStartConvCmd+0xe>
    262e:	00500737          	lui	a4,0x500
    2632:	8fd9                	or	a5,a5,a4
    2634:	c51c                	sw	a5,8(a0)
    2636:	8082                	ret
    2638:	ffb00737          	lui	a4,0xffb00
    263c:	177d                	addi	a4,a4,-1
    263e:	8ff9                	and	a5,a5,a4
    2640:	bfd5                	j	2634 <ADC_SoftwareStartConvCmd+0xa>

00002642 <ADC_RegularChannelConfig>:
    2642:	47a5                	li	a5,9
    2644:	04b7f763          	bgeu	a5,a1,2692 <ADC_RegularChannelConfig+0x50>
    2648:	478d                	li	a5,3
    264a:	ff658713          	addi	a4,a1,-10
    264e:	02f70733          	mul	a4,a4,a5
    2652:	00c52803          	lw	a6,12(a0)
    2656:	479d                	li	a5,7
    2658:	00e797b3          	sll	a5,a5,a4
    265c:	fff7c793          	not	a5,a5
    2660:	0107f7b3          	and	a5,a5,a6
    2664:	00e696b3          	sll	a3,a3,a4
    2668:	8edd                	or	a3,a3,a5
    266a:	c554                	sw	a3,12(a0)
    266c:	4799                	li	a5,6
    266e:	04c7e363          	bltu	a5,a2,26b4 <ADC_RegularChannelConfig+0x72>
    2672:	4795                	li	a5,5
    2674:	167d                	addi	a2,a2,-1
    2676:	02f60633          	mul	a2,a2,a5
    267a:	5958                	lw	a4,52(a0)
    267c:	47fd                	li	a5,31
    267e:	00c797b3          	sll	a5,a5,a2
    2682:	fff7c793          	not	a5,a5
    2686:	8ff9                	and	a5,a5,a4
    2688:	00c59633          	sll	a2,a1,a2
    268c:	8e5d                	or	a2,a2,a5
    268e:	d950                	sw	a2,52(a0)
    2690:	8082                	ret
    2692:	470d                	li	a4,3
    2694:	02e58733          	mul	a4,a1,a4
    2698:	01052803          	lw	a6,16(a0)
    269c:	479d                	li	a5,7
    269e:	00e797b3          	sll	a5,a5,a4
    26a2:	fff7c793          	not	a5,a5
    26a6:	0107f7b3          	and	a5,a5,a6
    26aa:	00e696b3          	sll	a3,a3,a4
    26ae:	8edd                	or	a3,a3,a5
    26b0:	c914                	sw	a3,16(a0)
    26b2:	bf6d                	j	266c <ADC_RegularChannelConfig+0x2a>
    26b4:	47b1                	li	a5,12
    26b6:	02c7e263          	bltu	a5,a2,26da <ADC_RegularChannelConfig+0x98>
    26ba:	4795                	li	a5,5
    26bc:	1665                	addi	a2,a2,-7
    26be:	02f60633          	mul	a2,a2,a5
    26c2:	5918                	lw	a4,48(a0)
    26c4:	47fd                	li	a5,31
    26c6:	00c797b3          	sll	a5,a5,a2
    26ca:	fff7c793          	not	a5,a5
    26ce:	8ff9                	and	a5,a5,a4
    26d0:	00c59633          	sll	a2,a1,a2
    26d4:	8e5d                	or	a2,a2,a5
    26d6:	d910                	sw	a2,48(a0)
    26d8:	8082                	ret
    26da:	4795                	li	a5,5
    26dc:	164d                	addi	a2,a2,-13
    26de:	02f60633          	mul	a2,a2,a5
    26e2:	5558                	lw	a4,44(a0)
    26e4:	47fd                	li	a5,31
    26e6:	00c797b3          	sll	a5,a5,a2
    26ea:	fff7c793          	not	a5,a5
    26ee:	8ff9                	and	a5,a5,a4
    26f0:	00c595b3          	sll	a1,a1,a2
    26f4:	8ddd                	or	a1,a1,a5
    26f6:	d54c                	sw	a1,44(a0)
    26f8:	8082                	ret

000026fa <ADC_BufferCmd>:
    26fa:	415c                	lw	a5,4(a0)
    26fc:	c591                	beqz	a1,2708 <ADC_BufferCmd+0xe>
    26fe:	04000737          	lui	a4,0x4000
    2702:	8fd9                	or	a5,a5,a4
    2704:	c15c                	sw	a5,4(a0)
    2706:	8082                	ret
    2708:	fc000737          	lui	a4,0xfc000
    270c:	177d                	addi	a4,a4,-1
    270e:	8ff9                	and	a5,a5,a4
    2710:	bfd5                	j	2704 <ADC_BufferCmd+0xa>

00002712 <Get_CalibrationValue>:
    2712:	7179                	addi	sp,sp,-48
    2714:	d422                	sw	s0,40(sp)
    2716:	d226                	sw	s1,36(sp)
    2718:	d606                	sw	ra,44(sp)
    271a:	842a                	mv	s0,a0
    271c:	00010423          	sb	zero,8(sp)
    2720:	44a5                	li	s1,9
    2722:	00814783          	lbu	a5,8(sp)
    2726:	06f4f063          	bgeu	s1,a5,2786 <Get_CalibrationValue+0x74>
    272a:	00010423          	sb	zero,8(sp)
    272e:	46a5                	li	a3,9
    2730:	00814783          	lbu	a5,8(sp)
    2734:	08f6f963          	bgeu	a3,a5,27c6 <Get_CalibrationValue+0xb4>
    2738:	00011523          	sh	zero,10(sp)
    273c:	00010423          	sb	zero,8(sp)
    2740:	4695                	li	a3,5
    2742:	00814783          	lbu	a5,8(sp)
    2746:	10f6f663          	bgeu	a3,a5,2852 <Get_CalibrationValue+0x140>
    274a:	00a15703          	lhu	a4,10(sp)
    274e:	00a15783          	lhu	a5,10(sp)
    2752:	4699                	li	a3,6
    2754:	460d                	li	a2,3
    2756:	02d7f7b3          	remu	a5,a5,a3
    275a:	6505                	lui	a0,0x1
    275c:	50b2                	lw	ra,44(sp)
    275e:	5422                	lw	s0,40(sp)
    2760:	80050513          	addi	a0,a0,-2048 # 800 <__stack_size>
    2764:	5492                	lw	s1,36(sp)
    2766:	02c7d7b3          	divu	a5,a5,a2
    276a:	02d75733          	divu	a4,a4,a3
    276e:	97ba                	add	a5,a5,a4
    2770:	07c2                	slli	a5,a5,0x10
    2772:	83c1                	srli	a5,a5,0x10
    2774:	00f11523          	sh	a5,10(sp)
    2778:	00a15783          	lhu	a5,10(sp)
    277c:	6145                	addi	sp,sp,48
    277e:	8d1d                	sub	a0,a0,a5
    2780:	0542                	slli	a0,a0,0x10
    2782:	8541                	srai	a0,a0,0x10
    2784:	8082                	ret
    2786:	441c                	lw	a5,8(s0)
    2788:	0087e793          	ori	a5,a5,8
    278c:	c41c                	sw	a5,8(s0)
    278e:	8522                	mv	a0,s0
    2790:	e81ff0ef          	jal	ra,2610 <ADC_GetResetCalibrationStatus>
    2794:	fd6d                	bnez	a0,278e <Get_CalibrationValue+0x7c>
    2796:	441c                	lw	a5,8(s0)
    2798:	0047e793          	ori	a5,a5,4
    279c:	c41c                	sw	a5,8(s0)
    279e:	8522                	mv	a0,s0
    27a0:	e83ff0ef          	jal	ra,2622 <ADC_GetCalibrationStatus>
    27a4:	fd6d                	bnez	a0,279e <Get_CalibrationValue+0x8c>
    27a6:	4478                	lw	a4,76(s0)
    27a8:	00814783          	lbu	a5,8(sp)
    27ac:	1014                	addi	a3,sp,32
    27ae:	0786                	slli	a5,a5,0x1
    27b0:	97b6                	add	a5,a5,a3
    27b2:	fee79623          	sh	a4,-20(a5)
    27b6:	00814783          	lbu	a5,8(sp)
    27ba:	0785                	addi	a5,a5,1
    27bc:	0ff7f793          	andi	a5,a5,255
    27c0:	00f10423          	sb	a5,8(sp)
    27c4:	bfb9                	j	2722 <Get_CalibrationValue+0x10>
    27c6:	000104a3          	sb	zero,9(sp)
    27ca:	00914783          	lbu	a5,9(sp)
    27ce:	00f6fa63          	bgeu	a3,a5,27e2 <Get_CalibrationValue+0xd0>
    27d2:	00814783          	lbu	a5,8(sp)
    27d6:	0785                	addi	a5,a5,1
    27d8:	0ff7f793          	andi	a5,a5,255
    27dc:	00f10423          	sb	a5,8(sp)
    27e0:	bf81                	j	2730 <Get_CalibrationValue+0x1e>
    27e2:	00914703          	lbu	a4,9(sp)
    27e6:	00914783          	lbu	a5,9(sp)
    27ea:	1010                	addi	a2,sp,32
    27ec:	0706                	slli	a4,a4,0x1
    27ee:	0785                	addi	a5,a5,1
    27f0:	0786                	slli	a5,a5,0x1
    27f2:	9732                	add	a4,a4,a2
    27f4:	97b2                	add	a5,a5,a2
    27f6:	fec75703          	lhu	a4,-20(a4) # fbffffec <_eusrstack+0xdbff7fec>
    27fa:	fec7d783          	lhu	a5,-20(a5)
    27fe:	04e7f263          	bgeu	a5,a4,2842 <Get_CalibrationValue+0x130>
    2802:	00914783          	lbu	a5,9(sp)
    2806:	0786                	slli	a5,a5,0x1
    2808:	97b2                	add	a5,a5,a2
    280a:	fec7d783          	lhu	a5,-20(a5)
    280e:	00f11523          	sh	a5,10(sp)
    2812:	00914783          	lbu	a5,9(sp)
    2816:	00914703          	lbu	a4,9(sp)
    281a:	0785                	addi	a5,a5,1
    281c:	0786                	slli	a5,a5,0x1
    281e:	97b2                	add	a5,a5,a2
    2820:	fec7d603          	lhu	a2,-20(a5)
    2824:	00171793          	slli	a5,a4,0x1
    2828:	1018                	addi	a4,sp,32
    282a:	97ba                	add	a5,a5,a4
    282c:	fec79623          	sh	a2,-20(a5)
    2830:	00914783          	lbu	a5,9(sp)
    2834:	00a15703          	lhu	a4,10(sp)
    2838:	1010                	addi	a2,sp,32
    283a:	0786                	slli	a5,a5,0x1
    283c:	97b2                	add	a5,a5,a2
    283e:	fee79623          	sh	a4,-20(a5)
    2842:	00914783          	lbu	a5,9(sp)
    2846:	0785                	addi	a5,a5,1
    2848:	0ff7f793          	andi	a5,a5,255
    284c:	00f104a3          	sb	a5,9(sp)
    2850:	bfad                	j	27ca <Get_CalibrationValue+0xb8>
    2852:	00814783          	lbu	a5,8(sp)
    2856:	1010                	addi	a2,sp,32
    2858:	00a15703          	lhu	a4,10(sp)
    285c:	0789                	addi	a5,a5,2
    285e:	0786                	slli	a5,a5,0x1
    2860:	97b2                	add	a5,a5,a2
    2862:	fec7d783          	lhu	a5,-20(a5)
    2866:	97ba                	add	a5,a5,a4
    2868:	07c2                	slli	a5,a5,0x10
    286a:	83c1                	srli	a5,a5,0x10
    286c:	00f11523          	sh	a5,10(sp)
    2870:	00814783          	lbu	a5,8(sp)
    2874:	0785                	addi	a5,a5,1
    2876:	0ff7f793          	andi	a5,a5,255
    287a:	00f10423          	sb	a5,8(sp)
    287e:	b5d1                	j	2742 <Get_CalibrationValue+0x30>

00002880 <BKP_TamperPinCmd>:
    2880:	40007737          	lui	a4,0x40007
    2884:	c0070713          	addi	a4,a4,-1024 # 40006c00 <_eusrstack+0x1fffec00>
    2888:	03075783          	lhu	a5,48(a4)
    288c:	c511                	beqz	a0,2898 <BKP_TamperPinCmd+0x18>
    288e:	0017e793          	ori	a5,a5,1
    2892:	02f71823          	sh	a5,48(a4)
    2896:	8082                	ret
    2898:	07c2                	slli	a5,a5,0x10
    289a:	83c1                	srli	a5,a5,0x10
    289c:	9bf9                	andi	a5,a5,-2
    289e:	07c2                	slli	a5,a5,0x10
    28a0:	83c1                	srli	a5,a5,0x10
    28a2:	bfc5                	j	2892 <BKP_TamperPinCmd+0x12>

000028a4 <BKP_WriteBackupRegister>:
    28a4:	1141                	addi	sp,sp,-16
    28a6:	400077b7          	lui	a5,0x40007
    28aa:	c602                	sw	zero,12(sp)
    28ac:	c0078793          	addi	a5,a5,-1024 # 40006c00 <_eusrstack+0x1fffec00>
    28b0:	c63e                	sw	a5,12(sp)
    28b2:	47b2                	lw	a5,12(sp)
    28b4:	953e                	add	a0,a0,a5
    28b6:	c62a                	sw	a0,12(sp)
    28b8:	47b2                	lw	a5,12(sp)
    28ba:	c38c                	sw	a1,0(a5)
    28bc:	0141                	addi	sp,sp,16
    28be:	8082                	ret

000028c0 <BKP_ClearFlag>:
    28c0:	400077b7          	lui	a5,0x40007
    28c4:	c347d703          	lhu	a4,-972(a5) # 40006c34 <_eusrstack+0x1fffec34>
    28c8:	00176713          	ori	a4,a4,1
    28cc:	c2e79a23          	sh	a4,-972(a5)
    28d0:	8082                	ret

000028d2 <DMA_DeInit>:
    28d2:	411c                	lw	a5,0(a0)
    28d4:	6741                	lui	a4,0x10
    28d6:	1779                	addi	a4,a4,-2
    28d8:	8ff9                	and	a5,a5,a4
    28da:	c11c                	sw	a5,0(a0)
    28dc:	00052023          	sw	zero,0(a0)
    28e0:	00052223          	sw	zero,4(a0)
    28e4:	00052423          	sw	zero,8(a0)
    28e8:	400207b7          	lui	a5,0x40020
    28ec:	00052623          	sw	zero,12(a0)
    28f0:	00878713          	addi	a4,a5,8 # 40020008 <_eusrstack+0x20018008>
    28f4:	00e51763          	bne	a0,a4,2902 <DMA_DeInit+0x30>
    28f8:	43d8                	lw	a4,4(a5)
    28fa:	00f76713          	ori	a4,a4,15
    28fe:	c3d8                	sw	a4,4(a5)
    2900:	8082                	ret
    2902:	01c78713          	addi	a4,a5,28
    2906:	00e51663          	bne	a0,a4,2912 <DMA_DeInit+0x40>
    290a:	43d8                	lw	a4,4(a5)
    290c:	0f076713          	ori	a4,a4,240
    2910:	b7fd                	j	28fe <DMA_DeInit+0x2c>
    2912:	03078713          	addi	a4,a5,48
    2916:	00e51863          	bne	a0,a4,2926 <DMA_DeInit+0x54>
    291a:	43d8                	lw	a4,4(a5)
    291c:	6685                	lui	a3,0x1
    291e:	f0068693          	addi	a3,a3,-256 # f00 <u8x8_cad_ssd13xx_fast_i2c+0x4c>
    2922:	8f55                	or	a4,a4,a3
    2924:	bfe9                	j	28fe <DMA_DeInit+0x2c>
    2926:	04478713          	addi	a4,a5,68
    292a:	00e51563          	bne	a0,a4,2934 <DMA_DeInit+0x62>
    292e:	43d8                	lw	a4,4(a5)
    2930:	66bd                	lui	a3,0xf
    2932:	bfc5                	j	2922 <DMA_DeInit+0x50>
    2934:	05878713          	addi	a4,a5,88
    2938:	00e51663          	bne	a0,a4,2944 <DMA_DeInit+0x72>
    293c:	43d8                	lw	a4,4(a5)
    293e:	000f06b7          	lui	a3,0xf0
    2942:	b7c5                	j	2922 <DMA_DeInit+0x50>
    2944:	06c78713          	addi	a4,a5,108
    2948:	00e51663          	bne	a0,a4,2954 <DMA_DeInit+0x82>
    294c:	43d8                	lw	a4,4(a5)
    294e:	00f006b7          	lui	a3,0xf00
    2952:	bfc1                	j	2922 <DMA_DeInit+0x50>
    2954:	08078713          	addi	a4,a5,128
    2958:	00e51663          	bne	a0,a4,2964 <DMA_DeInit+0x92>
    295c:	43d8                	lw	a4,4(a5)
    295e:	0f0006b7          	lui	a3,0xf000
    2962:	b7c1                	j	2922 <DMA_DeInit+0x50>
    2964:	40878713          	addi	a4,a5,1032
    2968:	00e51963          	bne	a0,a4,297a <DMA_DeInit+0xa8>
    296c:	4047a703          	lw	a4,1028(a5)
    2970:	00f76713          	ori	a4,a4,15
    2974:	40e7a223          	sw	a4,1028(a5)
    2978:	8082                	ret
    297a:	41c78713          	addi	a4,a5,1052
    297e:	00e51763          	bne	a0,a4,298c <DMA_DeInit+0xba>
    2982:	4047a703          	lw	a4,1028(a5)
    2986:	0f076713          	ori	a4,a4,240
    298a:	b7ed                	j	2974 <DMA_DeInit+0xa2>
    298c:	43078793          	addi	a5,a5,1072
    2990:	00f51b63          	bne	a0,a5,29a6 <DMA_DeInit+0xd4>
    2994:	400207b7          	lui	a5,0x40020
    2998:	4047a703          	lw	a4,1028(a5) # 40020404 <_eusrstack+0x20018404>
    299c:	6685                	lui	a3,0x1
    299e:	f0068693          	addi	a3,a3,-256 # f00 <u8x8_cad_ssd13xx_fast_i2c+0x4c>
    29a2:	8f55                	or	a4,a4,a3
    29a4:	bfc1                	j	2974 <DMA_DeInit+0xa2>
    29a6:	400207b7          	lui	a5,0x40020
    29aa:	44478713          	addi	a4,a5,1092 # 40020444 <_eusrstack+0x20018444>
    29ae:	00e51663          	bne	a0,a4,29ba <DMA_DeInit+0xe8>
    29b2:	4047a703          	lw	a4,1028(a5)
    29b6:	66bd                	lui	a3,0xf
    29b8:	b7ed                	j	29a2 <DMA_DeInit+0xd0>
    29ba:	45878713          	addi	a4,a5,1112
    29be:	00e51763          	bne	a0,a4,29cc <DMA_DeInit+0xfa>
    29c2:	4047a703          	lw	a4,1028(a5)
    29c6:	000f06b7          	lui	a3,0xf0
    29ca:	bfe1                	j	29a2 <DMA_DeInit+0xd0>
    29cc:	46c78713          	addi	a4,a5,1132
    29d0:	00e51763          	bne	a0,a4,29de <DMA_DeInit+0x10c>
    29d4:	4047a703          	lw	a4,1028(a5)
    29d8:	00f006b7          	lui	a3,0xf00
    29dc:	b7d9                	j	29a2 <DMA_DeInit+0xd0>
    29de:	48078713          	addi	a4,a5,1152
    29e2:	00e51763          	bne	a0,a4,29f0 <DMA_DeInit+0x11e>
    29e6:	4047a703          	lw	a4,1028(a5)
    29ea:	0f0006b7          	lui	a3,0xf000
    29ee:	bf55                	j	29a2 <DMA_DeInit+0xd0>
    29f0:	49078713          	addi	a4,a5,1168
    29f4:	00e51963          	bne	a0,a4,2a06 <DMA_DeInit+0x134>
    29f8:	4d47a703          	lw	a4,1236(a5)
    29fc:	00f76713          	ori	a4,a4,15
    2a00:	4ce7aa23          	sw	a4,1236(a5)
    2a04:	8082                	ret
    2a06:	4a078713          	addi	a4,a5,1184
    2a0a:	00e51763          	bne	a0,a4,2a18 <DMA_DeInit+0x146>
    2a0e:	4d47a703          	lw	a4,1236(a5)
    2a12:	0f076713          	ori	a4,a4,240
    2a16:	b7ed                	j	2a00 <DMA_DeInit+0x12e>
    2a18:	4b078713          	addi	a4,a5,1200
    2a1c:	00e51963          	bne	a0,a4,2a2e <DMA_DeInit+0x15c>
    2a20:	4d47a703          	lw	a4,1236(a5)
    2a24:	6685                	lui	a3,0x1
    2a26:	f0068693          	addi	a3,a3,-256 # f00 <u8x8_cad_ssd13xx_fast_i2c+0x4c>
    2a2a:	8f55                	or	a4,a4,a3
    2a2c:	bfd1                	j	2a00 <DMA_DeInit+0x12e>
    2a2e:	4c078713          	addi	a4,a5,1216
    2a32:	fce519e3          	bne	a0,a4,2a04 <DMA_DeInit+0x132>
    2a36:	4d47a703          	lw	a4,1236(a5)
    2a3a:	66bd                	lui	a3,0xf
    2a3c:	b7fd                	j	2a2a <DMA_DeInit+0x158>

00002a3e <DMA_Init>:
    2a3e:	411c                	lw	a5,0(a0)
    2a40:	7761                	lui	a4,0xffff8
    2a42:	073d                	addi	a4,a4,15
    2a44:	5194                	lw	a3,32(a1)
    2a46:	8f7d                	and	a4,a4,a5
    2a48:	459c                	lw	a5,8(a1)
    2a4a:	8fd5                	or	a5,a5,a3
    2a4c:	4994                	lw	a3,16(a1)
    2a4e:	8fd5                	or	a5,a5,a3
    2a50:	49d4                	lw	a3,20(a1)
    2a52:	8fd5                	or	a5,a5,a3
    2a54:	4d94                	lw	a3,24(a1)
    2a56:	8fd5                	or	a5,a5,a3
    2a58:	4dd4                	lw	a3,28(a1)
    2a5a:	8fd5                	or	a5,a5,a3
    2a5c:	51d4                	lw	a3,36(a1)
    2a5e:	8fd5                	or	a5,a5,a3
    2a60:	5594                	lw	a3,40(a1)
    2a62:	8fd5                	or	a5,a5,a3
    2a64:	8fd9                	or	a5,a5,a4
    2a66:	c11c                	sw	a5,0(a0)
    2a68:	45dc                	lw	a5,12(a1)
    2a6a:	c15c                	sw	a5,4(a0)
    2a6c:	419c                	lw	a5,0(a1)
    2a6e:	c51c                	sw	a5,8(a0)
    2a70:	41dc                	lw	a5,4(a1)
    2a72:	c55c                	sw	a5,12(a0)
    2a74:	8082                	ret

00002a76 <DMA_Cmd>:
    2a76:	411c                	lw	a5,0(a0)
    2a78:	c589                	beqz	a1,2a82 <DMA_Cmd+0xc>
    2a7a:	0017e793          	ori	a5,a5,1
    2a7e:	c11c                	sw	a5,0(a0)
    2a80:	8082                	ret
    2a82:	6741                	lui	a4,0x10
    2a84:	1779                	addi	a4,a4,-2
    2a86:	8ff9                	and	a5,a5,a4
    2a88:	bfdd                	j	2a7e <DMA_Cmd+0x8>

00002a8a <DMA_ITConfig>:
    2a8a:	411c                	lw	a5,0(a0)
    2a8c:	c601                	beqz	a2,2a94 <DMA_ITConfig+0xa>
    2a8e:	8ddd                	or	a1,a1,a5
    2a90:	c10c                	sw	a1,0(a0)
    2a92:	8082                	ret
    2a94:	fff5c593          	not	a1,a1
    2a98:	8dfd                	and	a1,a1,a5
    2a9a:	bfdd                	j	2a90 <DMA_ITConfig+0x6>

00002a9c <DMA_GetFlagStatus>:
    2a9c:	00351793          	slli	a5,a0,0x3
    2aa0:	0007da63          	bgez	a5,2ab4 <DMA_GetFlagStatus+0x18>
    2aa4:	400207b7          	lui	a5,0x40020
    2aa8:	4007a783          	lw	a5,1024(a5) # 40020400 <_eusrstack+0x20018400>
    2aac:	8d7d                	and	a0,a0,a5
    2aae:	00a03533          	snez	a0,a0
    2ab2:	8082                	ret
    2ab4:	00251793          	slli	a5,a0,0x2
    2ab8:	0007d763          	bgez	a5,2ac6 <DMA_GetFlagStatus+0x2a>
    2abc:	400207b7          	lui	a5,0x40020
    2ac0:	4d07a783          	lw	a5,1232(a5) # 400204d0 <_eusrstack+0x200184d0>
    2ac4:	b7e5                	j	2aac <DMA_GetFlagStatus+0x10>
    2ac6:	400207b7          	lui	a5,0x40020
    2aca:	439c                	lw	a5,0(a5)
    2acc:	b7c5                	j	2aac <DMA_GetFlagStatus+0x10>

00002ace <DMA_ClearFlag>:
    2ace:	00351793          	slli	a5,a0,0x3
    2ad2:	0007d763          	bgez	a5,2ae0 <DMA_ClearFlag+0x12>
    2ad6:	400207b7          	lui	a5,0x40020
    2ada:	40a7a223          	sw	a0,1028(a5) # 40020404 <_eusrstack+0x20018404>
    2ade:	8082                	ret
    2ae0:	00251793          	slli	a5,a0,0x2
    2ae4:	0007d763          	bgez	a5,2af2 <DMA_ClearFlag+0x24>
    2ae8:	400207b7          	lui	a5,0x40020
    2aec:	4ca7aa23          	sw	a0,1236(a5) # 400204d4 <_eusrstack+0x200184d4>
    2af0:	8082                	ret
    2af2:	400207b7          	lui	a5,0x40020
    2af6:	c3c8                	sw	a0,4(a5)
    2af8:	8082                	ret

00002afa <DMA_GetITStatus>:
    2afa:	b74d                	j	2a9c <DMA_GetFlagStatus>

00002afc <DMA_ClearITPendingBit>:
    2afc:	bfc9                	j	2ace <DMA_ClearFlag>

00002afe <GPIO_Init>:
    2afe:	459c                	lw	a5,8(a1)
    2b00:	0107f713          	andi	a4,a5,16
    2b04:	00f7f813          	andi	a6,a5,15
    2b08:	c701                	beqz	a4,2b10 <GPIO_Init+0x12>
    2b0a:	41d8                	lw	a4,4(a1)
    2b0c:	00e86833          	or	a6,a6,a4
    2b10:	0005d583          	lhu	a1,0(a1)
    2b14:	0ff5f713          	andi	a4,a1,255
    2b18:	c339                	beqz	a4,2b5e <GPIO_Init+0x60>
    2b1a:	4118                	lw	a4,0(a0)
    2b1c:	4681                	li	a3,0
    2b1e:	4e85                	li	t4,1
    2b20:	4f3d                	li	t5,15
    2b22:	02800f93          	li	t6,40
    2b26:	04800293          	li	t0,72
    2b2a:	4e21                	li	t3,8
    2b2c:	00de9633          	sll	a2,t4,a3
    2b30:	00c5f8b3          	and	a7,a1,a2
    2b34:	03161163          	bne	a2,a7,2b56 <GPIO_Init+0x58>
    2b38:	00269893          	slli	a7,a3,0x2
    2b3c:	011f1333          	sll	t1,t5,a7
    2b40:	fff34313          	not	t1,t1
    2b44:	00e37733          	and	a4,t1,a4
    2b48:	011818b3          	sll	a7,a6,a7
    2b4c:	00e8e733          	or	a4,a7,a4
    2b50:	05f79f63          	bne	a5,t6,2bae <GPIO_Init+0xb0>
    2b54:	c950                	sw	a2,20(a0)
    2b56:	0685                	addi	a3,a3,1
    2b58:	fdc69ae3          	bne	a3,t3,2b2c <GPIO_Init+0x2e>
    2b5c:	c118                	sw	a4,0(a0)
    2b5e:	0ff00713          	li	a4,255
    2b62:	04b77563          	bgeu	a4,a1,2bac <GPIO_Init+0xae>
    2b66:	4154                	lw	a3,4(a0)
    2b68:	4621                	li	a2,8
    2b6a:	4e85                	li	t4,1
    2b6c:	4f3d                	li	t5,15
    2b6e:	02800f93          	li	t6,40
    2b72:	04800293          	li	t0,72
    2b76:	4e41                	li	t3,16
    2b78:	00ce98b3          	sll	a7,t4,a2
    2b7c:	0115f733          	and	a4,a1,a7
    2b80:	02e89263          	bne	a7,a4,2ba4 <GPIO_Init+0xa6>
    2b84:	00261713          	slli	a4,a2,0x2
    2b88:	1701                	addi	a4,a4,-32
    2b8a:	00ef1333          	sll	t1,t5,a4
    2b8e:	fff34313          	not	t1,t1
    2b92:	00d376b3          	and	a3,t1,a3
    2b96:	00e81733          	sll	a4,a6,a4
    2b9a:	8ed9                	or	a3,a3,a4
    2b9c:	01f79d63          	bne	a5,t6,2bb6 <GPIO_Init+0xb8>
    2ba0:	01152a23          	sw	a7,20(a0)
    2ba4:	0605                	addi	a2,a2,1
    2ba6:	fdc619e3          	bne	a2,t3,2b78 <GPIO_Init+0x7a>
    2baa:	c154                	sw	a3,4(a0)
    2bac:	8082                	ret
    2bae:	fa5794e3          	bne	a5,t0,2b56 <GPIO_Init+0x58>
    2bb2:	c910                	sw	a2,16(a0)
    2bb4:	b74d                	j	2b56 <GPIO_Init+0x58>
    2bb6:	fe5797e3          	bne	a5,t0,2ba4 <GPIO_Init+0xa6>
    2bba:	01152823          	sw	a7,16(a0)
    2bbe:	b7dd                	j	2ba4 <GPIO_Init+0xa6>

00002bc0 <GPIO_WriteBit>:
    2bc0:	c219                	beqz	a2,2bc6 <GPIO_WriteBit+0x6>
    2bc2:	c90c                	sw	a1,16(a0)
    2bc4:	8082                	ret
    2bc6:	c94c                	sw	a1,20(a0)
    2bc8:	8082                	ret

00002bca <GPIO_PinRemapConfig>:
    2bca:	400107b7          	lui	a5,0x40010
    2bce:	04055763          	bgez	a0,2c1c <GPIO_PinRemapConfig+0x52>
    2bd2:	4fdc                	lw	a5,28(a5)
    2bd4:	01055713          	srli	a4,a0,0x10
    2bd8:	00f77693          	andi	a3,a4,15
    2bdc:	01051613          	slli	a2,a0,0x10
    2be0:	00300737          	lui	a4,0x300
    2be4:	8241                	srli	a2,a2,0x10
    2be6:	00e57833          	and	a6,a0,a4
    2bea:	04055c63          	bgez	a0,2c42 <GPIO_PinRemapConfig+0x78>
    2bee:	02e81963          	bne	a6,a4,2c20 <GPIO_PinRemapConfig+0x56>
    2bf2:	01068713          	addi	a4,a3,16 # f010 <_data_lma+0x1dbc>
    2bf6:	468d                	li	a3,3
    2bf8:	00e696b3          	sll	a3,a3,a4
    2bfc:	fff6c693          	not	a3,a3
    2c00:	8ff5                	and	a5,a5,a3
    2c02:	c989                	beqz	a1,2c14 <GPIO_PinRemapConfig+0x4a>
    2c04:	01555713          	srli	a4,a0,0x15
    2c08:	0712                	slli	a4,a4,0x4
    2c0a:	00e61733          	sll	a4,a2,a4
    2c0e:	8fd9                	or	a5,a5,a4
    2c10:	04055763          	bgez	a0,2c5e <GPIO_PinRemapConfig+0x94>
    2c14:	40010737          	lui	a4,0x40010
    2c18:	cf5c                	sw	a5,28(a4)
    2c1a:	8082                	ret
    2c1c:	43dc                	lw	a5,4(a5)
    2c1e:	bf5d                	j	2bd4 <GPIO_PinRemapConfig+0xa>
    2c20:	00b51713          	slli	a4,a0,0xb
    2c24:	00075663          	bgez	a4,2c30 <GPIO_PinRemapConfig+0x66>
    2c28:	470d                	li	a4,3
    2c2a:	00d716b3          	sll	a3,a4,a3
    2c2e:	b7f9                	j	2bfc <GPIO_PinRemapConfig+0x32>
    2c30:	01555713          	srli	a4,a0,0x15
    2c34:	0712                	slli	a4,a4,0x4
    2c36:	00e61733          	sll	a4,a2,a4
    2c3a:	fff74713          	not	a4,a4
    2c3e:	8ff9                	and	a5,a5,a4
    2c40:	b7c9                	j	2c02 <GPIO_PinRemapConfig+0x38>
    2c42:	02e81263          	bne	a6,a4,2c66 <GPIO_PinRemapConfig+0x9c>
    2c46:	40010837          	lui	a6,0x40010
    2c4a:	00482683          	lw	a3,4(a6) # 40010004 <_eusrstack+0x20008004>
    2c4e:	f1000737          	lui	a4,0xf1000
    2c52:	177d                	addi	a4,a4,-1
    2c54:	8ff9                	and	a5,a5,a4
    2c56:	8f75                	and	a4,a4,a3
    2c58:	00e82223          	sw	a4,4(a6)
    2c5c:	f5c5                	bnez	a1,2c04 <GPIO_PinRemapConfig+0x3a>
    2c5e:	40010737          	lui	a4,0x40010
    2c62:	c35c                	sw	a5,4(a4)
    2c64:	8082                	ret
    2c66:	00b51713          	slli	a4,a0,0xb
    2c6a:	00075c63          	bgez	a4,2c82 <GPIO_PinRemapConfig+0xb8>
    2c6e:	470d                	li	a4,3
    2c70:	00d71733          	sll	a4,a4,a3
    2c74:	fff74713          	not	a4,a4
    2c78:	8f7d                	and	a4,a4,a5
    2c7a:	0f0007b7          	lui	a5,0xf000
    2c7e:	8fd9                	or	a5,a5,a4
    2c80:	bff1                	j	2c5c <GPIO_PinRemapConfig+0x92>
    2c82:	01555713          	srli	a4,a0,0x15
    2c86:	0712                	slli	a4,a4,0x4
    2c88:	00e61733          	sll	a4,a2,a4
    2c8c:	b7e5                	j	2c74 <GPIO_PinRemapConfig+0xaa>

00002c8e <I2C_Init>:
    2c8e:	7139                	addi	sp,sp,-64
    2c90:	dc22                	sw	s0,56(sp)
    2c92:	da26                	sw	s1,52(sp)
    2c94:	842a                	mv	s0,a0
    2c96:	00455483          	lhu	s1,4(a0)
    2c9a:	0868                	addi	a0,sp,28
    2c9c:	c62e                	sw	a1,12(sp)
    2c9e:	de06                	sw	ra,60(sp)
    2ca0:	24e9                	jal	2f6a <RCC_GetClocksFreq>
    2ca2:	5792                	lw	a5,36(sp)
    2ca4:	000f4737          	lui	a4,0xf4
    2ca8:	24070713          	addi	a4,a4,576 # f4240 <_data_lma+0xe6fec>
    2cac:	02e7d733          	divu	a4,a5,a4
    2cb0:	04c2                	slli	s1,s1,0x10
    2cb2:	80c1                	srli	s1,s1,0x10
    2cb4:	fc04f493          	andi	s1,s1,-64
    2cb8:	04c2                	slli	s1,s1,0x10
    2cba:	80c1                	srli	s1,s1,0x10
    2cbc:	45b2                	lw	a1,12(sp)
    2cbe:	6561                	lui	a0,0x18
    2cc0:	6a050513          	addi	a0,a0,1696 # 186a0 <_data_lma+0xb44c>
    2cc4:	01071613          	slli	a2,a4,0x10
    2cc8:	8241                	srli	a2,a2,0x10
    2cca:	8cd1                	or	s1,s1,a2
    2ccc:	00941223          	sh	s1,4(s0)
    2cd0:	00045683          	lhu	a3,0(s0)
    2cd4:	06c2                	slli	a3,a3,0x10
    2cd6:	82c1                	srli	a3,a3,0x10
    2cd8:	9af9                	andi	a3,a3,-2
    2cda:	06c2                	slli	a3,a3,0x10
    2cdc:	82c1                	srli	a3,a3,0x10
    2cde:	00d41023          	sh	a3,0(s0)
    2ce2:	4194                	lw	a3,0(a1)
    2ce4:	06d56663          	bltu	a0,a3,2d50 <I2C_Init+0xc2>
    2ce8:	0686                	slli	a3,a3,0x1
    2cea:	02d7d7b3          	divu	a5,a5,a3
    2cee:	4691                	li	a3,4
    2cf0:	01079713          	slli	a4,a5,0x10
    2cf4:	8341                	srli	a4,a4,0x10
    2cf6:	87ba                	mv	a5,a4
    2cf8:	00d77363          	bgeu	a4,a3,2cfe <I2C_Init+0x70>
    2cfc:	4791                	li	a5,4
    2cfe:	0605                	addi	a2,a2,1
    2d00:	0642                	slli	a2,a2,0x10
    2d02:	07c2                	slli	a5,a5,0x10
    2d04:	8241                	srli	a2,a2,0x10
    2d06:	83c1                	srli	a5,a5,0x10
    2d08:	02c41023          	sh	a2,32(s0)
    2d0c:	00f41e23          	sh	a5,28(s0)
    2d10:	00045783          	lhu	a5,0(s0)
    2d14:	0045d703          	lhu	a4,4(a1)
    2d18:	00a5d683          	lhu	a3,10(a1)
    2d1c:	0017e793          	ori	a5,a5,1
    2d20:	00f41023          	sh	a5,0(s0)
    2d24:	00045783          	lhu	a5,0(s0)
    2d28:	8f55                	or	a4,a4,a3
    2d2a:	50f2                	lw	ra,60(sp)
    2d2c:	07c2                	slli	a5,a5,0x10
    2d2e:	83c1                	srli	a5,a5,0x10
    2d30:	bf57f793          	andi	a5,a5,-1035
    2d34:	8fd9                	or	a5,a5,a4
    2d36:	00f41023          	sh	a5,0(s0)
    2d3a:	0085d703          	lhu	a4,8(a1)
    2d3e:	00c5d783          	lhu	a5,12(a1)
    2d42:	54d2                	lw	s1,52(sp)
    2d44:	8fd9                	or	a5,a5,a4
    2d46:	00f41423          	sh	a5,8(s0)
    2d4a:	5462                	lw	s0,56(sp)
    2d4c:	6121                	addi	sp,sp,64
    2d4e:	8082                	ret
    2d50:	0065d503          	lhu	a0,6(a1)
    2d54:	6631                	lui	a2,0xc
    2d56:	167d                	addi	a2,a2,-1
    2d58:	02c51e63          	bne	a0,a2,2d94 <I2C_Init+0x106>
    2d5c:	460d                	li	a2,3
    2d5e:	02c686b3          	mul	a3,a3,a2
    2d62:	02d7d7b3          	divu	a5,a5,a3
    2d66:	07c2                	slli	a5,a5,0x10
    2d68:	83c1                	srli	a5,a5,0x10
    2d6a:	01479693          	slli	a3,a5,0x14
    2d6e:	e299                	bnez	a3,2d74 <I2C_Init+0xe6>
    2d70:	0017e793          	ori	a5,a5,1
    2d74:	66a1                	lui	a3,0x8
    2d76:	8fd5                	or	a5,a5,a3
    2d78:	12c00693          	li	a3,300
    2d7c:	02d70733          	mul	a4,a4,a3
    2d80:	3e800693          	li	a3,1000
    2d84:	02d74733          	div	a4,a4,a3
    2d88:	0705                	addi	a4,a4,1
    2d8a:	0742                	slli	a4,a4,0x10
    2d8c:	8341                	srli	a4,a4,0x10
    2d8e:	02e41023          	sh	a4,32(s0)
    2d92:	bfad                	j	2d0c <I2C_Init+0x7e>
    2d94:	4665                	li	a2,25
    2d96:	02c686b3          	mul	a3,a3,a2
    2d9a:	02d7d7b3          	divu	a5,a5,a3
    2d9e:	6691                	lui	a3,0x4
    2da0:	07c2                	slli	a5,a5,0x10
    2da2:	83c1                	srli	a5,a5,0x10
    2da4:	8fd5                	or	a5,a5,a3
    2da6:	b7d1                	j	2d6a <I2C_Init+0xdc>

00002da8 <I2C_Cmd>:
    2da8:	00055783          	lhu	a5,0(a0)
    2dac:	c591                	beqz	a1,2db8 <I2C_Cmd+0x10>
    2dae:	0017e793          	ori	a5,a5,1
    2db2:	00f51023          	sh	a5,0(a0)
    2db6:	8082                	ret
    2db8:	07c2                	slli	a5,a5,0x10
    2dba:	83c1                	srli	a5,a5,0x10
    2dbc:	9bf9                	andi	a5,a5,-2
    2dbe:	07c2                	slli	a5,a5,0x10
    2dc0:	83c1                	srli	a5,a5,0x10
    2dc2:	bfc5                	j	2db2 <I2C_Cmd+0xa>

00002dc4 <I2C_GenerateSTART>:
    2dc4:	00055783          	lhu	a5,0(a0)
    2dc8:	c591                	beqz	a1,2dd4 <I2C_GenerateSTART+0x10>
    2dca:	1007e793          	ori	a5,a5,256
    2dce:	00f51023          	sh	a5,0(a0)
    2dd2:	8082                	ret
    2dd4:	07c2                	slli	a5,a5,0x10
    2dd6:	83c1                	srli	a5,a5,0x10
    2dd8:	eff7f793          	andi	a5,a5,-257
    2ddc:	07c2                	slli	a5,a5,0x10
    2dde:	83c1                	srli	a5,a5,0x10
    2de0:	b7fd                	j	2dce <I2C_GenerateSTART+0xa>

00002de2 <I2C_GenerateSTOP>:
    2de2:	00055783          	lhu	a5,0(a0)
    2de6:	c591                	beqz	a1,2df2 <I2C_GenerateSTOP+0x10>
    2de8:	2007e793          	ori	a5,a5,512
    2dec:	00f51023          	sh	a5,0(a0)
    2df0:	8082                	ret
    2df2:	07c2                	slli	a5,a5,0x10
    2df4:	83c1                	srli	a5,a5,0x10
    2df6:	dff7f793          	andi	a5,a5,-513
    2dfa:	07c2                	slli	a5,a5,0x10
    2dfc:	83c1                	srli	a5,a5,0x10
    2dfe:	b7fd                	j	2dec <I2C_GenerateSTOP+0xa>

00002e00 <I2C_AcknowledgeConfig>:
    2e00:	00055783          	lhu	a5,0(a0)
    2e04:	c591                	beqz	a1,2e10 <I2C_AcknowledgeConfig+0x10>
    2e06:	4007e793          	ori	a5,a5,1024
    2e0a:	00f51023          	sh	a5,0(a0)
    2e0e:	8082                	ret
    2e10:	07c2                	slli	a5,a5,0x10
    2e12:	83c1                	srli	a5,a5,0x10
    2e14:	bff7f793          	andi	a5,a5,-1025
    2e18:	07c2                	slli	a5,a5,0x10
    2e1a:	83c1                	srli	a5,a5,0x10
    2e1c:	b7fd                	j	2e0a <I2C_AcknowledgeConfig+0xa>

00002e1e <I2C_SendData>:
    2e1e:	00b51823          	sh	a1,16(a0)
    2e22:	8082                	ret

00002e24 <I2C_Send7bitAddress>:
    2e24:	0fe5f793          	andi	a5,a1,254
    2e28:	c219                	beqz	a2,2e2e <I2C_Send7bitAddress+0xa>
    2e2a:	0015e793          	ori	a5,a1,1
    2e2e:	07c2                	slli	a5,a5,0x10
    2e30:	83c1                	srli	a5,a5,0x10
    2e32:	00f51823          	sh	a5,16(a0)
    2e36:	8082                	ret

00002e38 <I2C_CheckEvent>:
    2e38:	01455783          	lhu	a5,20(a0)
    2e3c:	01855503          	lhu	a0,24(a0)
    2e40:	0542                	slli	a0,a0,0x10
    2e42:	8d5d                	or	a0,a0,a5
    2e44:	8d6d                	and	a0,a0,a1
    2e46:	0522                	slli	a0,a0,0x8
    2e48:	8121                	srli	a0,a0,0x8
    2e4a:	8d0d                	sub	a0,a0,a1
    2e4c:	00153513          	seqz	a0,a0
    2e50:	8082                	ret

00002e52 <I2C_GetFlagStatus>:
    2e52:	1141                	addi	sp,sp,-16
    2e54:	c402                	sw	zero,8(sp)
    2e56:	c602                	sw	zero,12(sp)
    2e58:	01c5d793          	srli	a5,a1,0x1c
    2e5c:	c62a                	sw	a0,12(sp)
    2e5e:	c43e                	sw	a5,8(sp)
    2e60:	47a2                	lw	a5,8(sp)
    2e62:	05a2                	slli	a1,a1,0x8
    2e64:	81a1                	srli	a1,a1,0x8
    2e66:	cb99                	beqz	a5,2e7c <I2C_GetFlagStatus+0x2a>
    2e68:	47b2                	lw	a5,12(sp)
    2e6a:	07d1                	addi	a5,a5,20
    2e6c:	c63e                	sw	a5,12(sp)
    2e6e:	47b2                	lw	a5,12(sp)
    2e70:	4388                	lw	a0,0(a5)
    2e72:	0141                	addi	sp,sp,16
    2e74:	8d6d                	and	a0,a0,a1
    2e76:	00a03533          	snez	a0,a0
    2e7a:	8082                	ret
    2e7c:	47b2                	lw	a5,12(sp)
    2e7e:	81c1                	srli	a1,a1,0x10
    2e80:	07e1                	addi	a5,a5,24
    2e82:	b7ed                	j	2e6c <I2C_GetFlagStatus+0x1a>

00002e84 <NVIC_PriorityGroupConfig>:
    2e84:	84a1a023          	sw	a0,-1984(gp) # 20000220 <NVIC_Priority_Group>
    2e88:	8082                	ret

00002e8a <NVIC_Init>:
    2e8a:	84018793          	addi	a5,gp,-1984 # 20000220 <NVIC_Priority_Group>
    2e8e:	4394                	lw	a3,0(a5)
    2e90:	00054703          	lbu	a4,0(a0)
    2e94:	e689                	bnez	a3,2e9e <NVIC_Init+0x14>
    2e96:	00254783          	lbu	a5,2(a0)
    2e9a:	0792                	slli	a5,a5,0x4
    2e9c:	a831                	j	2eb8 <NVIC_Init+0x2e>
    2e9e:	4394                	lw	a3,0(a5)
    2ea0:	4605                	li	a2,1
    2ea2:	04c69163          	bne	a3,a2,2ee4 <NVIC_Init+0x5a>
    2ea6:	00254783          	lbu	a5,2(a0)
    2eaa:	00154603          	lbu	a2,1(a0)
    2eae:	0792                	slli	a5,a5,0x4
    2eb0:	00d61463          	bne	a2,a3,2eb8 <NVIC_Init+0x2e>
    2eb4:	f807e793          	ori	a5,a5,-128
    2eb8:	e000e6b7          	lui	a3,0xe000e
    2ebc:	0ff7f793          	andi	a5,a5,255
    2ec0:	96ba                	add	a3,a3,a4
    2ec2:	40f68023          	sb	a5,1024(a3) # e000e400 <_eusrstack+0xc0006400>
    2ec6:	4685                	li	a3,1
    2ec8:	00575793          	srli	a5,a4,0x5
    2ecc:	00e69733          	sll	a4,a3,a4
    2ed0:	4154                	lw	a3,4(a0)
    2ed2:	c6ad                	beqz	a3,2f3c <NVIC_Init+0xb2>
    2ed4:	04078793          	addi	a5,a5,64 # f000040 <_data_lma+0xeff2dec>
    2ed8:	078a                	slli	a5,a5,0x2
    2eda:	e000e6b7          	lui	a3,0xe000e
    2ede:	97b6                	add	a5,a5,a3
    2ee0:	c398                	sw	a4,0(a5)
    2ee2:	8082                	ret
    2ee4:	438c                	lw	a1,0(a5)
    2ee6:	4689                	li	a3,2
    2ee8:	02d59363          	bne	a1,a3,2f0e <NVIC_Init+0x84>
    2eec:	00154683          	lbu	a3,1(a0)
    2ef0:	00254783          	lbu	a5,2(a0)
    2ef4:	00d66563          	bltu	a2,a3,2efe <NVIC_Init+0x74>
    2ef8:	068a                	slli	a3,a3,0x2
    2efa:	97b6                	add	a5,a5,a3
    2efc:	bf79                	j	2e9a <NVIC_Init+0x10>
    2efe:	03e68693          	addi	a3,a3,62 # e000e03e <_eusrstack+0xc000603e>
    2f02:	068a                	slli	a3,a3,0x2
    2f04:	97b6                	add	a5,a5,a3
    2f06:	0ff7f793          	andi	a5,a5,255
    2f0a:	0792                	slli	a5,a5,0x4
    2f0c:	b765                	j	2eb4 <NVIC_Init+0x2a>
    2f0e:	4390                	lw	a2,0(a5)
    2f10:	468d                	li	a3,3
    2f12:	00d61e63          	bne	a2,a3,2f2e <NVIC_Init+0xa4>
    2f16:	00154683          	lbu	a3,1(a0)
    2f1a:	00254783          	lbu	a5,2(a0)
    2f1e:	00d66463          	bltu	a2,a3,2f26 <NVIC_Init+0x9c>
    2f22:	0686                	slli	a3,a3,0x1
    2f24:	bfd9                	j	2efa <NVIC_Init+0x70>
    2f26:	07c68693          	addi	a3,a3,124
    2f2a:	0686                	slli	a3,a3,0x1
    2f2c:	bfe1                	j	2f04 <NVIC_Init+0x7a>
    2f2e:	4394                	lw	a3,0(a5)
    2f30:	4791                	li	a5,4
    2f32:	f8f69ae3          	bne	a3,a5,2ec6 <NVIC_Init+0x3c>
    2f36:	00154783          	lbu	a5,1(a0)
    2f3a:	b785                	j	2e9a <NVIC_Init+0x10>
    2f3c:	06078793          	addi	a5,a5,96
    2f40:	bf61                	j	2ed8 <NVIC_Init+0x4e>

00002f42 <PWR_BackupAccessCmd>:
    2f42:	40007737          	lui	a4,0x40007
    2f46:	431c                	lw	a5,0(a4)
    2f48:	c509                	beqz	a0,2f52 <PWR_BackupAccessCmd+0x10>
    2f4a:	1007e793          	ori	a5,a5,256
    2f4e:	c31c                	sw	a5,0(a4)
    2f50:	8082                	ret
    2f52:	eff7f793          	andi	a5,a5,-257
    2f56:	bfe5                	j	2f4e <PWR_BackupAccessCmd+0xc>

00002f58 <RCC_ADCCLKConfig>:
    2f58:	400216b7          	lui	a3,0x40021
    2f5c:	42dc                	lw	a5,4(a3)
    2f5e:	7751                	lui	a4,0xffff4
    2f60:	177d                	addi	a4,a4,-1
    2f62:	8ff9                	and	a5,a5,a4
    2f64:	8d5d                	or	a0,a0,a5
    2f66:	c2c8                	sw	a0,4(a3)
    2f68:	8082                	ret

00002f6a <RCC_GetClocksFreq>:
    2f6a:	40021737          	lui	a4,0x40021
    2f6e:	435c                	lw	a5,4(a4)
    2f70:	4691                	li	a3,4
    2f72:	8bb1                	andi	a5,a5,12
    2f74:	00d78563          	beq	a5,a3,2f7e <RCC_GetClocksFreq+0x14>
    2f78:	46a1                	li	a3,8
    2f7a:	06d78663          	beq	a5,a3,2fe6 <RCC_GetClocksFreq+0x7c>
    2f7e:	007a17b7          	lui	a5,0x7a1
    2f82:	20078793          	addi	a5,a5,512 # 7a1200 <_data_lma+0x793fac>
    2f86:	c11c                	sw	a5,0(a0)
    2f88:	40021637          	lui	a2,0x40021
    2f8c:	425c                	lw	a5,4(a2)
    2f8e:	20000737          	lui	a4,0x20000
    2f92:	00070713          	mv	a4,a4
    2f96:	8391                	srli	a5,a5,0x4
    2f98:	8bbd                	andi	a5,a5,15
    2f9a:	97ba                	add	a5,a5,a4
    2f9c:	0007c683          	lbu	a3,0(a5)
    2fa0:	411c                	lw	a5,0(a0)
    2fa2:	00d7d7b3          	srl	a5,a5,a3
    2fa6:	c15c                	sw	a5,4(a0)
    2fa8:	4254                	lw	a3,4(a2)
    2faa:	82a1                	srli	a3,a3,0x8
    2fac:	8a9d                	andi	a3,a3,7
    2fae:	96ba                	add	a3,a3,a4
    2fb0:	0006c683          	lbu	a3,0(a3) # 40021000 <_eusrstack+0x20019000>
    2fb4:	00d7d6b3          	srl	a3,a5,a3
    2fb8:	c514                	sw	a3,8(a0)
    2fba:	4254                	lw	a3,4(a2)
    2fbc:	82ad                	srli	a3,a3,0xb
    2fbe:	8a9d                	andi	a3,a3,7
    2fc0:	9736                	add	a4,a4,a3
    2fc2:	00074703          	lbu	a4,0(a4) # 20000000 <_data_vma>
    2fc6:	00e7d7b3          	srl	a5,a5,a4
    2fca:	c55c                	sw	a5,12(a0)
    2fcc:	4258                	lw	a4,4(a2)
    2fce:	8339                	srli	a4,a4,0xe
    2fd0:	00377693          	andi	a3,a4,3
    2fd4:	80418713          	addi	a4,gp,-2044 # 200001e4 <ADCPrescTable>
    2fd8:	9736                	add	a4,a4,a3
    2fda:	00074703          	lbu	a4,0(a4)
    2fde:	02e7d7b3          	divu	a5,a5,a4
    2fe2:	c91c                	sw	a5,16(a0)
    2fe4:	8082                	ret
    2fe6:	435c                	lw	a5,4(a4)
    2fe8:	4354                	lw	a3,4(a4)
    2fea:	6741                	lui	a4,0x10
    2fec:	83c9                	srli	a5,a5,0x12
    2fee:	8ef9                	and	a3,a3,a4
    2ff0:	1ffff737          	lui	a4,0x1ffff
    2ff4:	70c72703          	lw	a4,1804(a4) # 1ffff70c <_data_lma+0x1fff24b8>
    2ff8:	8bbd                	andi	a5,a5,15
    2ffa:	0789                	addi	a5,a5,2
    2ffc:	01171613          	slli	a2,a4,0x11
    3000:	00064863          	bltz	a2,3010 <RCC_GetClocksFreq+0xa6>
    3004:	4645                	li	a2,17
    3006:	4701                	li	a4,0
    3008:	02c79263          	bne	a5,a2,302c <RCC_GetClocksFreq+0xc2>
    300c:	47c9                	li	a5,18
    300e:	a839                	j	302c <RCC_GetClocksFreq+0xc2>
    3010:	4709                	li	a4,2
    3012:	02e78963          	beq	a5,a4,3044 <RCC_GetClocksFreq+0xda>
    3016:	473d                	li	a4,15
    3018:	02e78863          	beq	a5,a4,3048 <RCC_GetClocksFreq+0xde>
    301c:	4741                	li	a4,16
    301e:	02e78863          	beq	a5,a4,304e <RCC_GetClocksFreq+0xe4>
    3022:	4645                	li	a2,17
    3024:	4701                	li	a4,0
    3026:	00c79363          	bne	a5,a2,302c <RCC_GetClocksFreq+0xc2>
    302a:	47c1                	li	a5,16
    302c:	e685                	bnez	a3,3054 <RCC_GetClocksFreq+0xea>
    302e:	400246b7          	lui	a3,0x40024
    3032:	8006a683          	lw	a3,-2048(a3) # 40023800 <_eusrstack+0x2001b800>
    3036:	8ac1                	andi	a3,a3,16
    3038:	c68d                	beqz	a3,3062 <RCC_GetClocksFreq+0xf8>
    303a:	007a16b7          	lui	a3,0x7a1
    303e:	20068693          	addi	a3,a3,512 # 7a1200 <_data_lma+0x793fac>
    3042:	a025                	j	306a <RCC_GetClocksFreq+0x100>
    3044:	4701                	li	a4,0
    3046:	b7d9                	j	300c <RCC_GetClocksFreq+0xa2>
    3048:	4705                	li	a4,1
    304a:	47b5                	li	a5,13
    304c:	b7c5                	j	302c <RCC_GetClocksFreq+0xc2>
    304e:	4701                	li	a4,0
    3050:	47bd                	li	a5,15
    3052:	bfe9                	j	302c <RCC_GetClocksFreq+0xc2>
    3054:	400216b7          	lui	a3,0x40021
    3058:	42d4                	lw	a3,4(a3)
    305a:	00e69613          	slli	a2,a3,0xe
    305e:	fc065ee3          	bgez	a2,303a <RCC_GetClocksFreq+0xd0>
    3062:	003d16b7          	lui	a3,0x3d1
    3066:	90068693          	addi	a3,a3,-1792 # 3d0900 <_data_lma+0x3c36ac>
    306a:	02d787b3          	mul	a5,a5,a3
    306e:	c11c                	sw	a5,0(a0)
    3070:	df01                	beqz	a4,2f88 <RCC_GetClocksFreq+0x1e>
    3072:	411c                	lw	a5,0(a0)
    3074:	8385                	srli	a5,a5,0x1
    3076:	bf01                	j	2f86 <RCC_GetClocksFreq+0x1c>

00003078 <RCC_AHBPeriphClockCmd>:
    3078:	c599                	beqz	a1,3086 <RCC_AHBPeriphClockCmd+0xe>
    307a:	40021737          	lui	a4,0x40021
    307e:	4b5c                	lw	a5,20(a4)
    3080:	8d5d                	or	a0,a0,a5
    3082:	cb48                	sw	a0,20(a4)
    3084:	8082                	ret
    3086:	400217b7          	lui	a5,0x40021
    308a:	4bd8                	lw	a4,20(a5)
    308c:	fff54513          	not	a0,a0
    3090:	8d79                	and	a0,a0,a4
    3092:	cbc8                	sw	a0,20(a5)
    3094:	8082                	ret

00003096 <RCC_APB2PeriphClockCmd>:
    3096:	c599                	beqz	a1,30a4 <RCC_APB2PeriphClockCmd+0xe>
    3098:	40021737          	lui	a4,0x40021
    309c:	4f1c                	lw	a5,24(a4)
    309e:	8d5d                	or	a0,a0,a5
    30a0:	cf08                	sw	a0,24(a4)
    30a2:	8082                	ret
    30a4:	400217b7          	lui	a5,0x40021
    30a8:	4f98                	lw	a4,24(a5)
    30aa:	fff54513          	not	a0,a0
    30ae:	8d79                	and	a0,a0,a4
    30b0:	cf88                	sw	a0,24(a5)
    30b2:	8082                	ret

000030b4 <RCC_APB1PeriphClockCmd>:
    30b4:	c599                	beqz	a1,30c2 <RCC_APB1PeriphClockCmd+0xe>
    30b6:	40021737          	lui	a4,0x40021
    30ba:	4f5c                	lw	a5,28(a4)
    30bc:	8d5d                	or	a0,a0,a5
    30be:	cf48                	sw	a0,28(a4)
    30c0:	8082                	ret
    30c2:	400217b7          	lui	a5,0x40021
    30c6:	4fd8                	lw	a4,28(a5)
    30c8:	fff54513          	not	a0,a0
    30cc:	8d79                	and	a0,a0,a4
    30ce:	cfc8                	sw	a0,28(a5)
    30d0:	8082                	ret

000030d2 <RCC_APB2PeriphResetCmd>:
    30d2:	c599                	beqz	a1,30e0 <RCC_APB2PeriphResetCmd+0xe>
    30d4:	40021737          	lui	a4,0x40021
    30d8:	475c                	lw	a5,12(a4)
    30da:	8d5d                	or	a0,a0,a5
    30dc:	c748                	sw	a0,12(a4)
    30de:	8082                	ret
    30e0:	400217b7          	lui	a5,0x40021
    30e4:	47d8                	lw	a4,12(a5)
    30e6:	fff54513          	not	a0,a0
    30ea:	8d79                	and	a0,a0,a4
    30ec:	c7c8                	sw	a0,12(a5)
    30ee:	8082                	ret

000030f0 <TIM_TimeBaseInit>:
    30f0:	00055783          	lhu	a5,0(a0)
    30f4:	40013737          	lui	a4,0x40013
    30f8:	c0070693          	addi	a3,a4,-1024 # 40012c00 <_eusrstack+0x2000ac00>
    30fc:	07c2                	slli	a5,a5,0x10
    30fe:	83c1                	srli	a5,a5,0x10
    3100:	04d50063          	beq	a0,a3,3140 <TIM_TimeBaseInit+0x50>
    3104:	400006b7          	lui	a3,0x40000
    3108:	02d50c63          	beq	a0,a3,3140 <TIM_TimeBaseInit+0x50>
    310c:	40068693          	addi	a3,a3,1024 # 40000400 <_eusrstack+0x1fff8400>
    3110:	02d50863          	beq	a0,a3,3140 <TIM_TimeBaseInit+0x50>
    3114:	400016b7          	lui	a3,0x40001
    3118:	80068613          	addi	a2,a3,-2048 # 40000800 <_eusrstack+0x1fff8800>
    311c:	02c50263          	beq	a0,a2,3140 <TIM_TimeBaseInit+0x50>
    3120:	c0068693          	addi	a3,a3,-1024
    3124:	00d50e63          	beq	a0,a3,3140 <TIM_TimeBaseInit+0x50>
    3128:	40070713          	addi	a4,a4,1024
    312c:	00e50a63          	beq	a0,a4,3140 <TIM_TimeBaseInit+0x50>
    3130:	40015737          	lui	a4,0x40015
    3134:	c0070693          	addi	a3,a4,-1024 # 40014c00 <_eusrstack+0x2000cc00>
    3138:	00d50463          	beq	a0,a3,3140 <TIM_TimeBaseInit+0x50>
    313c:	00e51763          	bne	a0,a4,314a <TIM_TimeBaseInit+0x5a>
    3140:	0025d703          	lhu	a4,2(a1)
    3144:	f8f7f793          	andi	a5,a5,-113
    3148:	8fd9                	or	a5,a5,a4
    314a:	40001737          	lui	a4,0x40001
    314e:	00e50d63          	beq	a0,a4,3168 <TIM_TimeBaseInit+0x78>
    3152:	40070713          	addi	a4,a4,1024 # 40001400 <_eusrstack+0x1fff9400>
    3156:	00e50963          	beq	a0,a4,3168 <TIM_TimeBaseInit+0x78>
    315a:	cff7f793          	andi	a5,a5,-769
    315e:	0065d703          	lhu	a4,6(a1)
    3162:	07c2                	slli	a5,a5,0x10
    3164:	83c1                	srli	a5,a5,0x10
    3166:	8fd9                	or	a5,a5,a4
    3168:	00f51023          	sh	a5,0(a0)
    316c:	0045d783          	lhu	a5,4(a1)
    3170:	02f51623          	sh	a5,44(a0)
    3174:	0005d783          	lhu	a5,0(a1)
    3178:	02f51423          	sh	a5,40(a0)
    317c:	400137b7          	lui	a5,0x40013
    3180:	c0078713          	addi	a4,a5,-1024 # 40012c00 <_eusrstack+0x2000ac00>
    3184:	00e50e63          	beq	a0,a4,31a0 <TIM_TimeBaseInit+0xb0>
    3188:	40078793          	addi	a5,a5,1024
    318c:	00f50a63          	beq	a0,a5,31a0 <TIM_TimeBaseInit+0xb0>
    3190:	400157b7          	lui	a5,0x40015
    3194:	c0078713          	addi	a4,a5,-1024 # 40014c00 <_eusrstack+0x2000cc00>
    3198:	00e50463          	beq	a0,a4,31a0 <TIM_TimeBaseInit+0xb0>
    319c:	00f51663          	bne	a0,a5,31a8 <TIM_TimeBaseInit+0xb8>
    31a0:	0085c783          	lbu	a5,8(a1)
    31a4:	02f51823          	sh	a5,48(a0)
    31a8:	4785                	li	a5,1
    31aa:	00f51a23          	sh	a5,20(a0)
    31ae:	8082                	ret

000031b0 <TIM_Cmd>:
    31b0:	00055783          	lhu	a5,0(a0)
    31b4:	c591                	beqz	a1,31c0 <TIM_Cmd+0x10>
    31b6:	0017e793          	ori	a5,a5,1
    31ba:	00f51023          	sh	a5,0(a0)
    31be:	8082                	ret
    31c0:	07c2                	slli	a5,a5,0x10
    31c2:	83c1                	srli	a5,a5,0x10
    31c4:	9bf9                	andi	a5,a5,-2
    31c6:	07c2                	slli	a5,a5,0x10
    31c8:	83c1                	srli	a5,a5,0x10
    31ca:	bfc5                	j	31ba <TIM_Cmd+0xa>

000031cc <TIM_ITConfig>:
    31cc:	00c55783          	lhu	a5,12(a0)
    31d0:	c609                	beqz	a2,31da <TIM_ITConfig+0xe>
    31d2:	8ddd                	or	a1,a1,a5
    31d4:	00b51623          	sh	a1,12(a0)
    31d8:	8082                	ret
    31da:	fff5c593          	not	a1,a1
    31de:	8dfd                	and	a1,a1,a5
    31e0:	bfd5                	j	31d4 <TIM_ITConfig+0x8>

000031e2 <TIM_GetITStatus>:
    31e2:	01055783          	lhu	a5,16(a0)
    31e6:	00c55503          	lhu	a0,12(a0)
    31ea:	8fed                	and	a5,a5,a1
    31ec:	0542                	slli	a0,a0,0x10
    31ee:	8141                	srli	a0,a0,0x10
    31f0:	c789                	beqz	a5,31fa <TIM_GetITStatus+0x18>
    31f2:	8d6d                	and	a0,a0,a1
    31f4:	00a03533          	snez	a0,a0
    31f8:	8082                	ret
    31fa:	4501                	li	a0,0
    31fc:	8082                	ret

000031fe <TIM_ClearITPendingBit>:
    31fe:	fff5c593          	not	a1,a1
    3202:	05c2                	slli	a1,a1,0x10
    3204:	81c1                	srli	a1,a1,0x10
    3206:	00b51823          	sh	a1,16(a0)
    320a:	8082                	ret

0000320c <USART_Init>:
    320c:	01055683          	lhu	a3,16(a0)
    3210:	77f5                	lui	a5,0xffffd
    3212:	17fd                	addi	a5,a5,-1
    3214:	8ff5                	and	a5,a5,a3
    3216:	0065d683          	lhu	a3,6(a1)
    321a:	7139                	addi	sp,sp,-64
    321c:	dc22                	sw	s0,56(sp)
    321e:	de06                	sw	ra,60(sp)
    3220:	8fd5                	or	a5,a5,a3
    3222:	00c5d703          	lhu	a4,12(a1)
    3226:	00f51823          	sh	a5,16(a0)
    322a:	00c55683          	lhu	a3,12(a0)
    322e:	77fd                	lui	a5,0xfffff
    3230:	9f378793          	addi	a5,a5,-1549 # ffffe9f3 <_eusrstack+0xdfff69f3>
    3234:	8ff5                	and	a5,a5,a3
    3236:	0045d683          	lhu	a3,4(a1)
    323a:	842a                	mv	s0,a0
    323c:	c62e                	sw	a1,12(sp)
    323e:	8fd5                	or	a5,a5,a3
    3240:	0085d683          	lhu	a3,8(a1)
    3244:	8fd5                	or	a5,a5,a3
    3246:	00a5d683          	lhu	a3,10(a1)
    324a:	8fd5                	or	a5,a5,a3
    324c:	00f51623          	sh	a5,12(a0)
    3250:	01455783          	lhu	a5,20(a0)
    3254:	07c2                	slli	a5,a5,0x10
    3256:	83c1                	srli	a5,a5,0x10
    3258:	cff7f793          	andi	a5,a5,-769
    325c:	8fd9                	or	a5,a5,a4
    325e:	00f51a23          	sh	a5,20(a0)
    3262:	0868                	addi	a0,sp,28
    3264:	d07ff0ef          	jal	ra,2f6a <RCC_GetClocksFreq>
    3268:	400147b7          	lui	a5,0x40014
    326c:	80078793          	addi	a5,a5,-2048 # 40013800 <_eusrstack+0x2000b800>
    3270:	45b2                	lw	a1,12(sp)
    3272:	04f41e63          	bne	s0,a5,32ce <USART_Init+0xc2>
    3276:	57a2                	lw	a5,40(sp)
    3278:	00c45683          	lhu	a3,12(s0)
    327c:	4765                	li	a4,25
    327e:	02e787b3          	mul	a5,a5,a4
    3282:	06c2                	slli	a3,a3,0x10
    3284:	86c1                	srai	a3,a3,0x10
    3286:	4198                	lw	a4,0(a1)
    3288:	0406d563          	bgez	a3,32d2 <USART_Init+0xc6>
    328c:	0706                	slli	a4,a4,0x1
    328e:	00c45603          	lhu	a2,12(s0)
    3292:	0642                	slli	a2,a2,0x10
    3294:	02e7d7b3          	divu	a5,a5,a4
    3298:	06400713          	li	a4,100
    329c:	8641                	srai	a2,a2,0x10
    329e:	02e7d6b3          	divu	a3,a5,a4
    32a2:	02e7f7b3          	remu	a5,a5,a4
    32a6:	0692                	slli	a3,a3,0x4
    32a8:	02065763          	bgez	a2,32d6 <USART_Init+0xca>
    32ac:	078e                	slli	a5,a5,0x3
    32ae:	03278793          	addi	a5,a5,50
    32b2:	02e7d7b3          	divu	a5,a5,a4
    32b6:	0077f713          	andi	a4,a5,7
    32ba:	00d767b3          	or	a5,a4,a3
    32be:	07c2                	slli	a5,a5,0x10
    32c0:	83c1                	srli	a5,a5,0x10
    32c2:	00f41423          	sh	a5,8(s0)
    32c6:	50f2                	lw	ra,60(sp)
    32c8:	5462                	lw	s0,56(sp)
    32ca:	6121                	addi	sp,sp,64
    32cc:	8082                	ret
    32ce:	5792                	lw	a5,36(sp)
    32d0:	b765                	j	3278 <USART_Init+0x6c>
    32d2:	070a                	slli	a4,a4,0x2
    32d4:	bf6d                	j	328e <USART_Init+0x82>
    32d6:	0792                	slli	a5,a5,0x4
    32d8:	03278793          	addi	a5,a5,50
    32dc:	02e7d7b3          	divu	a5,a5,a4
    32e0:	8bbd                	andi	a5,a5,15
    32e2:	8fd5                	or	a5,a5,a3
    32e4:	bfe9                	j	32be <USART_Init+0xb2>

000032e6 <USART_Cmd>:
    32e6:	c981                	beqz	a1,32f6 <USART_Cmd+0x10>
    32e8:	00c55783          	lhu	a5,12(a0)
    32ec:	6709                	lui	a4,0x2
    32ee:	8fd9                	or	a5,a5,a4
    32f0:	00f51623          	sh	a5,12(a0)
    32f4:	8082                	ret
    32f6:	00c55703          	lhu	a4,12(a0)
    32fa:	77f9                	lui	a5,0xffffe
    32fc:	17fd                	addi	a5,a5,-1
    32fe:	8ff9                	and	a5,a5,a4
    3300:	bfc5                	j	32f0 <USART_Cmd+0xa>

00003302 <USART_SendData>:
    3302:	1ff5f593          	andi	a1,a1,511
    3306:	00b51223          	sh	a1,4(a0)
    330a:	8082                	ret

0000330c <USART_GetFlagStatus>:
    330c:	00055503          	lhu	a0,0(a0)
    3310:	8d6d                	and	a0,a0,a1
    3312:	00a03533          	snez	a0,a0
    3316:	8082                	ret

00003318 <Delay_Init>:
    3318:	200007b7          	lui	a5,0x20000
    331c:	1e07a783          	lw	a5,480(a5) # 200001e0 <SystemCoreClock>
    3320:	007a1737          	lui	a4,0x7a1
    3324:	20070713          	addi	a4,a4,512 # 7a1200 <_data_lma+0x793fac>
    3328:	02e7d7b3          	divu	a5,a5,a4
    332c:	0ff7f793          	andi	a5,a5,255
    3330:	84f18323          	sb	a5,-1978(gp) # 20000226 <p_us>
    3334:	3e800713          	li	a4,1000
    3338:	02e787b3          	mul	a5,a5,a4
    333c:	84f19223          	sh	a5,-1980(gp) # 20000224 <p_ms>
    3340:	8082                	ret

00003342 <Delay_Us>:
    3342:	e000f7b7          	lui	a5,0xe000f
    3346:	43d8                	lw	a4,4(a5)
    3348:	4681                	li	a3,0
    334a:	9b79                	andi	a4,a4,-2
    334c:	c3d8                	sw	a4,4(a5)
    334e:	8461c703          	lbu	a4,-1978(gp) # 20000226 <p_us>
    3352:	02a70633          	mul	a2,a4,a0
    3356:	cb90                	sw	a2,16(a5)
    3358:	cbd4                	sw	a3,20(a5)
    335a:	4398                	lw	a4,0(a5)
    335c:	03176713          	ori	a4,a4,49
    3360:	c398                	sw	a4,0(a5)
    3362:	43d8                	lw	a4,4(a5)
    3364:	8b05                	andi	a4,a4,1
    3366:	df75                	beqz	a4,3362 <Delay_Us+0x20>
    3368:	4398                	lw	a4,0(a5)
    336a:	9b79                	andi	a4,a4,-2
    336c:	c398                	sw	a4,0(a5)
    336e:	8082                	ret

00003370 <Delay_Ms>:
    3370:	e000f7b7          	lui	a5,0xe000f
    3374:	43d8                	lw	a4,4(a5)
    3376:	4681                	li	a3,0
    3378:	9b79                	andi	a4,a4,-2
    337a:	c3d8                	sw	a4,4(a5)
    337c:	8441d703          	lhu	a4,-1980(gp) # 20000224 <p_ms>
    3380:	02a70633          	mul	a2,a4,a0
    3384:	cb90                	sw	a2,16(a5)
    3386:	cbd4                	sw	a3,20(a5)
    3388:	4398                	lw	a4,0(a5)
    338a:	03176713          	ori	a4,a4,49
    338e:	c398                	sw	a4,0(a5)
    3390:	43d8                	lw	a4,4(a5)
    3392:	8b05                	andi	a4,a4,1
    3394:	df75                	beqz	a4,3390 <Delay_Ms+0x20>
    3396:	4398                	lw	a4,0(a5)
    3398:	9b79                	andi	a4,a4,-2
    339a:	c398                	sw	a4,0(a5)
    339c:	8082                	ret

0000339e <USART_Printf_Init>:
    339e:	7179                	addi	sp,sp,-48
    33a0:	d422                	sw	s0,40(sp)
    33a2:	842a                	mv	s0,a0
    33a4:	6511                	lui	a0,0x4
    33a6:	4585                	li	a1,1
    33a8:	0511                	addi	a0,a0,4
    33aa:	d606                	sw	ra,44(sp)
    33ac:	cebff0ef          	jal	ra,3096 <RCC_APB2PeriphClockCmd>
    33b0:	20000793          	li	a5,512
    33b4:	00f11223          	sh	a5,4(sp)
    33b8:	40011537          	lui	a0,0x40011
    33bc:	478d                	li	a5,3
    33be:	c43e                	sw	a5,8(sp)
    33c0:	004c                	addi	a1,sp,4
    33c2:	47e1                	li	a5,24
    33c4:	80050513          	addi	a0,a0,-2048 # 40010800 <_eusrstack+0x20008800>
    33c8:	c63e                	sw	a5,12(sp)
    33ca:	f34ff0ef          	jal	ra,2afe <GPIO_Init>
    33ce:	c822                	sw	s0,16(sp)
    33d0:	40014437          	lui	s0,0x40014
    33d4:	000807b7          	lui	a5,0x80
    33d8:	080c                	addi	a1,sp,16
    33da:	80040513          	addi	a0,s0,-2048 # 40013800 <_eusrstack+0x2000b800>
    33de:	cc3e                	sw	a5,24(sp)
    33e0:	ca02                	sw	zero,20(sp)
    33e2:	00011e23          	sh	zero,28(sp)
    33e6:	e27ff0ef          	jal	ra,320c <USART_Init>
    33ea:	80040513          	addi	a0,s0,-2048
    33ee:	4585                	li	a1,1
    33f0:	ef7ff0ef          	jal	ra,32e6 <USART_Cmd>
    33f4:	50b2                	lw	ra,44(sp)
    33f6:	5422                	lw	s0,40(sp)
    33f8:	6145                	addi	sp,sp,48
    33fa:	8082                	ret

000033fc <_write>:
    33fc:	1101                	addi	sp,sp,-32
    33fe:	ca26                	sw	s1,20(sp)
    3400:	400144b7          	lui	s1,0x40014
    3404:	cc22                	sw	s0,24(sp)
    3406:	c84a                	sw	s2,16(sp)
    3408:	c64e                	sw	s3,12(sp)
    340a:	ce06                	sw	ra,28(sp)
    340c:	89ae                	mv	s3,a1
    340e:	8932                	mv	s2,a2
    3410:	4401                	li	s0,0
    3412:	80048493          	addi	s1,s1,-2048 # 40013800 <_eusrstack+0x2000b800>
    3416:	01244a63          	blt	s0,s2,342a <_write+0x2e>
    341a:	40f2                	lw	ra,28(sp)
    341c:	4462                	lw	s0,24(sp)
    341e:	854a                	mv	a0,s2
    3420:	44d2                	lw	s1,20(sp)
    3422:	4942                	lw	s2,16(sp)
    3424:	49b2                	lw	s3,12(sp)
    3426:	6105                	addi	sp,sp,32
    3428:	8082                	ret
    342a:	04000593          	li	a1,64
    342e:	8526                	mv	a0,s1
    3430:	eddff0ef          	jal	ra,330c <USART_GetFlagStatus>
    3434:	d97d                	beqz	a0,342a <_write+0x2e>
    3436:	008987b3          	add	a5,s3,s0
    343a:	00078583          	lb	a1,0(a5) # 80000 <_data_lma+0x72dac>
    343e:	8526                	mv	a0,s1
    3440:	0405                	addi	s0,s0,1
    3442:	05c2                	slli	a1,a1,0x10
    3444:	81c1                	srli	a1,a1,0x10
    3446:	ebdff0ef          	jal	ra,3302 <USART_SendData>
    344a:	b7f1                	j	3416 <_write+0x1a>

0000344c <_sbrk>:
    344c:	80818713          	addi	a4,gp,-2040 # 200001e8 <curbrk.5226>
    3450:	431c                	lw	a5,0(a4)
    3452:	d9818693          	addi	a3,gp,-616 # 20000778 <_ebss>
    3456:	953e                	add	a0,a0,a5
    3458:	00d56b63          	bltu	a0,a3,346e <_sbrk+0x22>
    345c:	200086b7          	lui	a3,0x20008
    3460:	80068693          	addi	a3,a3,-2048 # 20007800 <_heap_end>
    3464:	00a6e563          	bltu	a3,a0,346e <_sbrk+0x22>
    3468:	c308                	sw	a0,0(a4)
    346a:	853e                	mv	a0,a5
    346c:	8082                	ret
    346e:	57fd                	li	a5,-1
    3470:	bfed                	j	346a <_sbrk+0x1e>

00003472 <sqrt>:
    3472:	715d                	addi	sp,sp,-80
    3474:	c4a2                	sw	s0,72(sp)
    3476:	c2a6                	sw	s1,68(sp)
    3478:	c0ca                	sw	s2,64(sp)
    347a:	de52                	sw	s4,60(sp)
    347c:	dc56                	sw	s5,56(sp)
    347e:	c686                	sw	ra,76(sp)
    3480:	842a                	mv	s0,a0
    3482:	84ae                	mv	s1,a1
    3484:	2055                	jal	3528 <__ieee754_sqrt>
    3486:	80c18793          	addi	a5,gp,-2036 # 200001ec <__fdlib_version>
    348a:	0007a903          	lw	s2,0(a5)
    348e:	57fd                	li	a5,-1
    3490:	8a2a                	mv	s4,a0
    3492:	8aae                	mv	s5,a1
    3494:	02f90163          	beq	s2,a5,34b6 <sqrt+0x44>
    3498:	8622                	mv	a2,s0
    349a:	86a6                	mv	a3,s1
    349c:	8522                	mv	a0,s0
    349e:	85a6                	mv	a1,s1
    34a0:	3ef010ef          	jal	ra,508e <__unorddf2>
    34a4:	e909                	bnez	a0,34b6 <sqrt+0x44>
    34a6:	4601                	li	a2,0
    34a8:	4681                	li	a3,0
    34aa:	8522                	mv	a0,s0
    34ac:	85a6                	mv	a1,s1
    34ae:	735000ef          	jal	ra,43e2 <__ledf2>
    34b2:	00054c63          	bltz	a0,34ca <sqrt+0x58>
    34b6:	40b6                	lw	ra,76(sp)
    34b8:	4426                	lw	s0,72(sp)
    34ba:	8552                	mv	a0,s4
    34bc:	85d6                	mv	a1,s5
    34be:	4496                	lw	s1,68(sp)
    34c0:	4906                	lw	s2,64(sp)
    34c2:	5a72                	lw	s4,60(sp)
    34c4:	5ae2                	lw	s5,56(sp)
    34c6:	6161                	addi	sp,sp,80
    34c8:	8082                	ret
    34ca:	4785                	li	a5,1
    34cc:	c43e                	sw	a5,8(sp)
    34ce:	00009797          	auipc	a5,0x9
    34d2:	76e78793          	addi	a5,a5,1902 # cc3c <u8x8_ssd1306_128x64_noname_display_info+0x190>
    34d6:	c63e                	sw	a5,12(sp)
    34d8:	d402                	sw	zero,40(sp)
    34da:	cc22                	sw	s0,24(sp)
    34dc:	ce26                	sw	s1,28(sp)
    34de:	c822                	sw	s0,16(sp)
    34e0:	ca26                	sw	s1,20(sp)
    34e2:	02090763          	beqz	s2,3510 <sqrt+0x9e>
    34e6:	4601                	li	a2,0
    34e8:	4681                	li	a3,0
    34ea:	8532                	mv	a0,a2
    34ec:	85b6                	mv	a1,a3
    34ee:	141000ef          	jal	ra,3e2e <__divdf3>
    34f2:	d02a                	sw	a0,32(sp)
    34f4:	d22e                	sw	a1,36(sp)
    34f6:	4789                	li	a5,2
    34f8:	00f91e63          	bne	s2,a5,3514 <sqrt+0xa2>
    34fc:	3a3020ef          	jal	ra,609e <__errno>
    3500:	02100793          	li	a5,33
    3504:	c11c                	sw	a5,0(a0)
    3506:	57a2                	lw	a5,40(sp)
    3508:	eb99                	bnez	a5,351e <sqrt+0xac>
    350a:	5a02                	lw	s4,32(sp)
    350c:	5a92                	lw	s5,36(sp)
    350e:	b765                	j	34b6 <sqrt+0x44>
    3510:	d002                	sw	zero,32(sp)
    3512:	d202                	sw	zero,36(sp)
    3514:	0028                	addi	a0,sp,8
    3516:	22d5                	jal	36fa <matherr>
    3518:	d175                	beqz	a0,34fc <sqrt+0x8a>
    351a:	57a2                	lw	a5,40(sp)
    351c:	d7fd                	beqz	a5,350a <sqrt+0x98>
    351e:	381020ef          	jal	ra,609e <__errno>
    3522:	57a2                	lw	a5,40(sp)
    3524:	c11c                	sw	a5,0(a0)
    3526:	b7d5                	j	350a <sqrt+0x98>

00003528 <__ieee754_sqrt>:
    3528:	1141                	addi	sp,sp,-16
    352a:	7ff00737          	lui	a4,0x7ff00
    352e:	c422                	sw	s0,8(sp)
    3530:	c226                	sw	s1,4(sp)
    3532:	c606                	sw	ra,12(sp)
    3534:	00b77833          	and	a6,a4,a1
    3538:	842e                	mv	s0,a1
    353a:	84aa                	mv	s1,a0
    353c:	16e80d63          	beq	a6,a4,36b6 <__ieee754_sqrt+0x18e>
    3540:	87ae                	mv	a5,a1
    3542:	86aa                	mv	a3,a0
    3544:	0eb05f63          	blez	a1,3642 <__ieee754_sqrt+0x11a>
    3548:	4145de13          	srai	t3,a1,0x14
    354c:	180e0f63          	beqz	t3,36ea <__ieee754_sqrt+0x1c2>
    3550:	00100737          	lui	a4,0x100
    3554:	fff70613          	addi	a2,a4,-1 # fffff <_data_lma+0xf2dab>
    3558:	8ff1                	and	a5,a5,a2
    355a:	8fd9                	or	a5,a5,a4
    355c:	c01e0e13          	addi	t3,t3,-1023
    3560:	00179713          	slli	a4,a5,0x1
    3564:	001e7613          	andi	a2,t3,1
    3568:	01f6d793          	srli	a5,a3,0x1f
    356c:	97ba                	add	a5,a5,a4
    356e:	00169713          	slli	a4,a3,0x1
    3572:	c611                	beqz	a2,357e <__ieee754_sqrt+0x56>
    3574:	837d                	srli	a4,a4,0x1f
    3576:	0786                	slli	a5,a5,0x1
    3578:	97ba                	add	a5,a5,a4
    357a:	00269713          	slli	a4,a3,0x2
    357e:	401e5e13          	srai	t3,t3,0x1
    3582:	45d9                	li	a1,22
    3584:	4e81                	li	t4,0
    3586:	4681                	li	a3,0
    3588:	00200637          	lui	a2,0x200
    358c:	00c68533          	add	a0,a3,a2
    3590:	01f75813          	srli	a6,a4,0x1f
    3594:	15fd                	addi	a1,a1,-1
    3596:	00a7c663          	blt	a5,a0,35a2 <__ieee754_sqrt+0x7a>
    359a:	8f89                	sub	a5,a5,a0
    359c:	00c506b3          	add	a3,a0,a2
    35a0:	9eb2                	add	t4,t4,a2
    35a2:	0786                	slli	a5,a5,0x1
    35a4:	97c2                	add	a5,a5,a6
    35a6:	0706                	slli	a4,a4,0x1
    35a8:	8205                	srli	a2,a2,0x1
    35aa:	f1ed                	bnez	a1,358c <__ieee754_sqrt+0x64>
    35ac:	02000513          	li	a0,32
    35b0:	4301                	li	t1,0
    35b2:	4881                	li	a7,0
    35b4:	80000637          	lui	a2,0x80000
    35b8:	a819                	j	35ce <__ieee754_sqrt+0xa6>
    35ba:	0ed78563          	beq	a5,a3,36a4 <__ieee754_sqrt+0x17c>
    35be:	01f75593          	srli	a1,a4,0x1f
    35c2:	0786                	slli	a5,a5,0x1
    35c4:	157d                	addi	a0,a0,-1
    35c6:	97ae                	add	a5,a5,a1
    35c8:	0706                	slli	a4,a4,0x1
    35ca:	8205                	srli	a2,a2,0x1
    35cc:	c90d                	beqz	a0,35fe <__ieee754_sqrt+0xd6>
    35ce:	011605b3          	add	a1,a2,a7
    35d2:	fef6d4e3          	bge	a3,a5,35ba <__ieee754_sqrt+0x92>
    35d6:	00c588b3          	add	a7,a1,a2
    35da:	8836                	mv	a6,a3
    35dc:	0a05ce63          	bltz	a1,3698 <__ieee754_sqrt+0x170>
    35e0:	8f95                	sub	a5,a5,a3
    35e2:	00b736b3          	sltu	a3,a4,a1
    35e6:	8f95                	sub	a5,a5,a3
    35e8:	8f0d                	sub	a4,a4,a1
    35ea:	01f75593          	srli	a1,a4,0x1f
    35ee:	0786                	slli	a5,a5,0x1
    35f0:	157d                	addi	a0,a0,-1
    35f2:	9332                	add	t1,t1,a2
    35f4:	86c2                	mv	a3,a6
    35f6:	97ae                	add	a5,a5,a1
    35f8:	0706                	slli	a4,a4,0x1
    35fa:	8205                	srli	a2,a2,0x1
    35fc:	f969                	bnez	a0,35ce <__ieee754_sqrt+0xa6>
    35fe:	8fd9                	or	a5,a5,a4
    3600:	00135493          	srli	s1,t1,0x1
    3604:	cb89                	beqz	a5,3616 <__ieee754_sqrt+0xee>
    3606:	00130493          	addi	s1,t1,1
    360a:	57fd                	li	a5,-1
    360c:	8085                	srli	s1,s1,0x1
    360e:	00f31463          	bne	t1,a5,3616 <__ieee754_sqrt+0xee>
    3612:	0e85                	addi	t4,t4,1
    3614:	4481                	li	s1,0
    3616:	401ed713          	srai	a4,t4,0x1
    361a:	3fe00437          	lui	s0,0x3fe00
    361e:	001efe93          	andi	t4,t4,1
    3622:	943a                	add	s0,s0,a4
    3624:	000e8563          	beqz	t4,362e <__ieee754_sqrt+0x106>
    3628:	800007b7          	lui	a5,0x80000
    362c:	8cdd                	or	s1,s1,a5
    362e:	014e1713          	slli	a4,t3,0x14
    3632:	9722                	add	a4,a4,s0
    3634:	40b2                	lw	ra,12(sp)
    3636:	4422                	lw	s0,8(sp)
    3638:	8526                	mv	a0,s1
    363a:	85ba                	mv	a1,a4
    363c:	4492                	lw	s1,4(sp)
    363e:	0141                	addi	sp,sp,16
    3640:	8082                	ret
    3642:	00159713          	slli	a4,a1,0x1
    3646:	8305                	srli	a4,a4,0x1
    3648:	00a76833          	or	a6,a4,a0
    364c:	872e                	mv	a4,a1
    364e:	fe0803e3          	beqz	a6,3634 <__ieee754_sqrt+0x10c>
    3652:	e1d1                	bnez	a1,36d6 <__ieee754_sqrt+0x1ae>
    3654:	00b6d593          	srli	a1,a3,0xb
    3658:	17ad                	addi	a5,a5,-21
    365a:	872e                	mv	a4,a1
    365c:	06d6                	slli	a3,a3,0x15
    365e:	d9fd                	beqz	a1,3654 <__ieee754_sqrt+0x12c>
    3660:	0145d613          	srli	a2,a1,0x14
    3664:	e651                	bnez	a2,36f0 <__ieee754_sqrt+0x1c8>
    3666:	4601                	li	a2,0
    3668:	a011                	j	366c <__ieee754_sqrt+0x144>
    366a:	862a                	mv	a2,a0
    366c:	0706                	slli	a4,a4,0x1
    366e:	00b71593          	slli	a1,a4,0xb
    3672:	00160513          	addi	a0,a2,1 # 80000001 <_eusrstack+0x5fff8001>
    3676:	fe05dae3          	bgez	a1,366a <__ieee754_sqrt+0x142>
    367a:	02000893          	li	a7,32
    367e:	8836                	mv	a6,a3
    3680:	40a888b3          	sub	a7,a7,a0
    3684:	85ba                	mv	a1,a4
    3686:	00a696b3          	sll	a3,a3,a0
    368a:	01185733          	srl	a4,a6,a7
    368e:	40c78e33          	sub	t3,a5,a2
    3692:	00b767b3          	or	a5,a4,a1
    3696:	bd6d                	j	3550 <__ieee754_sqrt+0x28>
    3698:	fff8c813          	not	a6,a7
    369c:	01f85813          	srli	a6,a6,0x1f
    36a0:	9836                	add	a6,a6,a3
    36a2:	bf3d                	j	35e0 <__ieee754_sqrt+0xb8>
    36a4:	f0b76de3          	bltu	a4,a1,35be <__ieee754_sqrt+0x96>
    36a8:	00c588b3          	add	a7,a1,a2
    36ac:	fe05c6e3          	bltz	a1,3698 <__ieee754_sqrt+0x170>
    36b0:	883e                	mv	a6,a5
    36b2:	4781                	li	a5,0
    36b4:	bf15                	j	35e8 <__ieee754_sqrt+0xc0>
    36b6:	862a                	mv	a2,a0
    36b8:	86ae                	mv	a3,a1
    36ba:	5df000ef          	jal	ra,4498 <__muldf3>
    36be:	8626                	mv	a2,s1
    36c0:	86a2                	mv	a3,s0
    36c2:	2835                	jal	36fe <__adddf3>
    36c4:	40b2                	lw	ra,12(sp)
    36c6:	4422                	lw	s0,8(sp)
    36c8:	84aa                	mv	s1,a0
    36ca:	872e                	mv	a4,a1
    36cc:	8526                	mv	a0,s1
    36ce:	85ba                	mv	a1,a4
    36d0:	4492                	lw	s1,4(sp)
    36d2:	0141                	addi	sp,sp,16
    36d4:	8082                	ret
    36d6:	862a                	mv	a2,a0
    36d8:	86ae                	mv	a3,a1
    36da:	276010ef          	jal	ra,4950 <__subdf3>
    36de:	862a                	mv	a2,a0
    36e0:	86ae                	mv	a3,a1
    36e2:	27b1                	jal	3e2e <__divdf3>
    36e4:	84aa                	mv	s1,a0
    36e6:	872e                	mv	a4,a1
    36e8:	b7b1                	j	3634 <__ieee754_sqrt+0x10c>
    36ea:	872e                	mv	a4,a1
    36ec:	4781                	li	a5,0
    36ee:	bfa5                	j	3666 <__ieee754_sqrt+0x13e>
    36f0:	8836                	mv	a6,a3
    36f2:	02000893          	li	a7,32
    36f6:	567d                	li	a2,-1
    36f8:	bf49                	j	368a <__ieee754_sqrt+0x162>

000036fa <matherr>:
    36fa:	4501                	li	a0,0
    36fc:	8082                	ret

000036fe <__adddf3>:
    36fe:	00100837          	lui	a6,0x100
    3702:	1101                	addi	sp,sp,-32
    3704:	187d                	addi	a6,a6,-1
    3706:	00b87733          	and	a4,a6,a1
    370a:	ca26                	sw	s1,20(sp)
    370c:	00d87833          	and	a6,a6,a3
    3710:	0145d493          	srli	s1,a1,0x14
    3714:	0146d313          	srli	t1,a3,0x14
    3718:	00371e13          	slli	t3,a4,0x3
    371c:	c64e                	sw	s3,12(sp)
    371e:	01d55713          	srli	a4,a0,0x1d
    3722:	080e                	slli	a6,a6,0x3
    3724:	01d65793          	srli	a5,a2,0x1d
    3728:	7ff4f493          	andi	s1,s1,2047
    372c:	7ff37313          	andi	t1,t1,2047
    3730:	ce06                	sw	ra,28(sp)
    3732:	cc22                	sw	s0,24(sp)
    3734:	c84a                	sw	s2,16(sp)
    3736:	01f5d993          	srli	s3,a1,0x1f
    373a:	01f6de93          	srli	t4,a3,0x1f
    373e:	01c76733          	or	a4,a4,t3
    3742:	00351f13          	slli	t5,a0,0x3
    3746:	0107e833          	or	a6,a5,a6
    374a:	00361f93          	slli	t6,a2,0x3
    374e:	40648e33          	sub	t3,s1,t1
    3752:	19d98063          	beq	s3,t4,38d2 <__adddf3+0x1d4>
    3756:	13c05663          	blez	t3,3882 <__adddf3+0x184>
    375a:	1c030463          	beqz	t1,3922 <__adddf3+0x224>
    375e:	008006b7          	lui	a3,0x800
    3762:	7ff00793          	li	a5,2047
    3766:	00d86833          	or	a6,a6,a3
    376a:	36f48f63          	beq	s1,a5,3ae8 <__adddf3+0x3ea>
    376e:	03800793          	li	a5,56
    3772:	35c7c063          	blt	a5,t3,3ab2 <__adddf3+0x3b4>
    3776:	47fd                	li	a5,31
    3778:	47c7cd63          	blt	a5,t3,3bf2 <__adddf3+0x4f4>
    377c:	02000513          	li	a0,32
    3780:	41c50533          	sub	a0,a0,t3
    3784:	01cfd7b3          	srl	a5,t6,t3
    3788:	00a816b3          	sll	a3,a6,a0
    378c:	00af9933          	sll	s2,t6,a0
    3790:	8edd                	or	a3,a3,a5
    3792:	01203933          	snez	s2,s2
    3796:	01c857b3          	srl	a5,a6,t3
    379a:	0126e933          	or	s2,a3,s2
    379e:	8f1d                	sub	a4,a4,a5
    37a0:	412f0933          	sub	s2,t5,s2
    37a4:	012f37b3          	sltu	a5,t5,s2
    37a8:	40f70633          	sub	a2,a4,a5
    37ac:	00861793          	slli	a5,a2,0x8
    37b0:	2407d463          	bgez	a5,39f8 <__adddf3+0x2fa>
    37b4:	00800737          	lui	a4,0x800
    37b8:	177d                	addi	a4,a4,-1
    37ba:	00e67433          	and	s0,a2,a4
    37be:	2c040c63          	beqz	s0,3a96 <__adddf3+0x398>
    37c2:	8522                	mv	a0,s0
    37c4:	065020ef          	jal	ra,6028 <__clzsi2>
    37c8:	ff850713          	addi	a4,a0,-8
    37cc:	02000793          	li	a5,32
    37d0:	8f99                	sub	a5,a5,a4
    37d2:	00f957b3          	srl	a5,s2,a5
    37d6:	00e41633          	sll	a2,s0,a4
    37da:	8fd1                	or	a5,a5,a2
    37dc:	00e91933          	sll	s2,s2,a4
    37e0:	2a974163          	blt	a4,s1,3a82 <__adddf3+0x384>
    37e4:	40970533          	sub	a0,a4,s1
    37e8:	00150613          	addi	a2,a0,1
    37ec:	477d                	li	a4,31
    37ee:	38c74d63          	blt	a4,a2,3b88 <__adddf3+0x48a>
    37f2:	02000713          	li	a4,32
    37f6:	8f11                	sub	a4,a4,a2
    37f8:	00c956b3          	srl	a3,s2,a2
    37fc:	00e91933          	sll	s2,s2,a4
    3800:	00e79733          	sll	a4,a5,a4
    3804:	8f55                	or	a4,a4,a3
    3806:	01203933          	snez	s2,s2
    380a:	01276933          	or	s2,a4,s2
    380e:	00c7d633          	srl	a2,a5,a2
    3812:	4481                	li	s1,0
    3814:	00797793          	andi	a5,s2,7
    3818:	cf81                	beqz	a5,3830 <__adddf3+0x132>
    381a:	00f97713          	andi	a4,s2,15
    381e:	4791                	li	a5,4
    3820:	00f70863          	beq	a4,a5,3830 <__adddf3+0x132>
    3824:	00490713          	addi	a4,s2,4
    3828:	01273933          	sltu	s2,a4,s2
    382c:	964a                	add	a2,a2,s2
    382e:	893a                	mv	s2,a4
    3830:	00861793          	slli	a5,a2,0x8
    3834:	1c07d663          	bgez	a5,3a00 <__adddf3+0x302>
    3838:	00148513          	addi	a0,s1,1
    383c:	7ff00793          	li	a5,2047
    3840:	85ce                	mv	a1,s3
    3842:	20f50463          	beq	a0,a5,3a4a <__adddf3+0x34c>
    3846:	ff8007b7          	lui	a5,0xff800
    384a:	17fd                	addi	a5,a5,-1
    384c:	8ff1                	and	a5,a5,a2
    384e:	01d79893          	slli	a7,a5,0x1d
    3852:	00395913          	srli	s2,s2,0x3
    3856:	07a6                	slli	a5,a5,0x9
    3858:	0128e8b3          	or	a7,a7,s2
    385c:	83b1                	srli	a5,a5,0xc
    385e:	7ff57513          	andi	a0,a0,2047
    3862:	00c79693          	slli	a3,a5,0xc
    3866:	0552                	slli	a0,a0,0x14
    3868:	40f2                	lw	ra,28(sp)
    386a:	4462                	lw	s0,24(sp)
    386c:	82b1                	srli	a3,a3,0xc
    386e:	05fe                	slli	a1,a1,0x1f
    3870:	8ec9                	or	a3,a3,a0
    3872:	8ecd                	or	a3,a3,a1
    3874:	44d2                	lw	s1,20(sp)
    3876:	4942                	lw	s2,16(sp)
    3878:	49b2                	lw	s3,12(sp)
    387a:	8546                	mv	a0,a7
    387c:	85b6                	mv	a1,a3
    387e:	6105                	addi	sp,sp,32
    3880:	8082                	ret
    3882:	0a0e1e63          	bnez	t3,393e <__adddf3+0x240>
    3886:	00148313          	addi	t1,s1,1
    388a:	7fe37313          	andi	t1,t1,2046
    388e:	22031763          	bnez	t1,3abc <__adddf3+0x3be>
    3892:	01e767b3          	or	a5,a4,t5
    3896:	01f868b3          	or	a7,a6,t6
    389a:	1a049d63          	bnez	s1,3a54 <__adddf3+0x356>
    389e:	40078763          	beqz	a5,3cac <__adddf3+0x5ae>
    38a2:	44088663          	beqz	a7,3cee <__adddf3+0x5f0>
    38a6:	41ff0933          	sub	s2,t5,t6
    38aa:	410707b3          	sub	a5,a4,a6
    38ae:	012f3633          	sltu	a2,t5,s2
    38b2:	40c78633          	sub	a2,a5,a2
    38b6:	00861793          	slli	a5,a2,0x8
    38ba:	4c07d663          	bgez	a5,3d86 <__adddf3+0x688>
    38be:	41ef8933          	sub	s2,t6,t5
    38c2:	40e807b3          	sub	a5,a6,a4
    38c6:	012fb633          	sltu	a2,t6,s2
    38ca:	40c78633          	sub	a2,a5,a2
    38ce:	89f6                	mv	s3,t4
    38d0:	b791                	j	3814 <__adddf3+0x116>
    38d2:	0fc05063          	blez	t3,39b2 <__adddf3+0x2b4>
    38d6:	0c030063          	beqz	t1,3996 <__adddf3+0x298>
    38da:	008006b7          	lui	a3,0x800
    38de:	7ff00793          	li	a5,2047
    38e2:	00d86833          	or	a6,a6,a3
    38e6:	3af48a63          	beq	s1,a5,3c9a <__adddf3+0x59c>
    38ea:	03800793          	li	a5,56
    38ee:	13c7cb63          	blt	a5,t3,3a24 <__adddf3+0x326>
    38f2:	47fd                	li	a5,31
    38f4:	35c7df63          	bge	a5,t3,3c52 <__adddf3+0x554>
    38f8:	fe0e0913          	addi	s2,t3,-32
    38fc:	02000793          	li	a5,32
    3900:	012856b3          	srl	a3,a6,s2
    3904:	00fe0a63          	beq	t3,a5,3918 <__adddf3+0x21a>
    3908:	04000913          	li	s2,64
    390c:	41c90933          	sub	s2,s2,t3
    3910:	01281933          	sll	s2,a6,s2
    3914:	012fefb3          	or	t6,t6,s2
    3918:	01f03933          	snez	s2,t6
    391c:	00d96933          	or	s2,s2,a3
    3920:	a231                	j	3a2c <__adddf3+0x32e>
    3922:	01f867b3          	or	a5,a6,t6
    3926:	1c078a63          	beqz	a5,3afa <__adddf3+0x3fc>
    392a:	fffe0793          	addi	a5,t3,-1
    392e:	38078c63          	beqz	a5,3cc6 <__adddf3+0x5c8>
    3932:	7ff00693          	li	a3,2047
    3936:	1ade0963          	beq	t3,a3,3ae8 <__adddf3+0x3ea>
    393a:	8e3e                	mv	t3,a5
    393c:	bd0d                	j	376e <__adddf3+0x70>
    393e:	409305b3          	sub	a1,t1,s1
    3942:	22049163          	bnez	s1,3b64 <__adddf3+0x466>
    3946:	01e767b3          	or	a5,a4,t5
    394a:	32078763          	beqz	a5,3c78 <__adddf3+0x57a>
    394e:	fff58793          	addi	a5,a1,-1
    3952:	44078163          	beqz	a5,3d94 <__adddf3+0x696>
    3956:	7ff00693          	li	a3,2047
    395a:	20d58c63          	beq	a1,a3,3b72 <__adddf3+0x474>
    395e:	85be                	mv	a1,a5
    3960:	03800793          	li	a5,56
    3964:	2ab7cc63          	blt	a5,a1,3c1c <__adddf3+0x51e>
    3968:	47fd                	li	a5,31
    396a:	3cb7cf63          	blt	a5,a1,3d48 <__adddf3+0x64a>
    396e:	02000793          	li	a5,32
    3972:	8f8d                	sub	a5,a5,a1
    3974:	00f71933          	sll	s2,a4,a5
    3978:	00bf56b3          	srl	a3,t5,a1
    397c:	00ff17b3          	sll	a5,t5,a5
    3980:	00d96933          	or	s2,s2,a3
    3984:	00f037b3          	snez	a5,a5
    3988:	00b75733          	srl	a4,a4,a1
    398c:	00f96933          	or	s2,s2,a5
    3990:	40e80833          	sub	a6,a6,a4
    3994:	ac41                	j	3c24 <__adddf3+0x526>
    3996:	01f867b3          	or	a5,a6,t6
    399a:	34078063          	beqz	a5,3cda <__adddf3+0x5dc>
    399e:	fffe0793          	addi	a5,t3,-1
    39a2:	20078a63          	beqz	a5,3bb6 <__adddf3+0x4b8>
    39a6:	7ff00693          	li	a3,2047
    39aa:	2ede0863          	beq	t3,a3,3c9a <__adddf3+0x59c>
    39ae:	8e3e                	mv	t3,a5
    39b0:	bf2d                	j	38ea <__adddf3+0x1ec>
    39b2:	140e1e63          	bnez	t3,3b0e <__adddf3+0x410>
    39b6:	00148693          	addi	a3,s1,1
    39ba:	7fe6f793          	andi	a5,a3,2046
    39be:	34079163          	bnez	a5,3d00 <__adddf3+0x602>
    39c2:	01e767b3          	or	a5,a4,t5
    39c6:	2c049563          	bnez	s1,3c90 <__adddf3+0x592>
    39ca:	3e078063          	beqz	a5,3daa <__adddf3+0x6ac>
    39ce:	01f867b3          	or	a5,a6,t6
    39d2:	30078e63          	beqz	a5,3cee <__adddf3+0x5f0>
    39d6:	01ff0933          	add	s2,t5,t6
    39da:	010707b3          	add	a5,a4,a6
    39de:	01e93f33          	sltu	t5,s2,t5
    39e2:	01e78633          	add	a2,a5,t5
    39e6:	00861793          	slli	a5,a2,0x8
    39ea:	0007d763          	bgez	a5,39f8 <__adddf3+0x2fa>
    39ee:	ff8007b7          	lui	a5,0xff800
    39f2:	17fd                	addi	a5,a5,-1
    39f4:	8e7d                	and	a2,a2,a5
    39f6:	4485                	li	s1,1
    39f8:	00797793          	andi	a5,s2,7
    39fc:	e0079fe3          	bnez	a5,381a <__adddf3+0x11c>
    3a00:	01d61793          	slli	a5,a2,0x1d
    3a04:	00395893          	srli	a7,s2,0x3
    3a08:	00f8e8b3          	or	a7,a7,a5
    3a0c:	00365793          	srli	a5,a2,0x3
    3a10:	7ff00713          	li	a4,2047
    3a14:	04e48d63          	beq	s1,a4,3a6e <__adddf3+0x370>
    3a18:	07b2                	slli	a5,a5,0xc
    3a1a:	83b1                	srli	a5,a5,0xc
    3a1c:	7ff4f513          	andi	a0,s1,2047
    3a20:	85ce                	mv	a1,s3
    3a22:	b581                	j	3862 <__adddf3+0x164>
    3a24:	01f86933          	or	s2,a6,t6
    3a28:	01203933          	snez	s2,s2
    3a2c:	997a                	add	s2,s2,t5
    3a2e:	01e937b3          	sltu	a5,s2,t5
    3a32:	00e78633          	add	a2,a5,a4
    3a36:	00861793          	slli	a5,a2,0x8
    3a3a:	fa07dfe3          	bgez	a5,39f8 <__adddf3+0x2fa>
    3a3e:	0485                	addi	s1,s1,1
    3a40:	7ff00793          	li	a5,2047
    3a44:	18f49663          	bne	s1,a5,3bd0 <__adddf3+0x4d2>
    3a48:	85ce                	mv	a1,s3
    3a4a:	7ff00513          	li	a0,2047
    3a4e:	4781                	li	a5,0
    3a50:	4881                	li	a7,0
    3a52:	bd01                	j	3862 <__adddf3+0x164>
    3a54:	ebc1                	bnez	a5,3ae4 <__adddf3+0x3e6>
    3a56:	3a088463          	beqz	a7,3dfe <__adddf3+0x700>
    3a5a:	00361693          	slli	a3,a2,0x3
    3a5e:	01d81793          	slli	a5,a6,0x1d
    3a62:	828d                	srli	a3,a3,0x3
    3a64:	00d7e8b3          	or	a7,a5,a3
    3a68:	89f6                	mv	s3,t4
    3a6a:	00385793          	srli	a5,a6,0x3
    3a6e:	00f8e7b3          	or	a5,a7,a5
    3a72:	dbf9                	beqz	a5,3a48 <__adddf3+0x34a>
    3a74:	4581                	li	a1,0
    3a76:	7ff00513          	li	a0,2047
    3a7a:	000807b7          	lui	a5,0x80
    3a7e:	4881                	li	a7,0
    3a80:	b3cd                	j	3862 <__adddf3+0x164>
    3a82:	ff800637          	lui	a2,0xff800
    3a86:	167d                	addi	a2,a2,-1
    3a88:	8e7d                	and	a2,a2,a5
    3a8a:	00797793          	andi	a5,s2,7
    3a8e:	8c99                	sub	s1,s1,a4
    3a90:	d80795e3          	bnez	a5,381a <__adddf3+0x11c>
    3a94:	b7b5                	j	3a00 <__adddf3+0x302>
    3a96:	854a                	mv	a0,s2
    3a98:	590020ef          	jal	ra,6028 <__clzsi2>
    3a9c:	01850713          	addi	a4,a0,24
    3aa0:	47fd                	li	a5,31
    3aa2:	d2e7d5e3          	bge	a5,a4,37cc <__adddf3+0xce>
    3aa6:	ff850613          	addi	a2,a0,-8
    3aaa:	00c917b3          	sll	a5,s2,a2
    3aae:	4901                	li	s2,0
    3ab0:	bb05                	j	37e0 <__adddf3+0xe2>
    3ab2:	01f86933          	or	s2,a6,t6
    3ab6:	01203933          	snez	s2,s2
    3aba:	b1dd                	j	37a0 <__adddf3+0xa2>
    3abc:	41ff0933          	sub	s2,t5,t6
    3ac0:	41070633          	sub	a2,a4,a6
    3ac4:	012f3433          	sltu	s0,t5,s2
    3ac8:	40860433          	sub	s0,a2,s0
    3acc:	00841793          	slli	a5,s0,0x8
    3ad0:	2407cd63          	bltz	a5,3d2a <__adddf3+0x62c>
    3ad4:	008968b3          	or	a7,s2,s0
    3ad8:	ce0893e3          	bnez	a7,37be <__adddf3+0xc0>
    3adc:	4781                	li	a5,0
    3ade:	4981                	li	s3,0
    3ae0:	4481                	li	s1,0
    3ae2:	bf1d                	j	3a18 <__adddf3+0x31a>
    3ae4:	f80898e3          	bnez	a7,3a74 <__adddf3+0x376>
    3ae8:	050e                	slli	a0,a0,0x3
    3aea:	01d71793          	slli	a5,a4,0x1d
    3aee:	810d                	srli	a0,a0,0x3
    3af0:	00a7e8b3          	or	a7,a5,a0
    3af4:	00375793          	srli	a5,a4,0x3
    3af8:	bf9d                	j	3a6e <__adddf3+0x370>
    3afa:	050e                	slli	a0,a0,0x3
    3afc:	01d71793          	slli	a5,a4,0x1d
    3b00:	810d                	srli	a0,a0,0x3
    3b02:	00a7e8b3          	or	a7,a5,a0
    3b06:	84f2                	mv	s1,t3
    3b08:	00375793          	srli	a5,a4,0x3
    3b0c:	b711                	j	3a10 <__adddf3+0x312>
    3b0e:	40930533          	sub	a0,t1,s1
    3b12:	12048263          	beqz	s1,3c36 <__adddf3+0x538>
    3b16:	008006b7          	lui	a3,0x800
    3b1a:	7ff00793          	li	a5,2047
    3b1e:	8f55                	or	a4,a4,a3
    3b20:	2ef30d63          	beq	t1,a5,3e1a <__adddf3+0x71c>
    3b24:	03800793          	li	a5,56
    3b28:	20a7cb63          	blt	a5,a0,3d3e <__adddf3+0x640>
    3b2c:	47fd                	li	a5,31
    3b2e:	2aa7c363          	blt	a5,a0,3dd4 <__adddf3+0x6d6>
    3b32:	02000793          	li	a5,32
    3b36:	8f89                	sub	a5,a5,a0
    3b38:	00f71933          	sll	s2,a4,a5
    3b3c:	00af56b3          	srl	a3,t5,a0
    3b40:	00ff17b3          	sll	a5,t5,a5
    3b44:	00d96933          	or	s2,s2,a3
    3b48:	00f037b3          	snez	a5,a5
    3b4c:	00a75733          	srl	a4,a4,a0
    3b50:	00f96933          	or	s2,s2,a5
    3b54:	983a                	add	a6,a6,a4
    3b56:	997e                	add	s2,s2,t6
    3b58:	01f937b3          	sltu	a5,s2,t6
    3b5c:	01078633          	add	a2,a5,a6
    3b60:	849a                	mv	s1,t1
    3b62:	bdd1                	j	3a36 <__adddf3+0x338>
    3b64:	008006b7          	lui	a3,0x800
    3b68:	7ff00793          	li	a5,2047
    3b6c:	8f55                	or	a4,a4,a3
    3b6e:	def319e3          	bne	t1,a5,3960 <__adddf3+0x262>
    3b72:	00361793          	slli	a5,a2,0x3
    3b76:	838d                	srli	a5,a5,0x3
    3b78:	01d81893          	slli	a7,a6,0x1d
    3b7c:	0117e8b3          	or	a7,a5,a7
    3b80:	89f6                	mv	s3,t4
    3b82:	00385793          	srli	a5,a6,0x3
    3b86:	b5e5                	j	3a6e <__adddf3+0x370>
    3b88:	fe150713          	addi	a4,a0,-31
    3b8c:	02000693          	li	a3,32
    3b90:	00e7d733          	srl	a4,a5,a4
    3b94:	00d60a63          	beq	a2,a3,3ba8 <__adddf3+0x4aa>
    3b98:	04000693          	li	a3,64
    3b9c:	40c68633          	sub	a2,a3,a2
    3ba0:	00c79633          	sll	a2,a5,a2
    3ba4:	00c96933          	or	s2,s2,a2
    3ba8:	01203933          	snez	s2,s2
    3bac:	00e96933          	or	s2,s2,a4
    3bb0:	4601                	li	a2,0
    3bb2:	4481                	li	s1,0
    3bb4:	b591                	j	39f8 <__adddf3+0x2fa>
    3bb6:	01ff0933          	add	s2,t5,t6
    3bba:	010707b3          	add	a5,a4,a6
    3bbe:	01e93633          	sltu	a2,s2,t5
    3bc2:	963e                	add	a2,a2,a5
    3bc4:	00861793          	slli	a5,a2,0x8
    3bc8:	4485                	li	s1,1
    3bca:	e207d7e3          	bgez	a5,39f8 <__adddf3+0x2fa>
    3bce:	4489                	li	s1,2
    3bd0:	ff8007b7          	lui	a5,0xff800
    3bd4:	17fd                	addi	a5,a5,-1
    3bd6:	8ff1                	and	a5,a5,a2
    3bd8:	00195713          	srli	a4,s2,0x1
    3bdc:	00197913          	andi	s2,s2,1
    3be0:	01276933          	or	s2,a4,s2
    3be4:	01f79893          	slli	a7,a5,0x1f
    3be8:	0128e933          	or	s2,a7,s2
    3bec:	0017d613          	srli	a2,a5,0x1
    3bf0:	b115                	j	3814 <__adddf3+0x116>
    3bf2:	fe0e0913          	addi	s2,t3,-32
    3bf6:	02000793          	li	a5,32
    3bfa:	012856b3          	srl	a3,a6,s2
    3bfe:	00fe0a63          	beq	t3,a5,3c12 <__adddf3+0x514>
    3c02:	04000913          	li	s2,64
    3c06:	41c90933          	sub	s2,s2,t3
    3c0a:	01281933          	sll	s2,a6,s2
    3c0e:	012fefb3          	or	t6,t6,s2
    3c12:	01f03933          	snez	s2,t6
    3c16:	00d96933          	or	s2,s2,a3
    3c1a:	b659                	j	37a0 <__adddf3+0xa2>
    3c1c:	01e76933          	or	s2,a4,t5
    3c20:	01203933          	snez	s2,s2
    3c24:	412f8933          	sub	s2,t6,s2
    3c28:	012fb7b3          	sltu	a5,t6,s2
    3c2c:	40f80633          	sub	a2,a6,a5
    3c30:	849a                	mv	s1,t1
    3c32:	89f6                	mv	s3,t4
    3c34:	bea5                	j	37ac <__adddf3+0xae>
    3c36:	01e767b3          	or	a5,a4,t5
    3c3a:	18078263          	beqz	a5,3dbe <__adddf3+0x6c0>
    3c3e:	fff50793          	addi	a5,a0,-1
    3c42:	1c078463          	beqz	a5,3e0a <__adddf3+0x70c>
    3c46:	7ff00693          	li	a3,2047
    3c4a:	12d50463          	beq	a0,a3,3d72 <__adddf3+0x674>
    3c4e:	853e                	mv	a0,a5
    3c50:	bdd1                	j	3b24 <__adddf3+0x426>
    3c52:	02000793          	li	a5,32
    3c56:	41c787b3          	sub	a5,a5,t3
    3c5a:	00f816b3          	sll	a3,a6,a5
    3c5e:	00ff9933          	sll	s2,t6,a5
    3c62:	01cfd633          	srl	a2,t6,t3
    3c66:	8ed1                	or	a3,a3,a2
    3c68:	01203933          	snez	s2,s2
    3c6c:	01c857b3          	srl	a5,a6,t3
    3c70:	0126e933          	or	s2,a3,s2
    3c74:	973e                	add	a4,a4,a5
    3c76:	bb5d                	j	3a2c <__adddf3+0x32e>
    3c78:	00361793          	slli	a5,a2,0x3
    3c7c:	838d                	srli	a5,a5,0x3
    3c7e:	01d81893          	slli	a7,a6,0x1d
    3c82:	0117e8b3          	or	a7,a5,a7
    3c86:	84ae                	mv	s1,a1
    3c88:	00385793          	srli	a5,a6,0x3
    3c8c:	89f6                	mv	s3,t4
    3c8e:	b349                	j	3a10 <__adddf3+0x312>
    3c90:	c3ed                	beqz	a5,3d72 <__adddf3+0x674>
    3c92:	01f86933          	or	s2,a6,t6
    3c96:	dc091fe3          	bnez	s2,3a74 <__adddf3+0x376>
    3c9a:	050e                	slli	a0,a0,0x3
    3c9c:	01d71793          	slli	a5,a4,0x1d
    3ca0:	810d                	srli	a0,a0,0x3
    3ca2:	00f568b3          	or	a7,a0,a5
    3ca6:	00375793          	srli	a5,a4,0x3
    3caa:	b3d1                	j	3a6e <__adddf3+0x370>
    3cac:	0e088163          	beqz	a7,3d8e <__adddf3+0x690>
    3cb0:	00361693          	slli	a3,a2,0x3
    3cb4:	01d81793          	slli	a5,a6,0x1d
    3cb8:	828d                	srli	a3,a3,0x3
    3cba:	00d7e8b3          	or	a7,a5,a3
    3cbe:	89f6                	mv	s3,t4
    3cc0:	00385793          	srli	a5,a6,0x3
    3cc4:	bb91                	j	3a18 <__adddf3+0x31a>
    3cc6:	41ff0933          	sub	s2,t5,t6
    3cca:	410707b3          	sub	a5,a4,a6
    3cce:	012f3f33          	sltu	t5,t5,s2
    3cd2:	41e78633          	sub	a2,a5,t5
    3cd6:	4485                	li	s1,1
    3cd8:	bcd1                	j	37ac <__adddf3+0xae>
    3cda:	050e                	slli	a0,a0,0x3
    3cdc:	01d71793          	slli	a5,a4,0x1d
    3ce0:	810d                	srli	a0,a0,0x3
    3ce2:	00f568b3          	or	a7,a0,a5
    3ce6:	84f2                	mv	s1,t3
    3ce8:	00375793          	srli	a5,a4,0x3
    3cec:	b315                	j	3a10 <__adddf3+0x312>
    3cee:	050e                	slli	a0,a0,0x3
    3cf0:	01d71793          	slli	a5,a4,0x1d
    3cf4:	810d                	srli	a0,a0,0x3
    3cf6:	00a7e8b3          	or	a7,a5,a0
    3cfa:	00375793          	srli	a5,a4,0x3
    3cfe:	bb29                	j	3a18 <__adddf3+0x31a>
    3d00:	7ff00793          	li	a5,2047
    3d04:	d4f682e3          	beq	a3,a5,3a48 <__adddf3+0x34a>
    3d08:	01ff0933          	add	s2,t5,t6
    3d0c:	01e93633          	sltu	a2,s2,t5
    3d10:	010707b3          	add	a5,a4,a6
    3d14:	97b2                	add	a5,a5,a2
    3d16:	01f79893          	slli	a7,a5,0x1f
    3d1a:	00195913          	srli	s2,s2,0x1
    3d1e:	0128e933          	or	s2,a7,s2
    3d22:	0017d613          	srli	a2,a5,0x1
    3d26:	84b6                	mv	s1,a3
    3d28:	b9c1                	j	39f8 <__adddf3+0x2fa>
    3d2a:	41ef8933          	sub	s2,t6,t5
    3d2e:	40e80733          	sub	a4,a6,a4
    3d32:	012fb633          	sltu	a2,t6,s2
    3d36:	40c70433          	sub	s0,a4,a2
    3d3a:	89f6                	mv	s3,t4
    3d3c:	b449                	j	37be <__adddf3+0xc0>
    3d3e:	01e76933          	or	s2,a4,t5
    3d42:	01203933          	snez	s2,s2
    3d46:	bd01                	j	3b56 <__adddf3+0x458>
    3d48:	fe058793          	addi	a5,a1,-32
    3d4c:	02000693          	li	a3,32
    3d50:	00f757b3          	srl	a5,a4,a5
    3d54:	00d58a63          	beq	a1,a3,3d68 <__adddf3+0x66a>
    3d58:	04000693          	li	a3,64
    3d5c:	40b685b3          	sub	a1,a3,a1
    3d60:	00b71733          	sll	a4,a4,a1
    3d64:	00ef6f33          	or	t5,t5,a4
    3d68:	01e03933          	snez	s2,t5
    3d6c:	00f96933          	or	s2,s2,a5
    3d70:	bd55                	j	3c24 <__adddf3+0x526>
    3d72:	00361793          	slli	a5,a2,0x3
    3d76:	838d                	srli	a5,a5,0x3
    3d78:	01d81893          	slli	a7,a6,0x1d
    3d7c:	0117e8b3          	or	a7,a5,a7
    3d80:	00385793          	srli	a5,a6,0x3
    3d84:	b1ed                	j	3a6e <__adddf3+0x370>
    3d86:	00c968b3          	or	a7,s2,a2
    3d8a:	c60897e3          	bnez	a7,39f8 <__adddf3+0x2fa>
    3d8e:	4781                	li	a5,0
    3d90:	4981                	li	s3,0
    3d92:	b159                	j	3a18 <__adddf3+0x31a>
    3d94:	41ef8933          	sub	s2,t6,t5
    3d98:	40e807b3          	sub	a5,a6,a4
    3d9c:	012fb633          	sltu	a2,t6,s2
    3da0:	40c78633          	sub	a2,a5,a2
    3da4:	89f6                	mv	s3,t4
    3da6:	4485                	li	s1,1
    3da8:	b411                	j	37ac <__adddf3+0xae>
    3daa:	00361693          	slli	a3,a2,0x3
    3dae:	01d81793          	slli	a5,a6,0x1d
    3db2:	828d                	srli	a3,a3,0x3
    3db4:	00d7e8b3          	or	a7,a5,a3
    3db8:	00385793          	srli	a5,a6,0x3
    3dbc:	b9b1                	j	3a18 <__adddf3+0x31a>
    3dbe:	00361693          	slli	a3,a2,0x3
    3dc2:	01d81793          	slli	a5,a6,0x1d
    3dc6:	828d                	srli	a3,a3,0x3
    3dc8:	00d7e8b3          	or	a7,a5,a3
    3dcc:	84aa                	mv	s1,a0
    3dce:	00385793          	srli	a5,a6,0x3
    3dd2:	b93d                	j	3a10 <__adddf3+0x312>
    3dd4:	fe050793          	addi	a5,a0,-32
    3dd8:	02000693          	li	a3,32
    3ddc:	00f757b3          	srl	a5,a4,a5
    3de0:	00d50a63          	beq	a0,a3,3df4 <__adddf3+0x6f6>
    3de4:	04000693          	li	a3,64
    3de8:	40a68533          	sub	a0,a3,a0
    3dec:	00a71733          	sll	a4,a4,a0
    3df0:	00ef6f33          	or	t5,t5,a4
    3df4:	01e03933          	snez	s2,t5
    3df8:	00f96933          	or	s2,s2,a5
    3dfc:	bba9                	j	3b56 <__adddf3+0x458>
    3dfe:	4581                	li	a1,0
    3e00:	7ff00513          	li	a0,2047
    3e04:	000807b7          	lui	a5,0x80
    3e08:	bca9                	j	3862 <__adddf3+0x164>
    3e0a:	01ff0933          	add	s2,t5,t6
    3e0e:	010707b3          	add	a5,a4,a6
    3e12:	01f93633          	sltu	a2,s2,t6
    3e16:	963e                	add	a2,a2,a5
    3e18:	b375                	j	3bc4 <__adddf3+0x4c6>
    3e1a:	00361693          	slli	a3,a2,0x3
    3e1e:	01d81793          	slli	a5,a6,0x1d
    3e22:	828d                	srli	a3,a3,0x3
    3e24:	00d7e8b3          	or	a7,a5,a3
    3e28:	00385793          	srli	a5,a6,0x3
    3e2c:	b189                	j	3a6e <__adddf3+0x370>

00003e2e <__divdf3>:
    3e2e:	7139                	addi	sp,sp,-64
    3e30:	0145d793          	srli	a5,a1,0x14
    3e34:	dc22                	sw	s0,56(sp)
    3e36:	d84a                	sw	s2,48(sp)
    3e38:	d256                	sw	s5,36(sp)
    3e3a:	892a                	mv	s2,a0
    3e3c:	00c59413          	slli	s0,a1,0xc
    3e40:	de06                	sw	ra,60(sp)
    3e42:	da26                	sw	s1,52(sp)
    3e44:	d64e                	sw	s3,44(sp)
    3e46:	d452                	sw	s4,40(sp)
    3e48:	d05a                	sw	s6,32(sp)
    3e4a:	ce5e                	sw	s7,28(sp)
    3e4c:	7ff7f513          	andi	a0,a5,2047
    3e50:	8031                	srli	s0,s0,0xc
    3e52:	01f5da93          	srli	s5,a1,0x1f
    3e56:	10050b63          	beqz	a0,3f6c <__divdf3+0x13e>
    3e5a:	7ff00793          	li	a5,2047
    3e5e:	14f50b63          	beq	a0,a5,3fb4 <__divdf3+0x186>
    3e62:	01d95a13          	srli	s4,s2,0x1d
    3e66:	040e                	slli	s0,s0,0x3
    3e68:	008a6433          	or	s0,s4,s0
    3e6c:	00800a37          	lui	s4,0x800
    3e70:	01446a33          	or	s4,s0,s4
    3e74:	00391b13          	slli	s6,s2,0x3
    3e78:	c0150493          	addi	s1,a0,-1023
    3e7c:	4401                	li	s0,0
    3e7e:	4b81                	li	s7,0
    3e80:	0146d813          	srli	a6,a3,0x14
    3e84:	00c69913          	slli	s2,a3,0xc
    3e88:	7ff87813          	andi	a6,a6,2047
    3e8c:	88b2                	mv	a7,a2
    3e8e:	00c95913          	srli	s2,s2,0xc
    3e92:	01f6d993          	srli	s3,a3,0x1f
    3e96:	08080e63          	beqz	a6,3f32 <__divdf3+0x104>
    3e9a:	7ff00793          	li	a5,2047
    3e9e:	04f80063          	beq	a6,a5,3ede <__divdf3+0xb0>
    3ea2:	01d65713          	srli	a4,a2,0x1d
    3ea6:	090e                	slli	s2,s2,0x3
    3ea8:	01276933          	or	s2,a4,s2
    3eac:	c0180813          	addi	a6,a6,-1023 # ffc01 <_data_lma+0xf29ad>
    3eb0:	008007b7          	lui	a5,0x800
    3eb4:	00f96733          	or	a4,s2,a5
    3eb8:	00361893          	slli	a7,a2,0x3
    3ebc:	410484b3          	sub	s1,s1,a6
    3ec0:	4581                	li	a1,0
    3ec2:	47bd                	li	a5,15
    3ec4:	013ac833          	xor	a6,s5,s3
    3ec8:	1a87e463          	bltu	a5,s0,4070 <__divdf3+0x242>
    3ecc:	00009797          	auipc	a5,0x9
    3ed0:	d7878793          	addi	a5,a5,-648 # cc44 <u8x8_ssd1306_128x64_noname_display_info+0x198>
    3ed4:	040a                	slli	s0,s0,0x2
    3ed6:	943e                	add	s0,s0,a5
    3ed8:	4010                	lw	a2,0(s0)
    3eda:	963e                	add	a2,a2,a5
    3edc:	8602                	jr	a2
    3ede:	00c96733          	or	a4,s2,a2
    3ee2:	80148493          	addi	s1,s1,-2047
    3ee6:	10071263          	bnez	a4,3fea <__divdf3+0x1bc>
    3eea:	00246413          	ori	s0,s0,2
    3eee:	4881                	li	a7,0
    3ef0:	4589                	li	a1,2
    3ef2:	bfc1                	j	3ec2 <__divdf3+0x94>
    3ef4:	7ff00613          	li	a2,2047
    3ef8:	4781                	li	a5,0
    3efa:	4701                	li	a4,0
    3efc:	07b2                	slli	a5,a5,0xc
    3efe:	50f2                	lw	ra,60(sp)
    3f00:	5462                	lw	s0,56(sp)
    3f02:	0652                	slli	a2,a2,0x14
    3f04:	83b1                	srli	a5,a5,0xc
    3f06:	087e                	slli	a6,a6,0x1f
    3f08:	8fd1                	or	a5,a5,a2
    3f0a:	0107e7b3          	or	a5,a5,a6
    3f0e:	54d2                	lw	s1,52(sp)
    3f10:	5942                	lw	s2,48(sp)
    3f12:	59b2                	lw	s3,44(sp)
    3f14:	5a22                	lw	s4,40(sp)
    3f16:	5a92                	lw	s5,36(sp)
    3f18:	5b02                	lw	s6,32(sp)
    3f1a:	4bf2                	lw	s7,28(sp)
    3f1c:	853a                	mv	a0,a4
    3f1e:	85be                	mv	a1,a5
    3f20:	6121                	addi	sp,sp,64
    3f22:	8082                	ret
    3f24:	4801                	li	a6,0
    3f26:	7ff00613          	li	a2,2047
    3f2a:	000807b7          	lui	a5,0x80
    3f2e:	4701                	li	a4,0
    3f30:	b7f1                	j	3efc <__divdf3+0xce>
    3f32:	00c96733          	or	a4,s2,a2
    3f36:	c74d                	beqz	a4,3fe0 <__divdf3+0x1b2>
    3f38:	30090863          	beqz	s2,4248 <__divdf3+0x41a>
    3f3c:	854a                	mv	a0,s2
    3f3e:	c432                	sw	a2,8(sp)
    3f40:	0e8020ef          	jal	ra,6028 <__clzsi2>
    3f44:	4622                	lw	a2,8(sp)
    3f46:	ff550713          	addi	a4,a0,-11
    3f4a:	47f5                	li	a5,29
    3f4c:	ff850693          	addi	a3,a0,-8
    3f50:	8f99                	sub	a5,a5,a4
    3f52:	00d91933          	sll	s2,s2,a3
    3f56:	00f657b3          	srl	a5,a2,a5
    3f5a:	0127e733          	or	a4,a5,s2
    3f5e:	00d618b3          	sll	a7,a2,a3
    3f62:	9526                	add	a0,a0,s1
    3f64:	3f350493          	addi	s1,a0,1011
    3f68:	4581                	li	a1,0
    3f6a:	bfa1                	j	3ec2 <__divdf3+0x94>
    3f6c:	01246a33          	or	s4,s0,s2
    3f70:	060a0363          	beqz	s4,3fd6 <__divdf3+0x1a8>
    3f74:	c636                	sw	a3,12(sp)
    3f76:	c432                	sw	a2,8(sp)
    3f78:	2a040663          	beqz	s0,4224 <__divdf3+0x3f6>
    3f7c:	8522                	mv	a0,s0
    3f7e:	0aa020ef          	jal	ra,6028 <__clzsi2>
    3f82:	4622                	lw	a2,8(sp)
    3f84:	46b2                	lw	a3,12(sp)
    3f86:	84aa                	mv	s1,a0
    3f88:	ff550713          	addi	a4,a0,-11
    3f8c:	4a75                	li	s4,29
    3f8e:	ff848b13          	addi	s6,s1,-8
    3f92:	40ea0a33          	sub	s4,s4,a4
    3f96:	01641433          	sll	s0,s0,s6
    3f9a:	01495a33          	srl	s4,s2,s4
    3f9e:	008a6a33          	or	s4,s4,s0
    3fa2:	01691b33          	sll	s6,s2,s6
    3fa6:	c0d00513          	li	a0,-1011
    3faa:	409504b3          	sub	s1,a0,s1
    3fae:	4401                	li	s0,0
    3fb0:	4b81                	li	s7,0
    3fb2:	b5f9                	j	3e80 <__divdf3+0x52>
    3fb4:	01246a33          	or	s4,s0,s2
    3fb8:	000a1863          	bnez	s4,3fc8 <__divdf3+0x19a>
    3fbc:	4421                	li	s0,8
    3fbe:	4b01                	li	s6,0
    3fc0:	7ff00493          	li	s1,2047
    3fc4:	4b89                	li	s7,2
    3fc6:	bd6d                	j	3e80 <__divdf3+0x52>
    3fc8:	8a22                	mv	s4,s0
    3fca:	8b4a                	mv	s6,s2
    3fcc:	4431                	li	s0,12
    3fce:	7ff00493          	li	s1,2047
    3fd2:	4b8d                	li	s7,3
    3fd4:	b575                	j	3e80 <__divdf3+0x52>
    3fd6:	4411                	li	s0,4
    3fd8:	4b01                	li	s6,0
    3fda:	4481                	li	s1,0
    3fdc:	4b85                	li	s7,1
    3fde:	b54d                	j	3e80 <__divdf3+0x52>
    3fe0:	00146413          	ori	s0,s0,1
    3fe4:	4881                	li	a7,0
    3fe6:	4585                	li	a1,1
    3fe8:	bde9                	j	3ec2 <__divdf3+0x94>
    3fea:	00346413          	ori	s0,s0,3
    3fee:	874a                	mv	a4,s2
    3ff0:	458d                	li	a1,3
    3ff2:	bdc1                	j	3ec2 <__divdf3+0x94>
    3ff4:	2e050a63          	beqz	a0,42e8 <__divdf3+0x4ba>
    3ff8:	4785                	li	a5,1
    3ffa:	8f89                	sub	a5,a5,a0
    3ffc:	03800693          	li	a3,56
    4000:	32f6dd63          	bge	a3,a5,433a <__divdf3+0x50c>
    4004:	4601                	li	a2,0
    4006:	4781                	li	a5,0
    4008:	4701                	li	a4,0
    400a:	bdcd                	j	3efc <__divdf3+0xce>
    400c:	86ce                	mv	a3,s3
    400e:	4789                	li	a5,2
    4010:	3af58d63          	beq	a1,a5,43ca <__divdf3+0x59c>
    4014:	478d                	li	a5,3
    4016:	f0f587e3          	beq	a1,a5,3f24 <__divdf3+0xf6>
    401a:	4785                	li	a5,1
    401c:	8836                	mv	a6,a3
    401e:	fef583e3          	beq	a1,a5,4004 <__divdf3+0x1d6>
    4022:	3ff48513          	addi	a0,s1,1023
    4026:	fca057e3          	blez	a0,3ff4 <__divdf3+0x1c6>
    402a:	0078f793          	andi	a5,a7,7
    402e:	28079663          	bnez	a5,42ba <__divdf3+0x48c>
    4032:	0038d693          	srli	a3,a7,0x3
    4036:	00771793          	slli	a5,a4,0x7
    403a:	0007d863          	bgez	a5,404a <__divdf3+0x21c>
    403e:	ff0007b7          	lui	a5,0xff000
    4042:	17fd                	addi	a5,a5,-1
    4044:	8f7d                	and	a4,a4,a5
    4046:	40048513          	addi	a0,s1,1024
    404a:	7fe00793          	li	a5,2046
    404e:	eaa7c3e3          	blt	a5,a0,3ef4 <__divdf3+0xc6>
    4052:	01d71613          	slli	a2,a4,0x1d
    4056:	00971793          	slli	a5,a4,0x9
    405a:	83b1                	srli	a5,a5,0xc
    405c:	00d66733          	or	a4,a2,a3
    4060:	7ff57613          	andi	a2,a0,2047
    4064:	bd61                	j	3efc <__divdf3+0xce>
    4066:	86d6                	mv	a3,s5
    4068:	8752                	mv	a4,s4
    406a:	88da                	mv	a7,s6
    406c:	85de                	mv	a1,s7
    406e:	b745                	j	400e <__divdf3+0x1e0>
    4070:	23476163          	bltu	a4,s4,4292 <__divdf3+0x464>
    4074:	20ea0d63          	beq	s4,a4,428e <__divdf3+0x460>
    4078:	86da                	mv	a3,s6
    407a:	14fd                	addi	s1,s1,-1
    407c:	8452                	mv	s0,s4
    407e:	4b01                	li	s6,0
    4080:	00871793          	slli	a5,a4,0x8
    4084:	0188d313          	srli	t1,a7,0x18
    4088:	00f36333          	or	t1,t1,a5
    408c:	01035e93          	srli	t4,t1,0x10
    4090:	03d457b3          	divu	a5,s0,t4
    4094:	01031f13          	slli	t5,t1,0x10
    4098:	010f5f13          	srli	t5,t5,0x10
    409c:	0106d593          	srli	a1,a3,0x10
    40a0:	00889e13          	slli	t3,a7,0x8
    40a4:	03d47433          	remu	s0,s0,t4
    40a8:	02ff0733          	mul	a4,t5,a5
    40ac:	0442                	slli	s0,s0,0x10
    40ae:	8dc1                	or	a1,a1,s0
    40b0:	00e5fb63          	bgeu	a1,a4,40c6 <__divdf3+0x298>
    40b4:	959a                	add	a1,a1,t1
    40b6:	fff78613          	addi	a2,a5,-1 # feffffff <_eusrstack+0xdeff7fff>
    40ba:	2665ee63          	bltu	a1,t1,4336 <__divdf3+0x508>
    40be:	26e5fc63          	bgeu	a1,a4,4336 <__divdf3+0x508>
    40c2:	17f9                	addi	a5,a5,-2
    40c4:	959a                	add	a1,a1,t1
    40c6:	8d99                	sub	a1,a1,a4
    40c8:	03d5d733          	divu	a4,a1,t4
    40cc:	06c2                	slli	a3,a3,0x10
    40ce:	82c1                	srli	a3,a3,0x10
    40d0:	03d5f5b3          	remu	a1,a1,t4
    40d4:	02ef0633          	mul	a2,t5,a4
    40d8:	05c2                	slli	a1,a1,0x10
    40da:	8dd5                	or	a1,a1,a3
    40dc:	00c5fb63          	bgeu	a1,a2,40f2 <__divdf3+0x2c4>
    40e0:	959a                	add	a1,a1,t1
    40e2:	fff70693          	addi	a3,a4,-1 # 7fffff <_data_lma+0x7f2dab>
    40e6:	2465e663          	bltu	a1,t1,4332 <__divdf3+0x504>
    40ea:	24c5f463          	bgeu	a1,a2,4332 <__divdf3+0x504>
    40ee:	1779                	addi	a4,a4,-2
    40f0:	959a                	add	a1,a1,t1
    40f2:	07c2                	slli	a5,a5,0x10
    40f4:	6441                	lui	s0,0x10
    40f6:	8f5d                	or	a4,a4,a5
    40f8:	fff40793          	addi	a5,s0,-1 # ffff <_data_lma+0x2dab>
    40fc:	00f77533          	and	a0,a4,a5
    4100:	01075893          	srli	a7,a4,0x10
    4104:	010e5f93          	srli	t6,t3,0x10
    4108:	00fe77b3          	and	a5,t3,a5
    410c:	02f502b3          	mul	t0,a0,a5
    4110:	40c586b3          	sub	a3,a1,a2
    4114:	02f883b3          	mul	t2,a7,a5
    4118:	0102d593          	srli	a1,t0,0x10
    411c:	02af8633          	mul	a2,t6,a0
    4120:	961e                	add	a2,a2,t2
    4122:	962e                	add	a2,a2,a1
    4124:	03f88533          	mul	a0,a7,t6
    4128:	00767363          	bgeu	a2,t2,412e <__divdf3+0x300>
    412c:	9522                	add	a0,a0,s0
    412e:	68c1                	lui	a7,0x10
    4130:	18fd                	addi	a7,a7,-1
    4132:	01065593          	srli	a1,a2,0x10
    4136:	01167633          	and	a2,a2,a7
    413a:	0642                	slli	a2,a2,0x10
    413c:	0112f8b3          	and	a7,t0,a7
    4140:	95aa                	add	a1,a1,a0
    4142:	9646                	add	a2,a2,a7
    4144:	12b6e663          	bltu	a3,a1,4270 <__divdf3+0x442>
    4148:	12b68263          	beq	a3,a1,426c <__divdf3+0x43e>
    414c:	40cb0633          	sub	a2,s6,a2
    4150:	8e8d                	sub	a3,a3,a1
    4152:	00cb3b33          	sltu	s6,s6,a2
    4156:	41668b33          	sub	s6,a3,s6
    415a:	3ff48513          	addi	a0,s1,1023
    415e:	17630c63          	beq	t1,s6,42d6 <__divdf3+0x4a8>
    4162:	03db58b3          	divu	a7,s6,t4
    4166:	01065593          	srli	a1,a2,0x10
    416a:	03db7b33          	remu	s6,s6,t4
    416e:	031f06b3          	mul	a3,t5,a7
    4172:	0b42                	slli	s6,s6,0x10
    4174:	0165eb33          	or	s6,a1,s6
    4178:	00db7b63          	bgeu	s6,a3,418e <__divdf3+0x360>
    417c:	9b1a                	add	s6,s6,t1
    417e:	fff88593          	addi	a1,a7,-1 # ffff <_data_lma+0x2dab>
    4182:	206b6d63          	bltu	s6,t1,439c <__divdf3+0x56e>
    4186:	20db7b63          	bgeu	s6,a3,439c <__divdf3+0x56e>
    418a:	18f9                	addi	a7,a7,-2
    418c:	9b1a                	add	s6,s6,t1
    418e:	40db0b33          	sub	s6,s6,a3
    4192:	03db56b3          	divu	a3,s6,t4
    4196:	0642                	slli	a2,a2,0x10
    4198:	8241                	srli	a2,a2,0x10
    419a:	03db7b33          	remu	s6,s6,t4
    419e:	02df0f33          	mul	t5,t5,a3
    41a2:	0b42                	slli	s6,s6,0x10
    41a4:	01666633          	or	a2,a2,s6
    41a8:	01e67b63          	bgeu	a2,t5,41be <__divdf3+0x390>
    41ac:	961a                	add	a2,a2,t1
    41ae:	fff68593          	addi	a1,a3,-1 # 7fffff <_data_lma+0x7f2dab>
    41b2:	1e666763          	bltu	a2,t1,43a0 <__divdf3+0x572>
    41b6:	1fe67563          	bgeu	a2,t5,43a0 <__divdf3+0x572>
    41ba:	16f9                	addi	a3,a3,-2
    41bc:	961a                	add	a2,a2,t1
    41be:	08c2                	slli	a7,a7,0x10
    41c0:	00d8e8b3          	or	a7,a7,a3
    41c4:	01089593          	slli	a1,a7,0x10
    41c8:	0108d293          	srli	t0,a7,0x10
    41cc:	81c1                	srli	a1,a1,0x10
    41ce:	02f58eb3          	mul	t4,a1,a5
    41d2:	41e60633          	sub	a2,a2,t5
    41d6:	02bf85b3          	mul	a1,t6,a1
    41da:	010ed693          	srli	a3,t4,0x10
    41de:	02f287b3          	mul	a5,t0,a5
    41e2:	95be                	add	a1,a1,a5
    41e4:	96ae                	add	a3,a3,a1
    41e6:	025f8fb3          	mul	t6,t6,t0
    41ea:	00f6f463          	bgeu	a3,a5,41f2 <__divdf3+0x3c4>
    41ee:	67c1                	lui	a5,0x10
    41f0:	9fbe                	add	t6,t6,a5
    41f2:	65c1                	lui	a1,0x10
    41f4:	15fd                	addi	a1,a1,-1
    41f6:	0106d793          	srli	a5,a3,0x10
    41fa:	8eed                	and	a3,a3,a1
    41fc:	06c2                	slli	a3,a3,0x10
    41fe:	00befeb3          	and	t4,t4,a1
    4202:	9fbe                	add	t6,t6,a5
    4204:	96f6                	add	a3,a3,t4
    4206:	09f67f63          	bgeu	a2,t6,42a4 <__divdf3+0x476>
    420a:	961a                	add	a2,a2,t1
    420c:	fff88793          	addi	a5,a7,-1
    4210:	1a666963          	bltu	a2,t1,43c2 <__divdf3+0x594>
    4214:	19f66863          	bltu	a2,t6,43a4 <__divdf3+0x576>
    4218:	1bf60f63          	beq	a2,t6,43d6 <__divdf3+0x5a8>
    421c:	88be                	mv	a7,a5
    421e:	0018e893          	ori	a7,a7,1
    4222:	b511                	j	4026 <__divdf3+0x1f8>
    4224:	854a                	mv	a0,s2
    4226:	603010ef          	jal	ra,6028 <__clzsi2>
    422a:	01550713          	addi	a4,a0,21
    422e:	45f1                	li	a1,28
    4230:	02050493          	addi	s1,a0,32
    4234:	4622                	lw	a2,8(sp)
    4236:	46b2                	lw	a3,12(sp)
    4238:	d4e5dae3          	bge	a1,a4,3f8c <__divdf3+0x15e>
    423c:	ff850413          	addi	s0,a0,-8
    4240:	00891a33          	sll	s4,s2,s0
    4244:	4b01                	li	s6,0
    4246:	b385                	j	3fa6 <__divdf3+0x178>
    4248:	8532                	mv	a0,a2
    424a:	c432                	sw	a2,8(sp)
    424c:	5dd010ef          	jal	ra,6028 <__clzsi2>
    4250:	01550713          	addi	a4,a0,21
    4254:	46f1                	li	a3,28
    4256:	87aa                	mv	a5,a0
    4258:	4622                	lw	a2,8(sp)
    425a:	02050513          	addi	a0,a0,32
    425e:	cee6d6e3          	bge	a3,a4,3f4a <__divdf3+0x11c>
    4262:	17e1                	addi	a5,a5,-8
    4264:	00f61733          	sll	a4,a2,a5
    4268:	4881                	li	a7,0
    426a:	b9e5                	j	3f62 <__divdf3+0x134>
    426c:	eecb70e3          	bgeu	s6,a2,414c <__divdf3+0x31e>
    4270:	9b72                	add	s6,s6,t3
    4272:	01cb3533          	sltu	a0,s6,t3
    4276:	951a                	add	a0,a0,t1
    4278:	96aa                	add	a3,a3,a0
    427a:	fff70513          	addi	a0,a4,-1
    427e:	02d37863          	bgeu	t1,a3,42ae <__divdf3+0x480>
    4282:	10b6e663          	bltu	a3,a1,438e <__divdf3+0x560>
    4286:	10d58263          	beq	a1,a3,438a <__divdf3+0x55c>
    428a:	872a                	mv	a4,a0
    428c:	b5c1                	j	414c <__divdf3+0x31e>
    428e:	df1b65e3          	bltu	s6,a7,4078 <__divdf3+0x24a>
    4292:	001b5593          	srli	a1,s6,0x1
    4296:	01fa1693          	slli	a3,s4,0x1f
    429a:	001a5413          	srli	s0,s4,0x1
    429e:	8ecd                	or	a3,a3,a1
    42a0:	0b7e                	slli	s6,s6,0x1f
    42a2:	bbf9                	j	4080 <__divdf3+0x252>
    42a4:	f7f61de3          	bne	a2,t6,421e <__divdf3+0x3f0>
    42a8:	d6068fe3          	beqz	a3,4026 <__divdf3+0x1f8>
    42ac:	bfb9                	j	420a <__divdf3+0x3dc>
    42ae:	fcd31ee3          	bne	t1,a3,428a <__divdf3+0x45c>
    42b2:	fdcb78e3          	bgeu	s6,t3,4282 <__divdf3+0x454>
    42b6:	872a                	mv	a4,a0
    42b8:	bd51                	j	414c <__divdf3+0x31e>
    42ba:	00f8f793          	andi	a5,a7,15
    42be:	4691                	li	a3,4
    42c0:	d6d789e3          	beq	a5,a3,4032 <__divdf3+0x204>
    42c4:	ffc8b793          	sltiu	a5,a7,-4
    42c8:	00488693          	addi	a3,a7,4
    42cc:	0017c793          	xori	a5,a5,1
    42d0:	828d                	srli	a3,a3,0x3
    42d2:	973e                	add	a4,a4,a5
    42d4:	b38d                	j	4036 <__divdf3+0x208>
    42d6:	4681                	li	a3,0
    42d8:	4785                	li	a5,1
    42da:	fea04ce3          	bgtz	a0,42d2 <__divdf3+0x4a4>
    42de:	58fd                	li	a7,-1
    42e0:	d0051ce3          	bnez	a0,3ff8 <__divdf3+0x1ca>
    42e4:	c0100493          	li	s1,-1023
    42e8:	4785                	li	a5,1
    42ea:	41e48513          	addi	a0,s1,1054
    42ee:	00a716b3          	sll	a3,a4,a0
    42f2:	00f8d633          	srl	a2,a7,a5
    42f6:	00a89533          	sll	a0,a7,a0
    42fa:	8ed1                	or	a3,a3,a2
    42fc:	00a03533          	snez	a0,a0
    4300:	8ec9                	or	a3,a3,a0
    4302:	0076f613          	andi	a2,a3,7
    4306:	00f75733          	srl	a4,a4,a5
    430a:	ce01                	beqz	a2,4322 <__divdf3+0x4f4>
    430c:	00f6f793          	andi	a5,a3,15
    4310:	4611                	li	a2,4
    4312:	00c78863          	beq	a5,a2,4322 <__divdf3+0x4f4>
    4316:	00468793          	addi	a5,a3,4
    431a:	00d7b6b3          	sltu	a3,a5,a3
    431e:	9736                	add	a4,a4,a3
    4320:	86be                	mv	a3,a5
    4322:	00871793          	slli	a5,a4,0x8
    4326:	0407d863          	bgez	a5,4376 <__divdf3+0x548>
    432a:	4605                	li	a2,1
    432c:	4781                	li	a5,0
    432e:	4701                	li	a4,0
    4330:	b6f1                	j	3efc <__divdf3+0xce>
    4332:	8736                	mv	a4,a3
    4334:	bb7d                	j	40f2 <__divdf3+0x2c4>
    4336:	87b2                	mv	a5,a2
    4338:	b379                	j	40c6 <__divdf3+0x298>
    433a:	46fd                	li	a3,31
    433c:	faf6d7e3          	bge	a3,a5,42ea <__divdf3+0x4bc>
    4340:	5605                	li	a2,-31
    4342:	8e09                	sub	a2,a2,a0
    4344:	02000693          	li	a3,32
    4348:	00c75633          	srl	a2,a4,a2
    434c:	00d78863          	beq	a5,a3,435c <__divdf3+0x52e>
    4350:	43e48793          	addi	a5,s1,1086
    4354:	00f717b3          	sll	a5,a4,a5
    4358:	00f8e8b3          	or	a7,a7,a5
    435c:	011036b3          	snez	a3,a7
    4360:	8ed1                	or	a3,a3,a2
    4362:	0076f613          	andi	a2,a3,7
    4366:	4781                	li	a5,0
    4368:	ce01                	beqz	a2,4380 <__divdf3+0x552>
    436a:	00f6f793          	andi	a5,a3,15
    436e:	4611                	li	a2,4
    4370:	4701                	li	a4,0
    4372:	fac792e3          	bne	a5,a2,4316 <__divdf3+0x4e8>
    4376:	00971793          	slli	a5,a4,0x9
    437a:	01d71613          	slli	a2,a4,0x1d
    437e:	83b1                	srli	a5,a5,0xc
    4380:	0036d713          	srli	a4,a3,0x3
    4384:	8f51                	or	a4,a4,a2
    4386:	4601                	li	a2,0
    4388:	be95                	j	3efc <__divdf3+0xce>
    438a:	f0cb70e3          	bgeu	s6,a2,428a <__divdf3+0x45c>
    438e:	9b72                	add	s6,s6,t3
    4390:	01cb3533          	sltu	a0,s6,t3
    4394:	951a                	add	a0,a0,t1
    4396:	1779                	addi	a4,a4,-2
    4398:	96aa                	add	a3,a3,a0
    439a:	bb4d                	j	414c <__divdf3+0x31e>
    439c:	88ae                	mv	a7,a1
    439e:	bbc5                	j	418e <__divdf3+0x360>
    43a0:	86ae                	mv	a3,a1
    43a2:	bd31                	j	41be <__divdf3+0x390>
    43a4:	001e1793          	slli	a5,t3,0x1
    43a8:	01c7be33          	sltu	t3,a5,t3
    43ac:	9372                	add	t1,t1,t3
    43ae:	961a                	add	a2,a2,t1
    43b0:	18f9                	addi	a7,a7,-2
    43b2:	8e3e                	mv	t3,a5
    43b4:	e7f615e3          	bne	a2,t6,421e <__divdf3+0x3f0>
    43b8:	c6de07e3          	beq	t3,a3,4026 <__divdf3+0x1f8>
    43bc:	0018e893          	ori	a7,a7,1
    43c0:	b19d                	j	4026 <__divdf3+0x1f8>
    43c2:	88be                	mv	a7,a5
    43c4:	fff60ae3          	beq	a2,t6,43b8 <__divdf3+0x58a>
    43c8:	bd99                	j	421e <__divdf3+0x3f0>
    43ca:	8836                	mv	a6,a3
    43cc:	7ff00613          	li	a2,2047
    43d0:	4781                	li	a5,0
    43d2:	4701                	li	a4,0
    43d4:	b625                	j	3efc <__divdf3+0xce>
    43d6:	fcde67e3          	bltu	t3,a3,43a4 <__divdf3+0x576>
    43da:	88be                	mv	a7,a5
    43dc:	fede10e3          	bne	t3,a3,43bc <__divdf3+0x58e>
    43e0:	b199                	j	4026 <__divdf3+0x1f8>

000043e2 <__ledf2>:
    43e2:	0145d713          	srli	a4,a1,0x14
    43e6:	001007b7          	lui	a5,0x100
    43ea:	17fd                	addi	a5,a5,-1
    43ec:	0146d813          	srli	a6,a3,0x14
    43f0:	7ff77713          	andi	a4,a4,2047
    43f4:	7ff00893          	li	a7,2047
    43f8:	00b7fe33          	and	t3,a5,a1
    43fc:	8eaa                	mv	t4,a0
    43fe:	8ff5                	and	a5,a5,a3
    4400:	81fd                	srli	a1,a1,0x1f
    4402:	8f32                	mv	t5,a2
    4404:	7ff87813          	andi	a6,a6,2047
    4408:	82fd                	srli	a3,a3,0x1f
    440a:	03170e63          	beq	a4,a7,4446 <__ledf2+0x64>
    440e:	01180d63          	beq	a6,a7,4428 <__ledf2+0x46>
    4412:	e329                	bnez	a4,4454 <__ledf2+0x72>
    4414:	00ae68b3          	or	a7,t3,a0
    4418:	00081f63          	bnez	a6,4436 <__ledf2+0x54>
    441c:	8e5d                	or	a2,a2,a5
    441e:	ee01                	bnez	a2,4436 <__ledf2+0x54>
    4420:	4301                	li	t1,0
    4422:	04088c63          	beqz	a7,447a <__ledf2+0x98>
    4426:	a821                	j	443e <__ledf2+0x5c>
    4428:	00c7e8b3          	or	a7,a5,a2
    442c:	4309                	li	t1,2
    442e:	04089663          	bnez	a7,447a <__ledf2+0x98>
    4432:	d36d                	beqz	a4,4414 <__ledf2+0x32>
    4434:	a005                	j	4454 <__ledf2+0x72>
    4436:	04088463          	beqz	a7,447e <__ledf2+0x9c>
    443a:	02d58563          	beq	a1,a3,4464 <__ledf2+0x82>
    443e:	4305                	li	t1,1
    4440:	cd8d                	beqz	a1,447a <__ledf2+0x98>
    4442:	537d                	li	t1,-1
    4444:	a81d                	j	447a <__ledf2+0x98>
    4446:	00ae68b3          	or	a7,t3,a0
    444a:	4309                	li	t1,2
    444c:	02089763          	bnez	a7,447a <__ledf2+0x98>
    4450:	02e80a63          	beq	a6,a4,4484 <__ledf2+0xa2>
    4454:	00081463          	bnez	a6,445c <__ledf2+0x7a>
    4458:	8e5d                	or	a2,a2,a5
    445a:	d275                	beqz	a2,443e <__ledf2+0x5c>
    445c:	fed591e3          	bne	a1,a3,443e <__ledf2+0x5c>
    4460:	fce84fe3          	blt	a6,a4,443e <__ledf2+0x5c>
    4464:	01074963          	blt	a4,a6,4476 <__ledf2+0x94>
    4468:	fdc7ebe3          	bltu	a5,t3,443e <__ledf2+0x5c>
    446c:	00fe0f63          	beq	t3,a5,448a <__ledf2+0xa8>
    4470:	4301                	li	t1,0
    4472:	00fe7463          	bgeu	t3,a5,447a <__ledf2+0x98>
    4476:	d5f1                	beqz	a1,4442 <__ledf2+0x60>
    4478:	4305                	li	t1,1
    447a:	851a                	mv	a0,t1
    447c:	8082                	ret
    447e:	feed                	bnez	a3,4478 <__ledf2+0x96>
    4480:	537d                	li	t1,-1
    4482:	bfe5                	j	447a <__ledf2+0x98>
    4484:	8e5d                	or	a2,a2,a5
    4486:	da79                	beqz	a2,445c <__ledf2+0x7a>
    4488:	bfcd                	j	447a <__ledf2+0x98>
    448a:	fbdf6ae3          	bltu	t5,t4,443e <__ledf2+0x5c>
    448e:	4301                	li	t1,0
    4490:	ffeef5e3          	bgeu	t4,t5,447a <__ledf2+0x98>
    4494:	f1f5                	bnez	a1,4478 <__ledf2+0x96>
    4496:	b775                	j	4442 <__ledf2+0x60>

00004498 <__muldf3>:
    4498:	7139                	addi	sp,sp,-64
    449a:	d84a                	sw	s2,48(sp)
    449c:	0145d913          	srli	s2,a1,0x14
    44a0:	d64e                	sw	s3,44(sp)
    44a2:	d452                	sw	s4,40(sp)
    44a4:	d256                	sw	s5,36(sp)
    44a6:	00c59993          	slli	s3,a1,0xc
    44aa:	de06                	sw	ra,60(sp)
    44ac:	dc22                	sw	s0,56(sp)
    44ae:	da26                	sw	s1,52(sp)
    44b0:	d05a                	sw	s6,32(sp)
    44b2:	ce5e                	sw	s7,28(sp)
    44b4:	7ff97913          	andi	s2,s2,2047
    44b8:	8a2a                	mv	s4,a0
    44ba:	00c9d993          	srli	s3,s3,0xc
    44be:	01f5da93          	srli	s5,a1,0x1f
    44c2:	0e090d63          	beqz	s2,45bc <__muldf3+0x124>
    44c6:	7ff00793          	li	a5,2047
    44ca:	18f90663          	beq	s2,a5,4656 <__muldf3+0x1be>
    44ce:	01d55413          	srli	s0,a0,0x1d
    44d2:	098e                	slli	s3,s3,0x3
    44d4:	013469b3          	or	s3,s0,s3
    44d8:	00800437          	lui	s0,0x800
    44dc:	0089e433          	or	s0,s3,s0
    44e0:	00351493          	slli	s1,a0,0x3
    44e4:	c0190913          	addi	s2,s2,-1023
    44e8:	4981                	li	s3,0
    44ea:	4b81                	li	s7,0
    44ec:	0146d713          	srli	a4,a3,0x14
    44f0:	00c69a13          	slli	s4,a3,0xc
    44f4:	7ff77713          	andi	a4,a4,2047
    44f8:	85b2                	mv	a1,a2
    44fa:	00ca5a13          	srli	s4,s4,0xc
    44fe:	01f6db13          	srli	s6,a3,0x1f
    4502:	10070b63          	beqz	a4,4618 <__muldf3+0x180>
    4506:	7ff00793          	li	a5,2047
    450a:	04f70363          	beq	a4,a5,4550 <__muldf3+0xb8>
    450e:	01d65793          	srli	a5,a2,0x1d
    4512:	0a0e                	slli	s4,s4,0x3
    4514:	0147ea33          	or	s4,a5,s4
    4518:	c0170713          	addi	a4,a4,-1023
    451c:	008007b7          	lui	a5,0x800
    4520:	00fa67b3          	or	a5,s4,a5
    4524:	00361593          	slli	a1,a2,0x3
    4528:	993a                	add	s2,s2,a4
    452a:	4881                	li	a7,0
    452c:	016ac733          	xor	a4,s5,s6
    4530:	46bd                	li	a3,15
    4532:	853a                	mv	a0,a4
    4534:	00190813          	addi	a6,s2,1
    4538:	1736e863          	bltu	a3,s3,46a8 <__muldf3+0x210>
    453c:	00008617          	auipc	a2,0x8
    4540:	74860613          	addi	a2,a2,1864 # cc84 <u8x8_ssd1306_128x64_noname_display_info+0x1d8>
    4544:	098a                	slli	s3,s3,0x2
    4546:	99b2                	add	s3,s3,a2
    4548:	0009a683          	lw	a3,0(s3)
    454c:	96b2                	add	a3,a3,a2
    454e:	8682                	jr	a3
    4550:	00ca67b3          	or	a5,s4,a2
    4554:	7ff90913          	addi	s2,s2,2047
    4558:	12079963          	bnez	a5,468a <__muldf3+0x1f2>
    455c:	0029e993          	ori	s3,s3,2
    4560:	4581                	li	a1,0
    4562:	4889                	li	a7,2
    4564:	b7e1                	j	452c <__muldf3+0x94>
    4566:	4701                	li	a4,0
    4568:	7ff00793          	li	a5,2047
    456c:	00080437          	lui	s0,0x80
    4570:	4481                	li	s1,0
    4572:	0432                	slli	s0,s0,0xc
    4574:	07d2                	slli	a5,a5,0x14
    4576:	8031                	srli	s0,s0,0xc
    4578:	077e                	slli	a4,a4,0x1f
    457a:	8c5d                	or	s0,s0,a5
    457c:	8c59                	or	s0,s0,a4
    457e:	85a2                	mv	a1,s0
    4580:	50f2                	lw	ra,60(sp)
    4582:	5462                	lw	s0,56(sp)
    4584:	8526                	mv	a0,s1
    4586:	5942                	lw	s2,48(sp)
    4588:	54d2                	lw	s1,52(sp)
    458a:	59b2                	lw	s3,44(sp)
    458c:	5a22                	lw	s4,40(sp)
    458e:	5a92                	lw	s5,36(sp)
    4590:	5b02                	lw	s6,32(sp)
    4592:	4bf2                	lw	s7,28(sp)
    4594:	6121                	addi	sp,sp,64
    4596:	8082                	ret
    4598:	855a                	mv	a0,s6
    459a:	843e                	mv	s0,a5
    459c:	84ae                	mv	s1,a1
    459e:	8bc6                	mv	s7,a7
    45a0:	4789                	li	a5,2
    45a2:	0efb8d63          	beq	s7,a5,469c <__muldf3+0x204>
    45a6:	478d                	li	a5,3
    45a8:	fafb8fe3          	beq	s7,a5,4566 <__muldf3+0xce>
    45ac:	4785                	li	a5,1
    45ae:	872a                	mv	a4,a0
    45b0:	38fb9e63          	bne	s7,a5,494c <__muldf3+0x4b4>
    45b4:	4781                	li	a5,0
    45b6:	4401                	li	s0,0
    45b8:	4481                	li	s1,0
    45ba:	bf65                	j	4572 <__muldf3+0xda>
    45bc:	00a9e433          	or	s0,s3,a0
    45c0:	c061                	beqz	s0,4680 <__muldf3+0x1e8>
    45c2:	c636                	sw	a3,12(sp)
    45c4:	c432                	sw	a2,8(sp)
    45c6:	2a098c63          	beqz	s3,487e <__muldf3+0x3e6>
    45ca:	854e                	mv	a0,s3
    45cc:	25d010ef          	jal	ra,6028 <__clzsi2>
    45d0:	4622                	lw	a2,8(sp)
    45d2:	46b2                	lw	a3,12(sp)
    45d4:	87aa                	mv	a5,a0
    45d6:	ff550713          	addi	a4,a0,-11
    45da:	4475                	li	s0,29
    45dc:	ff878493          	addi	s1,a5,-8 # 7ffff8 <_data_lma+0x7f2da4>
    45e0:	8c19                	sub	s0,s0,a4
    45e2:	009999b3          	sll	s3,s3,s1
    45e6:	008a5433          	srl	s0,s4,s0
    45ea:	01346433          	or	s0,s0,s3
    45ee:	009a14b3          	sll	s1,s4,s1
    45f2:	0146d713          	srli	a4,a3,0x14
    45f6:	c0d00913          	li	s2,-1011
    45fa:	00c69a13          	slli	s4,a3,0xc
    45fe:	7ff77713          	andi	a4,a4,2047
    4602:	40f90933          	sub	s2,s2,a5
    4606:	4981                	li	s3,0
    4608:	4b81                	li	s7,0
    460a:	85b2                	mv	a1,a2
    460c:	00ca5a13          	srli	s4,s4,0xc
    4610:	01f6db13          	srli	s6,a3,0x1f
    4614:	ee0719e3          	bnez	a4,4506 <__muldf3+0x6e>
    4618:	00ca67b3          	or	a5,s4,a2
    461c:	c7b1                	beqz	a5,4668 <__muldf3+0x1d0>
    461e:	220a0f63          	beqz	s4,485c <__muldf3+0x3c4>
    4622:	8552                	mv	a0,s4
    4624:	c432                	sw	a2,8(sp)
    4626:	203010ef          	jal	ra,6028 <__clzsi2>
    462a:	4622                	lw	a2,8(sp)
    462c:	872a                	mv	a4,a0
    462e:	ff550693          	addi	a3,a0,-11
    4632:	47f5                	li	a5,29
    4634:	ff870593          	addi	a1,a4,-8
    4638:	8f95                	sub	a5,a5,a3
    463a:	00ba1a33          	sll	s4,s4,a1
    463e:	00f657b3          	srl	a5,a2,a5
    4642:	0147e7b3          	or	a5,a5,s4
    4646:	00b615b3          	sll	a1,a2,a1
    464a:	40e90933          	sub	s2,s2,a4
    464e:	c0d90913          	addi	s2,s2,-1011
    4652:	4881                	li	a7,0
    4654:	bde1                	j	452c <__muldf3+0x94>
    4656:	00a9e433          	or	s0,s3,a0
    465a:	ec01                	bnez	s0,4672 <__muldf3+0x1da>
    465c:	49a1                	li	s3,8
    465e:	4481                	li	s1,0
    4660:	7ff00913          	li	s2,2047
    4664:	4b89                	li	s7,2
    4666:	b559                	j	44ec <__muldf3+0x54>
    4668:	0019e993          	ori	s3,s3,1
    466c:	4581                	li	a1,0
    466e:	4885                	li	a7,1
    4670:	bd75                	j	452c <__muldf3+0x94>
    4672:	844e                	mv	s0,s3
    4674:	84aa                	mv	s1,a0
    4676:	49b1                	li	s3,12
    4678:	7ff00913          	li	s2,2047
    467c:	4b8d                	li	s7,3
    467e:	b5bd                	j	44ec <__muldf3+0x54>
    4680:	4991                	li	s3,4
    4682:	4481                	li	s1,0
    4684:	4901                	li	s2,0
    4686:	4b85                	li	s7,1
    4688:	b595                	j	44ec <__muldf3+0x54>
    468a:	0039e993          	ori	s3,s3,3
    468e:	87d2                	mv	a5,s4
    4690:	488d                	li	a7,3
    4692:	bd69                	j	452c <__muldf3+0x94>
    4694:	4789                	li	a5,2
    4696:	8556                	mv	a0,s5
    4698:	f0fb97e3          	bne	s7,a5,45a6 <__muldf3+0x10e>
    469c:	872a                	mv	a4,a0
    469e:	7ff00793          	li	a5,2047
    46a2:	4401                	li	s0,0
    46a4:	4481                	li	s1,0
    46a6:	b5f1                	j	4572 <__muldf3+0xda>
    46a8:	6ec1                	lui	t4,0x10
    46aa:	fffe8613          	addi	a2,t4,-1 # ffff <_data_lma+0x2dab>
    46ae:	0104d693          	srli	a3,s1,0x10
    46b2:	0105de13          	srli	t3,a1,0x10
    46b6:	8cf1                	and	s1,s1,a2
    46b8:	8df1                	and	a1,a1,a2
    46ba:	02958633          	mul	a2,a1,s1
    46be:	02b68333          	mul	t1,a3,a1
    46c2:	01065893          	srli	a7,a2,0x10
    46c6:	029e0533          	mul	a0,t3,s1
    46ca:	951a                	add	a0,a0,t1
    46cc:	98aa                	add	a7,a7,a0
    46ce:	03c682b3          	mul	t0,a3,t3
    46d2:	0068f363          	bgeu	a7,t1,46d8 <__muldf3+0x240>
    46d6:	92f6                	add	t0,t0,t4
    46d8:	6fc1                	lui	t6,0x10
    46da:	ffff8313          	addi	t1,t6,-1 # ffff <_data_lma+0x2dab>
    46de:	0067f533          	and	a0,a5,t1
    46e2:	0107d393          	srli	t2,a5,0x10
    46e6:	0068f7b3          	and	a5,a7,t1
    46ea:	07c2                	slli	a5,a5,0x10
    46ec:	00667333          	and	t1,a2,t1
    46f0:	933e                	add	t1,t1,a5
    46f2:	02950633          	mul	a2,a0,s1
    46f6:	0108d893          	srli	a7,a7,0x10
    46fa:	02a687b3          	mul	a5,a3,a0
    46fe:	01065f13          	srli	t5,a2,0x10
    4702:	029384b3          	mul	s1,t2,s1
    4706:	94be                	add	s1,s1,a5
    4708:	94fa                	add	s1,s1,t5
    470a:	02768eb3          	mul	t4,a3,t2
    470e:	00f4f363          	bgeu	s1,a5,4714 <__muldf3+0x27c>
    4712:	9efe                	add	t4,t4,t6
    4714:	6a41                	lui	s4,0x10
    4716:	fffa0793          	addi	a5,s4,-1 # ffff <_data_lma+0x2dab>
    471a:	01045f93          	srli	t6,s0,0x10
    471e:	00f476b3          	and	a3,s0,a5
    4722:	00f4f9b3          	and	s3,s1,a5
    4726:	8e7d                	and	a2,a2,a5
    4728:	80c1                	srli	s1,s1,0x10
    472a:	02d58433          	mul	s0,a1,a3
    472e:	09c2                	slli	s3,s3,0x10
    4730:	01d48f33          	add	t5,s1,t4
    4734:	99b2                	add	s3,s3,a2
    4736:	98ce                	add	a7,a7,s3
    4738:	02de07b3          	mul	a5,t3,a3
    473c:	01045e93          	srli	t4,s0,0x10
    4740:	02bf85b3          	mul	a1,t6,a1
    4744:	97ae                	add	a5,a5,a1
    4746:	9ebe                	add	t4,t4,a5
    4748:	03fe0e33          	mul	t3,t3,t6
    474c:	00bef363          	bgeu	t4,a1,4752 <__muldf3+0x2ba>
    4750:	9e52                	add	t3,t3,s4
    4752:	67c1                	lui	a5,0x10
    4754:	fff78593          	addi	a1,a5,-1 # ffff <_data_lma+0x2dab>
    4758:	00bef633          	and	a2,t4,a1
    475c:	8c6d                	and	s0,s0,a1
    475e:	0642                	slli	a2,a2,0x10
    4760:	9622                	add	a2,a2,s0
    4762:	010ede93          	srli	t4,t4,0x10
    4766:	02d505b3          	mul	a1,a0,a3
    476a:	9e76                	add	t3,t3,t4
    476c:	02af8533          	mul	a0,t6,a0
    4770:	0105d413          	srli	s0,a1,0x10
    4774:	02d386b3          	mul	a3,t2,a3
    4778:	96aa                	add	a3,a3,a0
    477a:	96a2                	add	a3,a3,s0
    477c:	03f38fb3          	mul	t6,t2,t6
    4780:	00a6f363          	bgeu	a3,a0,4786 <__muldf3+0x2ee>
    4784:	9fbe                	add	t6,t6,a5
    4786:	6541                	lui	a0,0x10
    4788:	157d                	addi	a0,a0,-1
    478a:	00a6f7b3          	and	a5,a3,a0
    478e:	07c2                	slli	a5,a5,0x10
    4790:	8d6d                	and	a0,a0,a1
    4792:	97aa                	add	a5,a5,a0
    4794:	005885b3          	add	a1,a7,t0
    4798:	0135b9b3          	sltu	s3,a1,s3
    479c:	97fa                	add	a5,a5,t5
    479e:	95b2                	add	a1,a1,a2
    47a0:	01378433          	add	s0,a5,s3
    47a4:	00c5b633          	sltu	a2,a1,a2
    47a8:	01c40eb3          	add	t4,s0,t3
    47ac:	00ce8533          	add	a0,t4,a2
    47b0:	01343433          	sltu	s0,s0,s3
    47b4:	01e7b7b3          	sltu	a5,a5,t5
    47b8:	8fc1                	or	a5,a5,s0
    47ba:	01cebe33          	sltu	t3,t4,t3
    47be:	0106d413          	srli	s0,a3,0x10
    47c2:	00c53633          	sltu	a2,a0,a2
    47c6:	943e                	add	s0,s0,a5
    47c8:	00ce6633          	or	a2,t3,a2
    47cc:	00959493          	slli	s1,a1,0x9
    47d0:	9432                	add	s0,s0,a2
    47d2:	947e                	add	s0,s0,t6
    47d4:	0064e4b3          	or	s1,s1,t1
    47d8:	0426                	slli	s0,s0,0x9
    47da:	01755693          	srli	a3,a0,0x17
    47de:	009034b3          	snez	s1,s1
    47e2:	81dd                	srli	a1,a1,0x17
    47e4:	00951793          	slli	a5,a0,0x9
    47e8:	8ccd                	or	s1,s1,a1
    47ea:	8c55                	or	s0,s0,a3
    47ec:	8cdd                	or	s1,s1,a5
    47ee:	00741793          	slli	a5,s0,0x7
    47f2:	0007db63          	bgez	a5,4808 <__muldf3+0x370>
    47f6:	0014d793          	srli	a5,s1,0x1
    47fa:	8885                	andi	s1,s1,1
    47fc:	01f41693          	slli	a3,s0,0x1f
    4800:	8cdd                	or	s1,s1,a5
    4802:	8cd5                	or	s1,s1,a3
    4804:	8005                	srli	s0,s0,0x1
    4806:	8942                	mv	s2,a6
    4808:	3ff90793          	addi	a5,s2,1023
    480c:	08f05963          	blez	a5,489e <__muldf3+0x406>
    4810:	0074f693          	andi	a3,s1,7
    4814:	ce81                	beqz	a3,482c <__muldf3+0x394>
    4816:	00f4f693          	andi	a3,s1,15
    481a:	4611                	li	a2,4
    481c:	00c68863          	beq	a3,a2,482c <__muldf3+0x394>
    4820:	00448693          	addi	a3,s1,4
    4824:	0096b4b3          	sltu	s1,a3,s1
    4828:	9426                	add	s0,s0,s1
    482a:	84b6                	mv	s1,a3
    482c:	00741693          	slli	a3,s0,0x7
    4830:	0006d863          	bgez	a3,4840 <__muldf3+0x3a8>
    4834:	ff0007b7          	lui	a5,0xff000
    4838:	17fd                	addi	a5,a5,-1
    483a:	8c7d                	and	s0,s0,a5
    483c:	40090793          	addi	a5,s2,1024
    4840:	7fe00693          	li	a3,2046
    4844:	0ef6cf63          	blt	a3,a5,4942 <__muldf3+0x4aa>
    4848:	0034d693          	srli	a3,s1,0x3
    484c:	01d41493          	slli	s1,s0,0x1d
    4850:	0426                	slli	s0,s0,0x9
    4852:	8cd5                	or	s1,s1,a3
    4854:	8031                	srli	s0,s0,0xc
    4856:	7ff7f793          	andi	a5,a5,2047
    485a:	bb21                	j	4572 <__muldf3+0xda>
    485c:	8532                	mv	a0,a2
    485e:	c432                	sw	a2,8(sp)
    4860:	7c8010ef          	jal	ra,6028 <__clzsi2>
    4864:	01550693          	addi	a3,a0,21 # 10015 <_data_lma+0x2dc1>
    4868:	47f1                	li	a5,28
    486a:	02050713          	addi	a4,a0,32
    486e:	4622                	lw	a2,8(sp)
    4870:	dcd7d1e3          	bge	a5,a3,4632 <__muldf3+0x19a>
    4874:	1561                	addi	a0,a0,-8
    4876:	00a617b3          	sll	a5,a2,a0
    487a:	4581                	li	a1,0
    487c:	b3f9                	j	464a <__muldf3+0x1b2>
    487e:	7aa010ef          	jal	ra,6028 <__clzsi2>
    4882:	01550713          	addi	a4,a0,21
    4886:	45f1                	li	a1,28
    4888:	02050793          	addi	a5,a0,32
    488c:	4622                	lw	a2,8(sp)
    488e:	46b2                	lw	a3,12(sp)
    4890:	d4e5d5e3          	bge	a1,a4,45da <__muldf3+0x142>
    4894:	1561                	addi	a0,a0,-8
    4896:	00aa1433          	sll	s0,s4,a0
    489a:	4481                	li	s1,0
    489c:	bb99                	j	45f2 <__muldf3+0x15a>
    489e:	4685                	li	a3,1
    48a0:	8e9d                	sub	a3,a3,a5
    48a2:	e7b1                	bnez	a5,48ee <__muldf3+0x456>
    48a4:	41e90913          	addi	s2,s2,1054
    48a8:	012497b3          	sll	a5,s1,s2
    48ac:	00d4d4b3          	srl	s1,s1,a3
    48b0:	01241933          	sll	s2,s0,s2
    48b4:	00f037b3          	snez	a5,a5
    48b8:	009964b3          	or	s1,s2,s1
    48bc:	8cdd                	or	s1,s1,a5
    48be:	0074f793          	andi	a5,s1,7
    48c2:	00d456b3          	srl	a3,s0,a3
    48c6:	cf81                	beqz	a5,48de <__muldf3+0x446>
    48c8:	00f4f793          	andi	a5,s1,15
    48cc:	4611                	li	a2,4
    48ce:	00c78863          	beq	a5,a2,48de <__muldf3+0x446>
    48d2:	00448793          	addi	a5,s1,4
    48d6:	0097b4b3          	sltu	s1,a5,s1
    48da:	96a6                	add	a3,a3,s1
    48dc:	84be                	mv	s1,a5
    48de:	00869793          	slli	a5,a3,0x8
    48e2:	0407d863          	bgez	a5,4932 <__muldf3+0x49a>
    48e6:	4785                	li	a5,1
    48e8:	4401                	li	s0,0
    48ea:	4481                	li	s1,0
    48ec:	b159                	j	4572 <__muldf3+0xda>
    48ee:	03800613          	li	a2,56
    48f2:	ccd641e3          	blt	a2,a3,45b4 <__muldf3+0x11c>
    48f6:	467d                	li	a2,31
    48f8:	fad656e3          	bge	a2,a3,48a4 <__muldf3+0x40c>
    48fc:	5605                	li	a2,-31
    48fe:	40f607b3          	sub	a5,a2,a5
    4902:	02000593          	li	a1,32
    4906:	00f45633          	srl	a2,s0,a5
    490a:	00b68763          	beq	a3,a1,4918 <__muldf3+0x480>
    490e:	43e90913          	addi	s2,s2,1086
    4912:	012417b3          	sll	a5,s0,s2
    4916:	8cdd                	or	s1,s1,a5
    4918:	009034b3          	snez	s1,s1
    491c:	8cd1                	or	s1,s1,a2
    491e:	0074f693          	andi	a3,s1,7
    4922:	4401                	li	s0,0
    4924:	ca99                	beqz	a3,493a <__muldf3+0x4a2>
    4926:	00f4f793          	andi	a5,s1,15
    492a:	4611                	li	a2,4
    492c:	4681                	li	a3,0
    492e:	fac792e3          	bne	a5,a2,48d2 <__muldf3+0x43a>
    4932:	00969413          	slli	s0,a3,0x9
    4936:	8031                	srli	s0,s0,0xc
    4938:	06f6                	slli	a3,a3,0x1d
    493a:	808d                	srli	s1,s1,0x3
    493c:	8cd5                	or	s1,s1,a3
    493e:	4781                	li	a5,0
    4940:	b90d                	j	4572 <__muldf3+0xda>
    4942:	7ff00793          	li	a5,2047
    4946:	4401                	li	s0,0
    4948:	4481                	li	s1,0
    494a:	b125                	j	4572 <__muldf3+0xda>
    494c:	8942                	mv	s2,a6
    494e:	bd6d                	j	4808 <__muldf3+0x370>

00004950 <__subdf3>:
    4950:	00100737          	lui	a4,0x100
    4954:	177d                	addi	a4,a4,-1
    4956:	1101                	addi	sp,sp,-32
    4958:	00b77333          	and	t1,a4,a1
    495c:	0146d893          	srli	a7,a3,0x14
    4960:	8f75                	and	a4,a4,a3
    4962:	01d65e93          	srli	t4,a2,0x1d
    4966:	cc22                	sw	s0,24(sp)
    4968:	ca26                	sw	s1,20(sp)
    496a:	030e                	slli	t1,t1,0x3
    496c:	0145d493          	srli	s1,a1,0x14
    4970:	01d55793          	srli	a5,a0,0x1d
    4974:	070e                	slli	a4,a4,0x3
    4976:	ce06                	sw	ra,28(sp)
    4978:	c84a                	sw	s2,16(sp)
    497a:	c64e                	sw	s3,12(sp)
    497c:	7ff8f893          	andi	a7,a7,2047
    4980:	7ff00e13          	li	t3,2047
    4984:	00eee733          	or	a4,t4,a4
    4988:	7ff4f493          	andi	s1,s1,2047
    498c:	01f5d413          	srli	s0,a1,0x1f
    4990:	0067e333          	or	t1,a5,t1
    4994:	00351f13          	slli	t5,a0,0x3
    4998:	82fd                	srli	a3,a3,0x1f
    499a:	00361e93          	slli	t4,a2,0x3
    499e:	19c88063          	beq	a7,t3,4b1e <__subdf3+0x1ce>
    49a2:	0016c693          	xori	a3,a3,1
    49a6:	411485b3          	sub	a1,s1,a7
    49aa:	12d40563          	beq	s0,a3,4ad4 <__subdf3+0x184>
    49ae:	18b05163          	blez	a1,4b30 <__subdf3+0x1e0>
    49b2:	1a088b63          	beqz	a7,4b68 <__subdf3+0x218>
    49b6:	008007b7          	lui	a5,0x800
    49ba:	8f5d                	or	a4,a4,a5
    49bc:	59c48163          	beq	s1,t3,4f3e <__subdf3+0x5ee>
    49c0:	03800793          	li	a5,56
    49c4:	34b7c463          	blt	a5,a1,4d0c <__subdf3+0x3bc>
    49c8:	47fd                	li	a5,31
    49ca:	48b7c563          	blt	a5,a1,4e54 <__subdf3+0x504>
    49ce:	02000793          	li	a5,32
    49d2:	8f8d                	sub	a5,a5,a1
    49d4:	00bed9b3          	srl	s3,t4,a1
    49d8:	00f71833          	sll	a6,a4,a5
    49dc:	00fe9eb3          	sll	t4,t4,a5
    49e0:	01386833          	or	a6,a6,s3
    49e4:	00b75733          	srl	a4,a4,a1
    49e8:	01d039b3          	snez	s3,t4
    49ec:	01386833          	or	a6,a6,s3
    49f0:	40e30333          	sub	t1,t1,a4
    49f4:	410f09b3          	sub	s3,t5,a6
    49f8:	013f37b3          	sltu	a5,t5,s3
    49fc:	40f30633          	sub	a2,t1,a5
    4a00:	00861793          	slli	a5,a2,0x8
    4a04:	2407d363          	bgez	a5,4c4a <__subdf3+0x2fa>
    4a08:	00800937          	lui	s2,0x800
    4a0c:	197d                	addi	s2,s2,-1
    4a0e:	01267933          	and	s2,a2,s2
    4a12:	2c090f63          	beqz	s2,4cf0 <__subdf3+0x3a0>
    4a16:	854a                	mv	a0,s2
    4a18:	610010ef          	jal	ra,6028 <__clzsi2>
    4a1c:	ff850713          	addi	a4,a0,-8
    4a20:	02000793          	li	a5,32
    4a24:	8f99                	sub	a5,a5,a4
    4a26:	00f9d7b3          	srl	a5,s3,a5
    4a2a:	00e91633          	sll	a2,s2,a4
    4a2e:	8fd1                	or	a5,a5,a2
    4a30:	00e999b3          	sll	s3,s3,a4
    4a34:	2a974463          	blt	a4,s1,4cdc <__subdf3+0x38c>
    4a38:	8f05                	sub	a4,a4,s1
    4a3a:	00170613          	addi	a2,a4,1 # 100001 <_data_lma+0xf2dad>
    4a3e:	46fd                	li	a3,31
    4a40:	3ac6c563          	blt	a3,a2,4dea <__subdf3+0x49a>
    4a44:	02000713          	li	a4,32
    4a48:	8f11                	sub	a4,a4,a2
    4a4a:	00c9d6b3          	srl	a3,s3,a2
    4a4e:	00e99833          	sll	a6,s3,a4
    4a52:	00e79733          	sll	a4,a5,a4
    4a56:	8f55                	or	a4,a4,a3
    4a58:	01003833          	snez	a6,a6
    4a5c:	010769b3          	or	s3,a4,a6
    4a60:	00c7d633          	srl	a2,a5,a2
    4a64:	4481                	li	s1,0
    4a66:	0079f793          	andi	a5,s3,7
    4a6a:	cf81                	beqz	a5,4a82 <__subdf3+0x132>
    4a6c:	00f9f693          	andi	a3,s3,15
    4a70:	4791                	li	a5,4
    4a72:	00f68863          	beq	a3,a5,4a82 <__subdf3+0x132>
    4a76:	00498693          	addi	a3,s3,4
    4a7a:	0136b833          	sltu	a6,a3,s3
    4a7e:	9642                	add	a2,a2,a6
    4a80:	89b6                	mv	s3,a3
    4a82:	00861793          	slli	a5,a2,0x8
    4a86:	1c07d663          	bgez	a5,4c52 <__subdf3+0x302>
    4a8a:	00148713          	addi	a4,s1,1
    4a8e:	7ff00793          	li	a5,2047
    4a92:	8805                	andi	s0,s0,1
    4a94:	20f70663          	beq	a4,a5,4ca0 <__subdf3+0x350>
    4a98:	ff8007b7          	lui	a5,0xff800
    4a9c:	17fd                	addi	a5,a5,-1
    4a9e:	8ff1                	and	a5,a5,a2
    4aa0:	01d79813          	slli	a6,a5,0x1d
    4aa4:	0039d993          	srli	s3,s3,0x3
    4aa8:	07a6                	slli	a5,a5,0x9
    4aaa:	01386833          	or	a6,a6,s3
    4aae:	83b1                	srli	a5,a5,0xc
    4ab0:	7ff77713          	andi	a4,a4,2047
    4ab4:	00c79693          	slli	a3,a5,0xc
    4ab8:	0752                	slli	a4,a4,0x14
    4aba:	82b1                	srli	a3,a3,0xc
    4abc:	047e                	slli	s0,s0,0x1f
    4abe:	8ed9                	or	a3,a3,a4
    4ac0:	8ec1                	or	a3,a3,s0
    4ac2:	40f2                	lw	ra,28(sp)
    4ac4:	4462                	lw	s0,24(sp)
    4ac6:	44d2                	lw	s1,20(sp)
    4ac8:	4942                	lw	s2,16(sp)
    4aca:	49b2                	lw	s3,12(sp)
    4acc:	8542                	mv	a0,a6
    4ace:	85b6                	mv	a1,a3
    4ad0:	6105                	addi	sp,sp,32
    4ad2:	8082                	ret
    4ad4:	0ab05663          	blez	a1,4b80 <__subdf3+0x230>
    4ad8:	12088a63          	beqz	a7,4c0c <__subdf3+0x2bc>
    4adc:	008007b7          	lui	a5,0x800
    4ae0:	8f5d                	or	a4,a4,a5
    4ae2:	2dc48763          	beq	s1,t3,4db0 <__subdf3+0x460>
    4ae6:	03800793          	li	a5,56
    4aea:	18b7c763          	blt	a5,a1,4c78 <__subdf3+0x328>
    4aee:	47fd                	li	a5,31
    4af0:	3cb7d263          	bge	a5,a1,4eb4 <__subdf3+0x564>
    4af4:	fe058813          	addi	a6,a1,-32 # ffe0 <_data_lma+0x2d8c>
    4af8:	02000793          	li	a5,32
    4afc:	010759b3          	srl	s3,a4,a6
    4b00:	00f58a63          	beq	a1,a5,4b14 <__subdf3+0x1c4>
    4b04:	04000793          	li	a5,64
    4b08:	40b785b3          	sub	a1,a5,a1
    4b0c:	00b71733          	sll	a4,a4,a1
    4b10:	00eeeeb3          	or	t4,t4,a4
    4b14:	01d03833          	snez	a6,t4
    4b18:	01386833          	or	a6,a6,s3
    4b1c:	a295                	j	4c80 <__subdf3+0x330>
    4b1e:	01d767b3          	or	a5,a4,t4
    4b22:	80148593          	addi	a1,s1,-2047
    4b26:	e399                	bnez	a5,4b2c <__subdf3+0x1dc>
    4b28:	0016c693          	xori	a3,a3,1
    4b2c:	04d40a63          	beq	s0,a3,4b80 <__subdf3+0x230>
    4b30:	e1d1                	bnez	a1,4bb4 <__subdf3+0x264>
    4b32:	00148793          	addi	a5,s1,1
    4b36:	7fe7f793          	andi	a5,a5,2046
    4b3a:	1e079963          	bnez	a5,4d2c <__subdf3+0x3dc>
    4b3e:	01e367b3          	or	a5,t1,t5
    4b42:	01d76833          	or	a6,a4,t4
    4b46:	16049263          	bnez	s1,4caa <__subdf3+0x35a>
    4b4a:	3c078263          	beqz	a5,4f0e <__subdf3+0x5be>
    4b4e:	42081663          	bnez	a6,4f7a <__subdf3+0x62a>
    4b52:	00351813          	slli	a6,a0,0x3
    4b56:	01d31693          	slli	a3,t1,0x1d
    4b5a:	00385813          	srli	a6,a6,0x3
    4b5e:	0106e833          	or	a6,a3,a6
    4b62:	00335793          	srli	a5,t1,0x3
    4b66:	a219                	j	4c6c <__subdf3+0x31c>
    4b68:	01d767b3          	or	a5,a4,t4
    4b6c:	1a078563          	beqz	a5,4d16 <__subdf3+0x3c6>
    4b70:	fff58793          	addi	a5,a1,-1
    4b74:	3a078b63          	beqz	a5,4f2a <__subdf3+0x5da>
    4b78:	23c58c63          	beq	a1,t3,4db0 <__subdf3+0x460>
    4b7c:	85be                	mv	a1,a5
    4b7e:	b589                	j	49c0 <__subdf3+0x70>
    4b80:	1c059963          	bnez	a1,4d52 <__subdf3+0x402>
    4b84:	00148693          	addi	a3,s1,1
    4b88:	7fe6f793          	andi	a5,a3,2046
    4b8c:	efc1                	bnez	a5,4c24 <__subdf3+0x2d4>
    4b8e:	01e367b3          	or	a5,t1,t5
    4b92:	36049063          	bnez	s1,4ef2 <__subdf3+0x5a2>
    4b96:	44078d63          	beqz	a5,4ff0 <__subdf3+0x6a0>
    4b9a:	01d767b3          	or	a5,a4,t4
    4b9e:	46079463          	bnez	a5,5006 <__subdf3+0x6b6>
    4ba2:	050e                	slli	a0,a0,0x3
    4ba4:	01d31813          	slli	a6,t1,0x1d
    4ba8:	810d                	srli	a0,a0,0x3
    4baa:	00a86833          	or	a6,a6,a0
    4bae:	00335793          	srli	a5,t1,0x3
    4bb2:	a86d                	j	4c6c <__subdf3+0x31c>
    4bb4:	409885b3          	sub	a1,a7,s1
    4bb8:	20049763          	bnez	s1,4dc6 <__subdf3+0x476>
    4bbc:	01e367b3          	or	a5,t1,t5
    4bc0:	30078d63          	beqz	a5,4eda <__subdf3+0x58a>
    4bc4:	fff58793          	addi	a5,a1,-1
    4bc8:	40078963          	beqz	a5,4fda <__subdf3+0x68a>
    4bcc:	7ff00513          	li	a0,2047
    4bd0:	20a58363          	beq	a1,a0,4dd6 <__subdf3+0x486>
    4bd4:	85be                	mv	a1,a5
    4bd6:	03800793          	li	a5,56
    4bda:	2ab7c263          	blt	a5,a1,4e7e <__subdf3+0x52e>
    4bde:	47fd                	li	a5,31
    4be0:	3cb7c863          	blt	a5,a1,4fb0 <__subdf3+0x660>
    4be4:	02000793          	li	a5,32
    4be8:	8f8d                	sub	a5,a5,a1
    4bea:	00f31833          	sll	a6,t1,a5
    4bee:	00bf5633          	srl	a2,t5,a1
    4bf2:	00ff17b3          	sll	a5,t5,a5
    4bf6:	00c86833          	or	a6,a6,a2
    4bfa:	00f039b3          	snez	s3,a5
    4bfe:	00b35333          	srl	t1,t1,a1
    4c02:	01386833          	or	a6,a6,s3
    4c06:	40670733          	sub	a4,a4,t1
    4c0a:	acb5                	j	4e86 <__subdf3+0x536>
    4c0c:	01d767b3          	or	a5,a4,t4
    4c10:	10078363          	beqz	a5,4d16 <__subdf3+0x3c6>
    4c14:	fff58793          	addi	a5,a1,-1
    4c18:	1e078f63          	beqz	a5,4e16 <__subdf3+0x4c6>
    4c1c:	2fc58063          	beq	a1,t3,4efc <__subdf3+0x5ac>
    4c20:	85be                	mv	a1,a5
    4c22:	b5d1                	j	4ae6 <__subdf3+0x196>
    4c24:	7ff00793          	li	a5,2047
    4c28:	06f68b63          	beq	a3,a5,4c9e <__subdf3+0x34e>
    4c2c:	9efa                	add	t4,t4,t5
    4c2e:	01eeb633          	sltu	a2,t4,t5
    4c32:	00e307b3          	add	a5,t1,a4
    4c36:	97b2                	add	a5,a5,a2
    4c38:	01f79813          	slli	a6,a5,0x1f
    4c3c:	001ede93          	srli	t4,t4,0x1
    4c40:	01d869b3          	or	s3,a6,t4
    4c44:	0017d613          	srli	a2,a5,0x1
    4c48:	84b6                	mv	s1,a3
    4c4a:	0079f793          	andi	a5,s3,7
    4c4e:	e0079fe3          	bnez	a5,4a6c <__subdf3+0x11c>
    4c52:	01d61793          	slli	a5,a2,0x1d
    4c56:	0039d813          	srli	a6,s3,0x3
    4c5a:	00f86833          	or	a6,a6,a5
    4c5e:	85a6                	mv	a1,s1
    4c60:	00365793          	srli	a5,a2,0x3
    4c64:	7ff00713          	li	a4,2047
    4c68:	06e58063          	beq	a1,a4,4cc8 <__subdf3+0x378>
    4c6c:	07b2                	slli	a5,a5,0xc
    4c6e:	83b1                	srli	a5,a5,0xc
    4c70:	7ff5f713          	andi	a4,a1,2047
    4c74:	8805                	andi	s0,s0,1
    4c76:	bd3d                	j	4ab4 <__subdf3+0x164>
    4c78:	01d76733          	or	a4,a4,t4
    4c7c:	00e03833          	snez	a6,a4
    4c80:	01e809b3          	add	s3,a6,t5
    4c84:	01e9b7b3          	sltu	a5,s3,t5
    4c88:	00678633          	add	a2,a5,t1
    4c8c:	00861793          	slli	a5,a2,0x8
    4c90:	fa07dde3          	bgez	a5,4c4a <__subdf3+0x2fa>
    4c94:	0485                	addi	s1,s1,1
    4c96:	7ff00793          	li	a5,2047
    4c9a:	18f49c63          	bne	s1,a5,4e32 <__subdf3+0x4e2>
    4c9e:	8805                	andi	s0,s0,1
    4ca0:	7ff00713          	li	a4,2047
    4ca4:	4781                	li	a5,0
    4ca6:	4801                	li	a6,0
    4ca8:	b531                	j	4ab4 <__subdf3+0x164>
    4caa:	10079163          	bnez	a5,4dac <__subdf3+0x45c>
    4cae:	3c080163          	beqz	a6,5070 <__subdf3+0x720>
    4cb2:	00361813          	slli	a6,a2,0x3
    4cb6:	01d71793          	slli	a5,a4,0x1d
    4cba:	00385813          	srli	a6,a6,0x3
    4cbe:	00f86833          	or	a6,a6,a5
    4cc2:	8436                	mv	s0,a3
    4cc4:	00375793          	srli	a5,a4,0x3
    4cc8:	00f867b3          	or	a5,a6,a5
    4ccc:	dbe9                	beqz	a5,4c9e <__subdf3+0x34e>
    4cce:	4401                	li	s0,0
    4cd0:	7ff00713          	li	a4,2047
    4cd4:	000807b7          	lui	a5,0x80
    4cd8:	4801                	li	a6,0
    4cda:	bbe9                	j	4ab4 <__subdf3+0x164>
    4cdc:	ff800637          	lui	a2,0xff800
    4ce0:	167d                	addi	a2,a2,-1
    4ce2:	8e7d                	and	a2,a2,a5
    4ce4:	0079f793          	andi	a5,s3,7
    4ce8:	8c99                	sub	s1,s1,a4
    4cea:	d80791e3          	bnez	a5,4a6c <__subdf3+0x11c>
    4cee:	b795                	j	4c52 <__subdf3+0x302>
    4cf0:	854e                	mv	a0,s3
    4cf2:	336010ef          	jal	ra,6028 <__clzsi2>
    4cf6:	01850713          	addi	a4,a0,24
    4cfa:	47fd                	li	a5,31
    4cfc:	d2e7d2e3          	bge	a5,a4,4a20 <__subdf3+0xd0>
    4d00:	ff850613          	addi	a2,a0,-8
    4d04:	00c997b3          	sll	a5,s3,a2
    4d08:	4981                	li	s3,0
    4d0a:	b32d                	j	4a34 <__subdf3+0xe4>
    4d0c:	01d76833          	or	a6,a4,t4
    4d10:	01003833          	snez	a6,a6
    4d14:	b1c5                	j	49f4 <__subdf3+0xa4>
    4d16:	00351813          	slli	a6,a0,0x3
    4d1a:	01d31793          	slli	a5,t1,0x1d
    4d1e:	00385813          	srli	a6,a6,0x3
    4d22:	00f86833          	or	a6,a6,a5
    4d26:	00335793          	srli	a5,t1,0x3
    4d2a:	bf2d                	j	4c64 <__subdf3+0x314>
    4d2c:	41df09b3          	sub	s3,t5,t4
    4d30:	40e30933          	sub	s2,t1,a4
    4d34:	013f3633          	sltu	a2,t5,s3
    4d38:	40c90933          	sub	s2,s2,a2
    4d3c:	00891793          	slli	a5,s2,0x8
    4d40:	2007ca63          	bltz	a5,4f54 <__subdf3+0x604>
    4d44:	0129e833          	or	a6,s3,s2
    4d48:	cc0815e3          	bnez	a6,4a12 <__subdf3+0xc2>
    4d4c:	4781                	li	a5,0
    4d4e:	4401                	li	s0,0
    4d50:	bf31                	j	4c6c <__subdf3+0x31c>
    4d52:	409885b3          	sub	a1,a7,s1
    4d56:	14048163          	beqz	s1,4e98 <__subdf3+0x548>
    4d5a:	008006b7          	lui	a3,0x800
    4d5e:	7ff00793          	li	a5,2047
    4d62:	00d36333          	or	t1,t1,a3
    4d66:	20f88163          	beq	a7,a5,4f68 <__subdf3+0x618>
    4d6a:	03800793          	li	a5,56
    4d6e:	22b7cc63          	blt	a5,a1,4fa6 <__subdf3+0x656>
    4d72:	47fd                	li	a5,31
    4d74:	2cb7c963          	blt	a5,a1,5046 <__subdf3+0x6f6>
    4d78:	02000793          	li	a5,32
    4d7c:	8f8d                	sub	a5,a5,a1
    4d7e:	00f31833          	sll	a6,t1,a5
    4d82:	00bf56b3          	srl	a3,t5,a1
    4d86:	00ff17b3          	sll	a5,t5,a5
    4d8a:	00d86833          	or	a6,a6,a3
    4d8e:	00f039b3          	snez	s3,a5
    4d92:	00b35333          	srl	t1,t1,a1
    4d96:	01386833          	or	a6,a6,s3
    4d9a:	971a                	add	a4,a4,t1
    4d9c:	01d809b3          	add	s3,a6,t4
    4da0:	01d9b7b3          	sltu	a5,s3,t4
    4da4:	00e78633          	add	a2,a5,a4
    4da8:	84c6                	mv	s1,a7
    4daa:	b5cd                	j	4c8c <__subdf3+0x33c>
    4dac:	f20811e3          	bnez	a6,4cce <__subdf3+0x37e>
    4db0:	00351813          	slli	a6,a0,0x3
    4db4:	01d31793          	slli	a5,t1,0x1d
    4db8:	00385813          	srli	a6,a6,0x3
    4dbc:	00f86833          	or	a6,a6,a5
    4dc0:	00335793          	srli	a5,t1,0x3
    4dc4:	b711                	j	4cc8 <__subdf3+0x378>
    4dc6:	00800537          	lui	a0,0x800
    4dca:	7ff00793          	li	a5,2047
    4dce:	00a36333          	or	t1,t1,a0
    4dd2:	e0f892e3          	bne	a7,a5,4bd6 <__subdf3+0x286>
    4dd6:	060e                	slli	a2,a2,0x3
    4dd8:	01d71813          	slli	a6,a4,0x1d
    4ddc:	820d                	srli	a2,a2,0x3
    4dde:	00c86833          	or	a6,a6,a2
    4de2:	00375793          	srli	a5,a4,0x3
    4de6:	8436                	mv	s0,a3
    4de8:	b5c5                	j	4cc8 <__subdf3+0x378>
    4dea:	1705                	addi	a4,a4,-31
    4dec:	02000693          	li	a3,32
    4df0:	00e7d733          	srl	a4,a5,a4
    4df4:	00d60a63          	beq	a2,a3,4e08 <__subdf3+0x4b8>
    4df8:	04000693          	li	a3,64
    4dfc:	40c68633          	sub	a2,a3,a2
    4e00:	00c79633          	sll	a2,a5,a2
    4e04:	00c9e9b3          	or	s3,s3,a2
    4e08:	01303833          	snez	a6,s3
    4e0c:	00e869b3          	or	s3,a6,a4
    4e10:	4601                	li	a2,0
    4e12:	4481                	li	s1,0
    4e14:	bd1d                	j	4c4a <__subdf3+0x2fa>
    4e16:	01df09b3          	add	s3,t5,t4
    4e1a:	00e307b3          	add	a5,t1,a4
    4e1e:	01e9bf33          	sltu	t5,s3,t5
    4e22:	01e78633          	add	a2,a5,t5
    4e26:	00861793          	slli	a5,a2,0x8
    4e2a:	4485                	li	s1,1
    4e2c:	e007dfe3          	bgez	a5,4c4a <__subdf3+0x2fa>
    4e30:	4489                	li	s1,2
    4e32:	ff8007b7          	lui	a5,0xff800
    4e36:	17fd                	addi	a5,a5,-1
    4e38:	8ff1                	and	a5,a5,a2
    4e3a:	0019d713          	srli	a4,s3,0x1
    4e3e:	0019f813          	andi	a6,s3,1
    4e42:	01076833          	or	a6,a4,a6
    4e46:	01f79993          	slli	s3,a5,0x1f
    4e4a:	0109e9b3          	or	s3,s3,a6
    4e4e:	0017d613          	srli	a2,a5,0x1
    4e52:	b911                	j	4a66 <__subdf3+0x116>
    4e54:	fe058813          	addi	a6,a1,-32
    4e58:	02000793          	li	a5,32
    4e5c:	010759b3          	srl	s3,a4,a6
    4e60:	00f58a63          	beq	a1,a5,4e74 <__subdf3+0x524>
    4e64:	04000793          	li	a5,64
    4e68:	40b785b3          	sub	a1,a5,a1
    4e6c:	00b71733          	sll	a4,a4,a1
    4e70:	00eeeeb3          	or	t4,t4,a4
    4e74:	01d03833          	snez	a6,t4
    4e78:	01386833          	or	a6,a6,s3
    4e7c:	bea5                	j	49f4 <__subdf3+0xa4>
    4e7e:	01e36333          	or	t1,t1,t5
    4e82:	00603833          	snez	a6,t1
    4e86:	410e89b3          	sub	s3,t4,a6
    4e8a:	013eb7b3          	sltu	a5,t4,s3
    4e8e:	40f70633          	sub	a2,a4,a5
    4e92:	84c6                	mv	s1,a7
    4e94:	8436                	mv	s0,a3
    4e96:	b6ad                	j	4a00 <__subdf3+0xb0>
    4e98:	01e367b3          	or	a5,t1,t5
    4e9c:	18078763          	beqz	a5,502a <__subdf3+0x6da>
    4ea0:	fff58793          	addi	a5,a1,-1
    4ea4:	1c078c63          	beqz	a5,507c <__subdf3+0x72c>
    4ea8:	7ff00693          	li	a3,2047
    4eac:	0ad58e63          	beq	a1,a3,4f68 <__subdf3+0x618>
    4eb0:	85be                	mv	a1,a5
    4eb2:	bd65                	j	4d6a <__subdf3+0x41a>
    4eb4:	02000793          	li	a5,32
    4eb8:	8f8d                	sub	a5,a5,a1
    4eba:	00bed9b3          	srl	s3,t4,a1
    4ebe:	00f71833          	sll	a6,a4,a5
    4ec2:	00fe9eb3          	sll	t4,t4,a5
    4ec6:	01386833          	or	a6,a6,s3
    4eca:	00b75733          	srl	a4,a4,a1
    4ece:	01d039b3          	snez	s3,t4
    4ed2:	01386833          	or	a6,a6,s3
    4ed6:	933a                	add	t1,t1,a4
    4ed8:	b365                	j	4c80 <__subdf3+0x330>
    4eda:	00361813          	slli	a6,a2,0x3
    4ede:	01d71793          	slli	a5,a4,0x1d
    4ee2:	00385813          	srli	a6,a6,0x3
    4ee6:	0107e833          	or	a6,a5,a6
    4eea:	8436                	mv	s0,a3
    4eec:	00375793          	srli	a5,a4,0x3
    4ef0:	bb95                	j	4c64 <__subdf3+0x314>
    4ef2:	cbbd                	beqz	a5,4f68 <__subdf3+0x618>
    4ef4:	01d76733          	or	a4,a4,t4
    4ef8:	dc071be3          	bnez	a4,4cce <__subdf3+0x37e>
    4efc:	050e                	slli	a0,a0,0x3
    4efe:	01d31813          	slli	a6,t1,0x1d
    4f02:	810d                	srli	a0,a0,0x3
    4f04:	00a86833          	or	a6,a6,a0
    4f08:	00335793          	srli	a5,t1,0x3
    4f0c:	bb75                	j	4cc8 <__subdf3+0x378>
    4f0e:	e2080fe3          	beqz	a6,4d4c <__subdf3+0x3fc>
    4f12:	00361813          	slli	a6,a2,0x3
    4f16:	01d71793          	slli	a5,a4,0x1d
    4f1a:	00385813          	srli	a6,a6,0x3
    4f1e:	00f86833          	or	a6,a6,a5
    4f22:	8436                	mv	s0,a3
    4f24:	00375793          	srli	a5,a4,0x3
    4f28:	b391                	j	4c6c <__subdf3+0x31c>
    4f2a:	41df09b3          	sub	s3,t5,t4
    4f2e:	40e307b3          	sub	a5,t1,a4
    4f32:	013f3f33          	sltu	t5,t5,s3
    4f36:	41e78633          	sub	a2,a5,t5
    4f3a:	4485                	li	s1,1
    4f3c:	b4d1                	j	4a00 <__subdf3+0xb0>
    4f3e:	00351813          	slli	a6,a0,0x3
    4f42:	01d31693          	slli	a3,t1,0x1d
    4f46:	00385813          	srli	a6,a6,0x3
    4f4a:	0106e833          	or	a6,a3,a6
    4f4e:	00335793          	srli	a5,t1,0x3
    4f52:	bb9d                	j	4cc8 <__subdf3+0x378>
    4f54:	41ee89b3          	sub	s3,t4,t5
    4f58:	40670633          	sub	a2,a4,t1
    4f5c:	013eb933          	sltu	s2,t4,s3
    4f60:	41260933          	sub	s2,a2,s2
    4f64:	8436                	mv	s0,a3
    4f66:	b475                	j	4a12 <__subdf3+0xc2>
    4f68:	060e                	slli	a2,a2,0x3
    4f6a:	01d71813          	slli	a6,a4,0x1d
    4f6e:	820d                	srli	a2,a2,0x3
    4f70:	00c86833          	or	a6,a6,a2
    4f74:	00375793          	srli	a5,a4,0x3
    4f78:	bb81                	j	4cc8 <__subdf3+0x378>
    4f7a:	41df09b3          	sub	s3,t5,t4
    4f7e:	40e307b3          	sub	a5,t1,a4
    4f82:	013f3633          	sltu	a2,t5,s3
    4f86:	40c78633          	sub	a2,a5,a2
    4f8a:	00861793          	slli	a5,a2,0x8
    4f8e:	0a07d763          	bgez	a5,503c <__subdf3+0x6ec>
    4f92:	41ee89b3          	sub	s3,t4,t5
    4f96:	406707b3          	sub	a5,a4,t1
    4f9a:	013ebeb3          	sltu	t4,t4,s3
    4f9e:	41d78633          	sub	a2,a5,t4
    4fa2:	8436                	mv	s0,a3
    4fa4:	b4c9                	j	4a66 <__subdf3+0x116>
    4fa6:	01e36333          	or	t1,t1,t5
    4faa:	00603833          	snez	a6,t1
    4fae:	b3fd                	j	4d9c <__subdf3+0x44c>
    4fb0:	fe058813          	addi	a6,a1,-32
    4fb4:	02000793          	li	a5,32
    4fb8:	010359b3          	srl	s3,t1,a6
    4fbc:	00f58a63          	beq	a1,a5,4fd0 <__subdf3+0x680>
    4fc0:	04000793          	li	a5,64
    4fc4:	40b785b3          	sub	a1,a5,a1
    4fc8:	00b31333          	sll	t1,t1,a1
    4fcc:	006f6f33          	or	t5,t5,t1
    4fd0:	01e03833          	snez	a6,t5
    4fd4:	01386833          	or	a6,a6,s3
    4fd8:	b57d                	j	4e86 <__subdf3+0x536>
    4fda:	41ee89b3          	sub	s3,t4,t5
    4fde:	406707b3          	sub	a5,a4,t1
    4fe2:	013ebeb3          	sltu	t4,t4,s3
    4fe6:	41d78633          	sub	a2,a5,t4
    4fea:	8436                	mv	s0,a3
    4fec:	4485                	li	s1,1
    4fee:	bc09                	j	4a00 <__subdf3+0xb0>
    4ff0:	00361813          	slli	a6,a2,0x3
    4ff4:	01d71793          	slli	a5,a4,0x1d
    4ff8:	00385813          	srli	a6,a6,0x3
    4ffc:	00f86833          	or	a6,a6,a5
    5000:	00375793          	srli	a5,a4,0x3
    5004:	b1a5                	j	4c6c <__subdf3+0x31c>
    5006:	01df09b3          	add	s3,t5,t4
    500a:	00e307b3          	add	a5,t1,a4
    500e:	01e9bf33          	sltu	t5,s3,t5
    5012:	01e78633          	add	a2,a5,t5
    5016:	00861793          	slli	a5,a2,0x8
    501a:	c207d8e3          	bgez	a5,4c4a <__subdf3+0x2fa>
    501e:	ff8007b7          	lui	a5,0xff800
    5022:	17fd                	addi	a5,a5,-1
    5024:	8e7d                	and	a2,a2,a5
    5026:	4485                	li	s1,1
    5028:	b10d                	j	4c4a <__subdf3+0x2fa>
    502a:	060e                	slli	a2,a2,0x3
    502c:	01d71813          	slli	a6,a4,0x1d
    5030:	820d                	srli	a2,a2,0x3
    5032:	00c86833          	or	a6,a6,a2
    5036:	00375793          	srli	a5,a4,0x3
    503a:	b12d                	j	4c64 <__subdf3+0x314>
    503c:	00c9e833          	or	a6,s3,a2
    5040:	d00806e3          	beqz	a6,4d4c <__subdf3+0x3fc>
    5044:	b119                	j	4c4a <__subdf3+0x2fa>
    5046:	fe058813          	addi	a6,a1,-32
    504a:	02000793          	li	a5,32
    504e:	010359b3          	srl	s3,t1,a6
    5052:	00f58a63          	beq	a1,a5,5066 <__subdf3+0x716>
    5056:	04000793          	li	a5,64
    505a:	40b785b3          	sub	a1,a5,a1
    505e:	00b31333          	sll	t1,t1,a1
    5062:	006f6f33          	or	t5,t5,t1
    5066:	01e03833          	snez	a6,t5
    506a:	01386833          	or	a6,a6,s3
    506e:	b33d                	j	4d9c <__subdf3+0x44c>
    5070:	4401                	li	s0,0
    5072:	7ff00713          	li	a4,2047
    5076:	000807b7          	lui	a5,0x80
    507a:	bc2d                	j	4ab4 <__subdf3+0x164>
    507c:	01df09b3          	add	s3,t5,t4
    5080:	00e307b3          	add	a5,t1,a4
    5084:	01d9beb3          	sltu	t4,s3,t4
    5088:	01d78633          	add	a2,a5,t4
    508c:	bb69                	j	4e26 <__subdf3+0x4d6>

0000508e <__unorddf2>:
    508e:	0145d713          	srli	a4,a1,0x14
    5092:	001007b7          	lui	a5,0x100
    5096:	17fd                	addi	a5,a5,-1
    5098:	fff74713          	not	a4,a4
    509c:	0146d813          	srli	a6,a3,0x14
    50a0:	8dfd                	and	a1,a1,a5
    50a2:	8ff5                	and	a5,a5,a3
    50a4:	01571693          	slli	a3,a4,0x15
    50a8:	7ff87813          	andi	a6,a6,2047
    50ac:	ca99                	beqz	a3,50c2 <__unorddf2+0x34>
    50ae:	7ff00713          	li	a4,2047
    50b2:	4501                	li	a0,0
    50b4:	00e80363          	beq	a6,a4,50ba <__unorddf2+0x2c>
    50b8:	8082                	ret
    50ba:	8fd1                	or	a5,a5,a2
    50bc:	00f03533          	snez	a0,a5
    50c0:	8082                	ret
    50c2:	8dc9                	or	a1,a1,a0
    50c4:	4505                	li	a0,1
    50c6:	d5e5                	beqz	a1,50ae <__unorddf2+0x20>
    50c8:	8082                	ret

000050ca <__floatsidf>:
    50ca:	1141                	addi	sp,sp,-16
    50cc:	c606                	sw	ra,12(sp)
    50ce:	c422                	sw	s0,8(sp)
    50d0:	c226                	sw	s1,4(sp)
    50d2:	cd0d                	beqz	a0,510c <__floatsidf+0x42>
    50d4:	41f55793          	srai	a5,a0,0x1f
    50d8:	00a7c4b3          	xor	s1,a5,a0
    50dc:	8c9d                	sub	s1,s1,a5
    50de:	842a                	mv	s0,a0
    50e0:	8526                	mv	a0,s1
    50e2:	747000ef          	jal	ra,6028 <__clzsi2>
    50e6:	41e00693          	li	a3,1054
    50ea:	8e89                	sub	a3,a3,a0
    50ec:	47a9                	li	a5,10
    50ee:	807d                	srli	s0,s0,0x1f
    50f0:	7ff6f693          	andi	a3,a3,2047
    50f4:	02a7cd63          	blt	a5,a0,512e <__floatsidf+0x64>
    50f8:	472d                	li	a4,11
    50fa:	8f09                	sub	a4,a4,a0
    50fc:	00e4d7b3          	srl	a5,s1,a4
    5100:	0555                	addi	a0,a0,21
    5102:	07b2                	slli	a5,a5,0xc
    5104:	00a494b3          	sll	s1,s1,a0
    5108:	83b1                	srli	a5,a5,0xc
    510a:	a029                	j	5114 <__floatsidf+0x4a>
    510c:	4401                	li	s0,0
    510e:	4681                	li	a3,0
    5110:	4781                	li	a5,0
    5112:	4481                	li	s1,0
    5114:	07b2                	slli	a5,a5,0xc
    5116:	06d2                	slli	a3,a3,0x14
    5118:	83b1                	srli	a5,a5,0xc
    511a:	047e                	slli	s0,s0,0x1f
    511c:	8fd5                	or	a5,a5,a3
    511e:	8fc1                	or	a5,a5,s0
    5120:	40b2                	lw	ra,12(sp)
    5122:	4422                	lw	s0,8(sp)
    5124:	8526                	mv	a0,s1
    5126:	85be                	mv	a1,a5
    5128:	4492                	lw	s1,4(sp)
    512a:	0141                	addi	sp,sp,16
    512c:	8082                	ret
    512e:	1555                	addi	a0,a0,-11
    5130:	00a497b3          	sll	a5,s1,a0
    5134:	07b2                	slli	a5,a5,0xc
    5136:	83b1                	srli	a5,a5,0xc
    5138:	4481                	li	s1,0
    513a:	bfe9                	j	5114 <__floatsidf+0x4a>

0000513c <__floatunsidf>:
    513c:	cd1d                	beqz	a0,517a <__floatunsidf+0x3e>
    513e:	1141                	addi	sp,sp,-16
    5140:	c422                	sw	s0,8(sp)
    5142:	c606                	sw	ra,12(sp)
    5144:	842a                	mv	s0,a0
    5146:	6e3000ef          	jal	ra,6028 <__clzsi2>
    514a:	41e00693          	li	a3,1054
    514e:	8e89                	sub	a3,a3,a0
    5150:	47a9                	li	a5,10
    5152:	7ff6f693          	andi	a3,a3,2047
    5156:	02a7dc63          	bge	a5,a0,518e <__floatunsidf+0x52>
    515a:	1555                	addi	a0,a0,-11
    515c:	00a417b3          	sll	a5,s0,a0
    5160:	07b2                	slli	a5,a5,0xc
    5162:	83b1                	srli	a5,a5,0xc
    5164:	4701                	li	a4,0
    5166:	40b2                	lw	ra,12(sp)
    5168:	4422                	lw	s0,8(sp)
    516a:	07b2                	slli	a5,a5,0xc
    516c:	06d2                	slli	a3,a3,0x14
    516e:	83b1                	srli	a5,a5,0xc
    5170:	8fd5                	or	a5,a5,a3
    5172:	853a                	mv	a0,a4
    5174:	85be                	mv	a1,a5
    5176:	0141                	addi	sp,sp,16
    5178:	8082                	ret
    517a:	4781                	li	a5,0
    517c:	4681                	li	a3,0
    517e:	07b2                	slli	a5,a5,0xc
    5180:	06d2                	slli	a3,a3,0x14
    5182:	83b1                	srli	a5,a5,0xc
    5184:	4701                	li	a4,0
    5186:	8fd5                	or	a5,a5,a3
    5188:	853a                	mv	a0,a4
    518a:	85be                	mv	a1,a5
    518c:	8082                	ret
    518e:	472d                	li	a4,11
    5190:	8f09                	sub	a4,a4,a0
    5192:	00e457b3          	srl	a5,s0,a4
    5196:	07b2                	slli	a5,a5,0xc
    5198:	01550713          	addi	a4,a0,21 # 800015 <_data_lma+0x7f2dc1>
    519c:	00e41733          	sll	a4,s0,a4
    51a0:	83b1                	srli	a5,a5,0xc
    51a2:	b7d1                	j	5166 <__floatunsidf+0x2a>

000051a4 <__floatundidf>:
    51a4:	00b567b3          	or	a5,a0,a1
    51a8:	c3a1                	beqz	a5,51e8 <__floatundidf+0x44>
    51aa:	1141                	addi	sp,sp,-16
    51ac:	c422                	sw	s0,8(sp)
    51ae:	c226                	sw	s1,4(sp)
    51b0:	c04a                	sw	s2,0(sp)
    51b2:	c606                	sw	ra,12(sp)
    51b4:	84aa                	mv	s1,a0
    51b6:	892e                	mv	s2,a1
    51b8:	842e                	mv	s0,a1
    51ba:	c1a9                	beqz	a1,51fc <__floatundidf+0x58>
    51bc:	852e                	mv	a0,a1
    51be:	66b000ef          	jal	ra,6028 <__clzsi2>
    51c2:	43e00693          	li	a3,1086
    51c6:	8e89                	sub	a3,a3,a0
    51c8:	43300793          	li	a5,1075
    51cc:	06d7c563          	blt	a5,a3,5236 <__floatundidf+0x92>
    51d0:	00c91793          	slli	a5,s2,0xc
    51d4:	462d                	li	a2,11
    51d6:	8726                	mv	a4,s1
    51d8:	7ff6f693          	andi	a3,a3,2047
    51dc:	83b1                	srli	a5,a5,0xc
    51de:	0ca65d63          	bge	a2,a0,52b8 <__floatundidf+0x114>
    51e2:	ff550613          	addi	a2,a0,-11
    51e6:	a815                	j	521a <__floatundidf+0x76>
    51e8:	4781                	li	a5,0
    51ea:	4681                	li	a3,0
    51ec:	07b2                	slli	a5,a5,0xc
    51ee:	06d2                	slli	a3,a3,0x14
    51f0:	83b1                	srli	a5,a5,0xc
    51f2:	4701                	li	a4,0
    51f4:	8fd5                	or	a5,a5,a3
    51f6:	853a                	mv	a0,a4
    51f8:	85be                	mv	a1,a5
    51fa:	8082                	ret
    51fc:	62d000ef          	jal	ra,6028 <__clzsi2>
    5200:	862a                	mv	a2,a0
    5202:	43e00693          	li	a3,1086
    5206:	02050513          	addi	a0,a0,32
    520a:	8e89                	sub	a3,a3,a0
    520c:	02a00713          	li	a4,42
    5210:	7ff6f693          	andi	a3,a3,2047
    5214:	0ca74c63          	blt	a4,a0,52ec <__floatundidf+0x148>
    5218:	0655                	addi	a2,a2,21
    521a:	02b00713          	li	a4,43
    521e:	8f09                	sub	a4,a4,a0
    5220:	00c917b3          	sll	a5,s2,a2
    5224:	00e4d733          	srl	a4,s1,a4
    5228:	8f5d                	or	a4,a4,a5
    522a:	00c71793          	slli	a5,a4,0xc
    522e:	83b1                	srli	a5,a5,0xc
    5230:	00c49733          	sll	a4,s1,a2
    5234:	a051                	j	52b8 <__floatundidf+0x114>
    5236:	43600793          	li	a5,1078
    523a:	02d7d963          	bge	a5,a3,526c <__floatundidf+0xc8>
    523e:	01850713          	addi	a4,a0,24
    5242:	03850793          	addi	a5,a0,56
    5246:	0c074763          	bltz	a4,5314 <__floatundidf+0x170>
    524a:	00e49633          	sll	a2,s1,a4
    524e:	4701                	li	a4,0
    5250:	4421                	li	s0,8
    5252:	8c09                	sub	s0,s0,a0
    5254:	8f51                	or	a4,a4,a2
    5256:	fe040793          	addi	a5,s0,-32 # 7ffe0 <_data_lma+0x72d8c>
    525a:	00e03733          	snez	a4,a4
    525e:	0807cf63          	bltz	a5,52fc <__floatundidf+0x158>
    5262:	00f954b3          	srl	s1,s2,a5
    5266:	4781                	li	a5,0
    5268:	8cd9                	or	s1,s1,a4
    526a:	843e                	mv	s0,a5
    526c:	47a1                	li	a5,8
    526e:	06a7c163          	blt	a5,a0,52d0 <__floatundidf+0x12c>
    5272:	ff800737          	lui	a4,0xff800
    5276:	177d                	addi	a4,a4,-1
    5278:	0074f613          	andi	a2,s1,7
    527c:	00e477b3          	and	a5,s0,a4
    5280:	c605                	beqz	a2,52a8 <__floatundidf+0x104>
    5282:	00f4f613          	andi	a2,s1,15
    5286:	4591                	li	a1,4
    5288:	02b60063          	beq	a2,a1,52a8 <__floatundidf+0x104>
    528c:	00448613          	addi	a2,s1,4
    5290:	009634b3          	sltu	s1,a2,s1
    5294:	97a6                	add	a5,a5,s1
    5296:	00879593          	slli	a1,a5,0x8
    529a:	0805d963          	bgez	a1,532c <__floatundidf+0x188>
    529e:	43f00693          	li	a3,1087
    52a2:	8ff9                	and	a5,a5,a4
    52a4:	8e89                	sub	a3,a3,a0
    52a6:	84b2                	mv	s1,a2
    52a8:	01d79713          	slli	a4,a5,0x1d
    52ac:	808d                	srli	s1,s1,0x3
    52ae:	07a6                	slli	a5,a5,0x9
    52b0:	8f45                	or	a4,a4,s1
    52b2:	83b1                	srli	a5,a5,0xc
    52b4:	7ff6f693          	andi	a3,a3,2047
    52b8:	40b2                	lw	ra,12(sp)
    52ba:	4422                	lw	s0,8(sp)
    52bc:	07b2                	slli	a5,a5,0xc
    52be:	06d2                	slli	a3,a3,0x14
    52c0:	83b1                	srli	a5,a5,0xc
    52c2:	8fd5                	or	a5,a5,a3
    52c4:	4492                	lw	s1,4(sp)
    52c6:	4902                	lw	s2,0(sp)
    52c8:	853a                	mv	a0,a4
    52ca:	85be                	mv	a1,a5
    52cc:	0141                	addi	sp,sp,16
    52ce:	8082                	ret
    52d0:	02800713          	li	a4,40
    52d4:	ff850613          	addi	a2,a0,-8
    52d8:	8f09                	sub	a4,a4,a0
    52da:	00e4d733          	srl	a4,s1,a4
    52de:	00c417b3          	sll	a5,s0,a2
    52e2:	00f76433          	or	s0,a4,a5
    52e6:	00c494b3          	sll	s1,s1,a2
    52ea:	b761                	j	5272 <__floatundidf+0xce>
    52ec:	ff560793          	addi	a5,a2,-11 # ff7ffff5 <_eusrstack+0xdf7f7ff5>
    52f0:	00f497b3          	sll	a5,s1,a5
    52f4:	07b2                	slli	a5,a5,0xc
    52f6:	83b1                	srli	a5,a5,0xc
    52f8:	4701                	li	a4,0
    52fa:	bf7d                	j	52b8 <__floatundidf+0x114>
    52fc:	467d                	li	a2,31
    52fe:	00191793          	slli	a5,s2,0x1
    5302:	8e01                	sub	a2,a2,s0
    5304:	00c797b3          	sll	a5,a5,a2
    5308:	0084d4b3          	srl	s1,s1,s0
    530c:	8cdd                	or	s1,s1,a5
    530e:	008957b3          	srl	a5,s2,s0
    5312:	bf99                	j	5268 <__floatundidf+0xc4>
    5314:	467d                	li	a2,31
    5316:	8e1d                	sub	a2,a2,a5
    5318:	0014d713          	srli	a4,s1,0x1
    531c:	00c75733          	srl	a4,a4,a2
    5320:	00f91633          	sll	a2,s2,a5
    5324:	8e59                	or	a2,a2,a4
    5326:	00f49733          	sll	a4,s1,a5
    532a:	b71d                	j	5250 <__floatundidf+0xac>
    532c:	84b2                	mv	s1,a2
    532e:	bfad                	j	52a8 <__floatundidf+0x104>

00005330 <__addsf3>:
    5330:	1141                	addi	sp,sp,-16
    5332:	00800737          	lui	a4,0x800
    5336:	177d                	addi	a4,a4,-1
    5338:	0175d813          	srli	a6,a1,0x17
    533c:	c226                	sw	s1,4(sp)
    533e:	01755493          	srli	s1,a0,0x17
    5342:	00a77333          	and	t1,a4,a0
    5346:	0ff4f493          	andi	s1,s1,255
    534a:	00b776b3          	and	a3,a4,a1
    534e:	c04a                	sw	s2,0(sp)
    5350:	0ff87813          	andi	a6,a6,255
    5354:	01f55913          	srli	s2,a0,0x1f
    5358:	c606                	sw	ra,12(sp)
    535a:	c422                	sw	s0,8(sp)
    535c:	81fd                	srli	a1,a1,0x1f
    535e:	879a                	mv	a5,t1
    5360:	8526                	mv	a0,s1
    5362:	864a                	mv	a2,s2
    5364:	00331e13          	slli	t3,t1,0x3
    5368:	00369e93          	slli	t4,a3,0x3
    536c:	410488b3          	sub	a7,s1,a6
    5370:	0eb90a63          	beq	s2,a1,5464 <__addsf3+0x134>
    5374:	0d105063          	blez	a7,5434 <__addsf3+0x104>
    5378:	14080463          	beqz	a6,54c0 <__addsf3+0x190>
    537c:	0ff00793          	li	a5,255
    5380:	14f48b63          	beq	s1,a5,54d6 <__addsf3+0x1a6>
    5384:	040007b7          	lui	a5,0x4000
    5388:	00feeeb3          	or	t4,t4,a5
    538c:	47ed                	li	a5,27
    538e:	2917c163          	blt	a5,a7,5610 <__addsf3+0x2e0>
    5392:	02000793          	li	a5,32
    5396:	411787b3          	sub	a5,a5,a7
    539a:	00fe97b3          	sll	a5,t4,a5
    539e:	011ed8b3          	srl	a7,t4,a7
    53a2:	00f037b3          	snez	a5,a5
    53a6:	00f8e7b3          	or	a5,a7,a5
    53aa:	40fe07b3          	sub	a5,t3,a5
    53ae:	00579713          	slli	a4,a5,0x5
    53b2:	18075e63          	bgez	a4,554e <__addsf3+0x21e>
    53b6:	04000437          	lui	s0,0x4000
    53ba:	147d                	addi	s0,s0,-1
    53bc:	8c7d                	and	s0,s0,a5
    53be:	8522                	mv	a0,s0
    53c0:	469000ef          	jal	ra,6028 <__clzsi2>
    53c4:	156d                	addi	a0,a0,-5
    53c6:	00a417b3          	sll	a5,s0,a0
    53ca:	1a954863          	blt	a0,s1,557a <__addsf3+0x24a>
    53ce:	8d05                	sub	a0,a0,s1
    53d0:	00150413          	addi	s0,a0,1
    53d4:	02000713          	li	a4,32
    53d8:	8f01                	sub	a4,a4,s0
    53da:	00e79733          	sll	a4,a5,a4
    53de:	00e03733          	snez	a4,a4
    53e2:	0087d7b3          	srl	a5,a5,s0
    53e6:	8fd9                	or	a5,a5,a4
    53e8:	4481                	li	s1,0
    53ea:	0077f713          	andi	a4,a5,7
    53ee:	c719                	beqz	a4,53fc <__addsf3+0xcc>
    53f0:	00f7f713          	andi	a4,a5,15
    53f4:	4691                	li	a3,4
    53f6:	00d70363          	beq	a4,a3,53fc <__addsf3+0xcc>
    53fa:	0791                	addi	a5,a5,4
    53fc:	00579713          	slli	a4,a5,0x5
    5400:	14075b63          	bgez	a4,5556 <__addsf3+0x226>
    5404:	0485                	addi	s1,s1,1
    5406:	0ff00713          	li	a4,255
    540a:	864a                	mv	a2,s2
    540c:	16e48363          	beq	s1,a4,5572 <__addsf3+0x242>
    5410:	079a                	slli	a5,a5,0x6
    5412:	83a5                	srli	a5,a5,0x9
    5414:	0ff4f513          	andi	a0,s1,255
    5418:	40b2                	lw	ra,12(sp)
    541a:	4422                	lw	s0,8(sp)
    541c:	07a6                	slli	a5,a5,0x9
    541e:	01751493          	slli	s1,a0,0x17
    5422:	0097d513          	srli	a0,a5,0x9
    5426:	8d45                	or	a0,a0,s1
    5428:	067e                	slli	a2,a2,0x1f
    542a:	4492                	lw	s1,4(sp)
    542c:	4902                	lw	s2,0(sp)
    542e:	8d51                	or	a0,a0,a2
    5430:	0141                	addi	sp,sp,16
    5432:	8082                	ret
    5434:	0a089963          	bnez	a7,54e6 <__addsf3+0x1b6>
    5438:	00148713          	addi	a4,s1,1
    543c:	0fe77713          	andi	a4,a4,254
    5440:	14071763          	bnez	a4,558e <__addsf3+0x25e>
    5444:	22049063          	bnez	s1,5664 <__addsf3+0x334>
    5448:	1e0e0d63          	beqz	t3,5642 <__addsf3+0x312>
    544c:	fc0e86e3          	beqz	t4,5418 <__addsf3+0xe8>
    5450:	41de07b3          	sub	a5,t3,t4
    5454:	00579713          	slli	a4,a5,0x5
    5458:	22075063          	bgez	a4,5678 <__addsf3+0x348>
    545c:	41ce87b3          	sub	a5,t4,t3
    5460:	892e                	mv	s2,a1
    5462:	b761                	j	53ea <__addsf3+0xba>
    5464:	0b105c63          	blez	a7,551c <__addsf3+0x1ec>
    5468:	08080e63          	beqz	a6,5504 <__addsf3+0x1d4>
    546c:	0ff00793          	li	a5,255
    5470:	06f48363          	beq	s1,a5,54d6 <__addsf3+0x1a6>
    5474:	040007b7          	lui	a5,0x4000
    5478:	00feeeb3          	or	t4,t4,a5
    547c:	47ed                	li	a5,27
    547e:	1f17c963          	blt	a5,a7,5670 <__addsf3+0x340>
    5482:	02000793          	li	a5,32
    5486:	411787b3          	sub	a5,a5,a7
    548a:	00fe97b3          	sll	a5,t4,a5
    548e:	011ed8b3          	srl	a7,t4,a7
    5492:	00f037b3          	snez	a5,a5
    5496:	00f8e7b3          	or	a5,a7,a5
    549a:	97f2                	add	a5,a5,t3
    549c:	00579713          	slli	a4,a5,0x5
    54a0:	0a075763          	bgez	a4,554e <__addsf3+0x21e>
    54a4:	0485                	addi	s1,s1,1
    54a6:	0ff00713          	li	a4,255
    54aa:	0ce48463          	beq	s1,a4,5572 <__addsf3+0x242>
    54ae:	7e0006b7          	lui	a3,0x7e000
    54b2:	0017d713          	srli	a4,a5,0x1
    54b6:	16fd                	addi	a3,a3,-1
    54b8:	8b85                	andi	a5,a5,1
    54ba:	8f75                	and	a4,a4,a3
    54bc:	8fd9                	or	a5,a5,a4
    54be:	b735                	j	53ea <__addsf3+0xba>
    54c0:	080e8d63          	beqz	t4,555a <__addsf3+0x22a>
    54c4:	18fd                	addi	a7,a7,-1
    54c6:	41de07b3          	sub	a5,t3,t4
    54ca:	ee0882e3          	beqz	a7,53ae <__addsf3+0x7e>
    54ce:	0ff00793          	li	a5,255
    54d2:	eaf49de3          	bne	s1,a5,538c <__addsf3+0x5c>
    54d6:	08030d63          	beqz	t1,5570 <__addsf3+0x240>
    54da:	4601                	li	a2,0
    54dc:	0ff00513          	li	a0,255
    54e0:	004007b7          	lui	a5,0x400
    54e4:	bf15                	j	5418 <__addsf3+0xe8>
    54e6:	40980733          	sub	a4,a6,s1
    54ea:	e8ed                	bnez	s1,55dc <__addsf3+0x2ac>
    54ec:	140e0263          	beqz	t3,5630 <__addsf3+0x300>
    54f0:	177d                	addi	a4,a4,-1
    54f2:	18070863          	beqz	a4,5682 <__addsf3+0x352>
    54f6:	0ff00793          	li	a5,255
    54fa:	0ef81963          	bne	a6,a5,55ec <__addsf3+0x2bc>
    54fe:	892e                	mv	s2,a1
    5500:	8336                	mv	t1,a3
    5502:	bfd1                	j	54d6 <__addsf3+0x1a6>
    5504:	040e8b63          	beqz	t4,555a <__addsf3+0x22a>
    5508:	18fd                	addi	a7,a7,-1
    550a:	01de07b3          	add	a5,t3,t4
    550e:	f80887e3          	beqz	a7,549c <__addsf3+0x16c>
    5512:	0ff00793          	li	a5,255
    5516:	f6f493e3          	bne	s1,a5,547c <__addsf3+0x14c>
    551a:	bf75                	j	54d6 <__addsf3+0x1a6>
    551c:	08089563          	bnez	a7,55a6 <__addsf3+0x276>
    5520:	0485                	addi	s1,s1,1
    5522:	0fe4f713          	andi	a4,s1,254
    5526:	12071363          	bnez	a4,564c <__addsf3+0x31c>
    552a:	10051763          	bnez	a0,5638 <__addsf3+0x308>
    552e:	140e0f63          	beqz	t3,568c <__addsf3+0x35c>
    5532:	ee0e83e3          	beqz	t4,5418 <__addsf3+0xe8>
    5536:	01de07b3          	add	a5,t3,t4
    553a:	00579713          	slli	a4,a5,0x5
    553e:	4481                	li	s1,0
    5540:	00075763          	bgez	a4,554e <__addsf3+0x21e>
    5544:	fc000737          	lui	a4,0xfc000
    5548:	177d                	addi	a4,a4,-1
    554a:	8ff9                	and	a5,a5,a4
    554c:	4485                	li	s1,1
    554e:	0077f713          	andi	a4,a5,7
    5552:	e8071fe3          	bnez	a4,53f0 <__addsf3+0xc0>
    5556:	0037d313          	srli	t1,a5,0x3
    555a:	0ff00793          	li	a5,255
    555e:	f6f48ce3          	beq	s1,a5,54d6 <__addsf3+0x1a6>
    5562:	00931793          	slli	a5,t1,0x9
    5566:	83a5                	srli	a5,a5,0x9
    5568:	0ff4f513          	andi	a0,s1,255
    556c:	864a                	mv	a2,s2
    556e:	b56d                	j	5418 <__addsf3+0xe8>
    5570:	864a                	mv	a2,s2
    5572:	0ff00513          	li	a0,255
    5576:	4781                	li	a5,0
    5578:	b545                	j	5418 <__addsf3+0xe8>
    557a:	fc000737          	lui	a4,0xfc000
    557e:	177d                	addi	a4,a4,-1
    5580:	8ff9                	and	a5,a5,a4
    5582:	0077f713          	andi	a4,a5,7
    5586:	8c89                	sub	s1,s1,a0
    5588:	e60714e3          	bnez	a4,53f0 <__addsf3+0xc0>
    558c:	b7e9                	j	5556 <__addsf3+0x226>
    558e:	41de0433          	sub	s0,t3,t4
    5592:	00541793          	slli	a5,s0,0x5
    5596:	0c07c363          	bltz	a5,565c <__addsf3+0x32c>
    559a:	e20412e3          	bnez	s0,53be <__addsf3+0x8e>
    559e:	4601                	li	a2,0
    55a0:	4501                	li	a0,0
    55a2:	4781                	li	a5,0
    55a4:	bd95                	j	5418 <__addsf3+0xe8>
    55a6:	40980733          	sub	a4,a6,s1
    55aa:	c4ad                	beqz	s1,5614 <__addsf3+0x2e4>
    55ac:	0ff00793          	li	a5,255
    55b0:	f4f808e3          	beq	a6,a5,5500 <__addsf3+0x1d0>
    55b4:	040007b7          	lui	a5,0x4000
    55b8:	00fe6e33          	or	t3,t3,a5
    55bc:	47ed                	li	a5,27
    55be:	0ce7cc63          	blt	a5,a4,5696 <__addsf3+0x366>
    55c2:	02000793          	li	a5,32
    55c6:	8f99                	sub	a5,a5,a4
    55c8:	00fe17b3          	sll	a5,t3,a5
    55cc:	00ee5733          	srl	a4,t3,a4
    55d0:	00f037b3          	snez	a5,a5
    55d4:	8fd9                	or	a5,a5,a4
    55d6:	97f6                	add	a5,a5,t4
    55d8:	84c2                	mv	s1,a6
    55da:	b5c9                	j	549c <__addsf3+0x16c>
    55dc:	0ff00793          	li	a5,255
    55e0:	f0f80fe3          	beq	a6,a5,54fe <__addsf3+0x1ce>
    55e4:	040007b7          	lui	a5,0x4000
    55e8:	00fe6e33          	or	t3,t3,a5
    55ec:	47ed                	li	a5,27
    55ee:	08e7c363          	blt	a5,a4,5674 <__addsf3+0x344>
    55f2:	02000693          	li	a3,32
    55f6:	8e99                	sub	a3,a3,a4
    55f8:	00de16b3          	sll	a3,t3,a3
    55fc:	00ee57b3          	srl	a5,t3,a4
    5600:	00d03733          	snez	a4,a3
    5604:	8fd9                	or	a5,a5,a4
    5606:	40fe87b3          	sub	a5,t4,a5
    560a:	84c2                	mv	s1,a6
    560c:	892e                	mv	s2,a1
    560e:	b345                	j	53ae <__addsf3+0x7e>
    5610:	4785                	li	a5,1
    5612:	bb61                	j	53aa <__addsf3+0x7a>
    5614:	060e0e63          	beqz	t3,5690 <__addsf3+0x360>
    5618:	177d                	addi	a4,a4,-1
    561a:	01de07b3          	add	a5,t3,t4
    561e:	84c2                	mv	s1,a6
    5620:	e6070ee3          	beqz	a4,549c <__addsf3+0x16c>
    5624:	0ff00793          	li	a5,255
    5628:	f8f81ae3          	bne	a6,a5,55bc <__addsf3+0x28c>
    562c:	8336                	mv	t1,a3
    562e:	b565                	j	54d6 <__addsf3+0x1a6>
    5630:	8336                	mv	t1,a3
    5632:	84c2                	mv	s1,a6
    5634:	892e                	mv	s2,a1
    5636:	b715                	j	555a <__addsf3+0x22a>
    5638:	ec0e04e3          	beqz	t3,5500 <__addsf3+0x1d0>
    563c:	e80e8de3          	beqz	t4,54d6 <__addsf3+0x1a6>
    5640:	bd69                	j	54da <__addsf3+0x1aa>
    5642:	020e8d63          	beqz	t4,567c <__addsf3+0x34c>
    5646:	862e                	mv	a2,a1
    5648:	87b6                	mv	a5,a3
    564a:	b3f9                	j	5418 <__addsf3+0xe8>
    564c:	0ff00793          	li	a5,255
    5650:	f2f481e3          	beq	s1,a5,5572 <__addsf3+0x242>
    5654:	01de07b3          	add	a5,t3,t4
    5658:	8385                	srli	a5,a5,0x1
    565a:	bdd5                	j	554e <__addsf3+0x21e>
    565c:	41ce8433          	sub	s0,t4,t3
    5660:	892e                	mv	s2,a1
    5662:	bbb1                	j	53be <__addsf3+0x8e>
    5664:	fc0e1ce3          	bnez	t3,563c <__addsf3+0x30c>
    5668:	e60e89e3          	beqz	t4,54da <__addsf3+0x1aa>
    566c:	892e                	mv	s2,a1
    566e:	bd49                	j	5500 <__addsf3+0x1d0>
    5670:	4785                	li	a5,1
    5672:	b525                	j	549a <__addsf3+0x16a>
    5674:	4785                	li	a5,1
    5676:	bf41                	j	5606 <__addsf3+0x2d6>
    5678:	ec079be3          	bnez	a5,554e <__addsf3+0x21e>
    567c:	4601                	li	a2,0
    567e:	4781                	li	a5,0
    5680:	bb61                	j	5418 <__addsf3+0xe8>
    5682:	41ce87b3          	sub	a5,t4,t3
    5686:	84c2                	mv	s1,a6
    5688:	892e                	mv	s2,a1
    568a:	b315                	j	53ae <__addsf3+0x7e>
    568c:	87b6                	mv	a5,a3
    568e:	b369                	j	5418 <__addsf3+0xe8>
    5690:	8336                	mv	t1,a3
    5692:	84c2                	mv	s1,a6
    5694:	b5d9                	j	555a <__addsf3+0x22a>
    5696:	4785                	li	a5,1
    5698:	bf3d                	j	55d6 <__addsf3+0x2a6>

0000569a <__divsf3>:
    569a:	7139                	addi	sp,sp,-64
    569c:	01755793          	srli	a5,a0,0x17
    56a0:	d84a                	sw	s2,48(sp)
    56a2:	d256                	sw	s5,36(sp)
    56a4:	ce5e                	sw	s7,28(sp)
    56a6:	00951a93          	slli	s5,a0,0x9
    56aa:	01f55913          	srli	s2,a0,0x1f
    56ae:	de06                	sw	ra,60(sp)
    56b0:	dc22                	sw	s0,56(sp)
    56b2:	da26                	sw	s1,52(sp)
    56b4:	d64e                	sw	s3,44(sp)
    56b6:	d452                	sw	s4,40(sp)
    56b8:	d05a                	sw	s6,32(sp)
    56ba:	0ff7f793          	andi	a5,a5,255
    56be:	009ada93          	srli	s5,s5,0x9
    56c2:	8bca                	mv	s7,s2
    56c4:	12078263          	beqz	a5,57e8 <__divsf3+0x14e>
    56c8:	0ff00713          	li	a4,255
    56cc:	12e78463          	beq	a5,a4,57f4 <__divsf3+0x15a>
    56d0:	0a8e                	slli	s5,s5,0x3
    56d2:	04000737          	lui	a4,0x4000
    56d6:	00eaeab3          	or	s5,s5,a4
    56da:	f8178a13          	addi	s4,a5,-127 # 3ffff81 <_data_lma+0x3ff2d2d>
    56de:	4401                	li	s0,0
    56e0:	4b01                	li	s6,0
    56e2:	0175d793          	srli	a5,a1,0x17
    56e6:	00959493          	slli	s1,a1,0x9
    56ea:	0ff7f793          	andi	a5,a5,255
    56ee:	80a5                	srli	s1,s1,0x9
    56f0:	01f5d993          	srli	s3,a1,0x1f
    56f4:	c7fd                	beqz	a5,57e2 <__divsf3+0x148>
    56f6:	0ff00713          	li	a4,255
    56fa:	02e78763          	beq	a5,a4,5728 <__divsf3+0x8e>
    56fe:	048e                	slli	s1,s1,0x3
    5700:	f8178793          	addi	a5,a5,-127
    5704:	04000737          	lui	a4,0x4000
    5708:	8cd9                	or	s1,s1,a4
    570a:	40fa0a33          	sub	s4,s4,a5
    570e:	4681                	li	a3,0
    5710:	8c55                	or	s0,s0,a3
    5712:	00007717          	auipc	a4,0x7
    5716:	5b270713          	addi	a4,a4,1458 # ccc4 <u8x8_ssd1306_128x64_noname_display_info+0x218>
    571a:	040a                	slli	s0,s0,0x2
    571c:	943a                	add	s0,s0,a4
    571e:	401c                	lw	a5,0(s0)
    5720:	01394933          	xor	s2,s2,s3
    5724:	97ba                	add	a5,a5,a4
    5726:	8782                	jr	a5
    5728:	f01a0a13          	addi	s4,s4,-255
    572c:	e8f9                	bnez	s1,5802 <__divsf3+0x168>
    572e:	4689                	li	a3,2
    5730:	8c55                	or	s0,s0,a3
    5732:	00007717          	auipc	a4,0x7
    5736:	5d270713          	addi	a4,a4,1490 # cd04 <u8x8_ssd1306_128x64_noname_display_info+0x258>
    573a:	040a                	slli	s0,s0,0x2
    573c:	943a                	add	s0,s0,a4
    573e:	401c                	lw	a5,0(s0)
    5740:	01394933          	xor	s2,s2,s3
    5744:	97ba                	add	a5,a5,a4
    5746:	8782                	jr	a5
    5748:	4901                	li	s2,0
    574a:	0ff00713          	li	a4,255
    574e:	004007b7          	lui	a5,0x400
    5752:	00979513          	slli	a0,a5,0x9
    5756:	50f2                	lw	ra,60(sp)
    5758:	5462                	lw	s0,56(sp)
    575a:	01771793          	slli	a5,a4,0x17
    575e:	8125                	srli	a0,a0,0x9
    5760:	097e                	slli	s2,s2,0x1f
    5762:	8d5d                	or	a0,a0,a5
    5764:	01256533          	or	a0,a0,s2
    5768:	54d2                	lw	s1,52(sp)
    576a:	5942                	lw	s2,48(sp)
    576c:	59b2                	lw	s3,44(sp)
    576e:	5a22                	lw	s4,40(sp)
    5770:	5a92                	lw	s5,36(sp)
    5772:	5b02                	lw	s6,32(sp)
    5774:	4bf2                	lw	s7,28(sp)
    5776:	6121                	addi	sp,sp,64
    5778:	8082                	ret
    577a:	0ff00713          	li	a4,255
    577e:	4781                	li	a5,0
    5780:	bfc9                	j	5752 <__divsf3+0xb8>
    5782:	8aa6                	mv	s5,s1
    5784:	8bce                	mv	s7,s3
    5786:	8b36                	mv	s6,a3
    5788:	4789                	li	a5,2
    578a:	1afb0b63          	beq	s6,a5,5940 <__divsf3+0x2a6>
    578e:	478d                	li	a5,3
    5790:	fafb0ce3          	beq	s6,a5,5748 <__divsf3+0xae>
    5794:	4785                	li	a5,1
    5796:	0afb0a63          	beq	s6,a5,584a <__divsf3+0x1b0>
    579a:	07fa0713          	addi	a4,s4,127
    579e:	001bf913          	andi	s2,s7,1
    57a2:	12e05763          	blez	a4,58d0 <__divsf3+0x236>
    57a6:	007af793          	andi	a5,s5,7
    57aa:	c799                	beqz	a5,57b8 <__divsf3+0x11e>
    57ac:	00faf793          	andi	a5,s5,15
    57b0:	4691                	li	a3,4
    57b2:	00d78363          	beq	a5,a3,57b8 <__divsf3+0x11e>
    57b6:	0a91                	addi	s5,s5,4
    57b8:	004a9793          	slli	a5,s5,0x4
    57bc:	0007d963          	bgez	a5,57ce <__divsf3+0x134>
    57c0:	f80007b7          	lui	a5,0xf8000
    57c4:	17fd                	addi	a5,a5,-1
    57c6:	00fafab3          	and	s5,s5,a5
    57ca:	080a0713          	addi	a4,s4,128
    57ce:	0fe00793          	li	a5,254
    57d2:	fae7c4e3          	blt	a5,a4,577a <__divsf3+0xe0>
    57d6:	006a9793          	slli	a5,s5,0x6
    57da:	83a5                	srli	a5,a5,0x9
    57dc:	0ff77713          	andi	a4,a4,255
    57e0:	bf8d                	j	5752 <__divsf3+0xb8>
    57e2:	e4b9                	bnez	s1,5830 <__divsf3+0x196>
    57e4:	4685                	li	a3,1
    57e6:	b7a9                	j	5730 <__divsf3+0x96>
    57e8:	020a9463          	bnez	s5,5810 <__divsf3+0x176>
    57ec:	4411                	li	s0,4
    57ee:	4a01                	li	s4,0
    57f0:	4b05                	li	s6,1
    57f2:	bdc5                	j	56e2 <__divsf3+0x48>
    57f4:	000a9963          	bnez	s5,5806 <__divsf3+0x16c>
    57f8:	4421                	li	s0,8
    57fa:	0ff00a13          	li	s4,255
    57fe:	4b09                	li	s6,2
    5800:	b5cd                	j	56e2 <__divsf3+0x48>
    5802:	468d                	li	a3,3
    5804:	b731                	j	5710 <__divsf3+0x76>
    5806:	4431                	li	s0,12
    5808:	0ff00a13          	li	s4,255
    580c:	4b0d                	li	s6,3
    580e:	bdd1                	j	56e2 <__divsf3+0x48>
    5810:	8556                	mv	a0,s5
    5812:	c62e                	sw	a1,12(sp)
    5814:	015000ef          	jal	ra,6028 <__clzsi2>
    5818:	ffb50793          	addi	a5,a0,-5
    581c:	00fa9ab3          	sll	s5,s5,a5
    5820:	f8a00793          	li	a5,-118
    5824:	40a78a33          	sub	s4,a5,a0
    5828:	4401                	li	s0,0
    582a:	4b01                	li	s6,0
    582c:	45b2                	lw	a1,12(sp)
    582e:	bd55                	j	56e2 <__divsf3+0x48>
    5830:	8526                	mv	a0,s1
    5832:	7f6000ef          	jal	ra,6028 <__clzsi2>
    5836:	ffb50713          	addi	a4,a0,-5
    583a:	00aa07b3          	add	a5,s4,a0
    583e:	00e494b3          	sll	s1,s1,a4
    5842:	07678a13          	addi	s4,a5,118 # f8000076 <_eusrstack+0xd7ff8076>
    5846:	4681                	li	a3,0
    5848:	b5e1                	j	5710 <__divsf3+0x76>
    584a:	001bf913          	andi	s2,s7,1
    584e:	4701                	li	a4,0
    5850:	4781                	li	a5,0
    5852:	b701                	j	5752 <__divsf3+0xb8>
    5854:	6641                	lui	a2,0x10
    5856:	00549513          	slli	a0,s1,0x5
    585a:	167d                	addi	a2,a2,-1
    585c:	01055793          	srli	a5,a0,0x10
    5860:	8e69                	and	a2,a2,a0
    5862:	0a9afa63          	bgeu	s5,s1,5916 <__divsf3+0x27c>
    5866:	02fad5b3          	divu	a1,s5,a5
    586a:	1a7d                	addi	s4,s4,-1
    586c:	86d6                	mv	a3,s5
    586e:	4701                	li	a4,0
    5870:	02c58833          	mul	a6,a1,a2
    5874:	02f6f6b3          	remu	a3,a3,a5
    5878:	06c2                	slli	a3,a3,0x10
    587a:	8f55                	or	a4,a4,a3
    587c:	01077b63          	bgeu	a4,a6,5892 <__divsf3+0x1f8>
    5880:	972a                	add	a4,a4,a0
    5882:	fff58693          	addi	a3,a1,-1
    5886:	0aa76863          	bltu	a4,a0,5936 <__divsf3+0x29c>
    588a:	0b077663          	bgeu	a4,a6,5936 <__divsf3+0x29c>
    588e:	15f9                	addi	a1,a1,-2
    5890:	972a                	add	a4,a4,a0
    5892:	41070733          	sub	a4,a4,a6
    5896:	02f756b3          	divu	a3,a4,a5
    589a:	02f77733          	remu	a4,a4,a5
    589e:	02c68ab3          	mul	s5,a3,a2
    58a2:	01071793          	slli	a5,a4,0x10
    58a6:	0157fb63          	bgeu	a5,s5,58bc <__divsf3+0x222>
    58aa:	97aa                	add	a5,a5,a0
    58ac:	fff68713          	addi	a4,a3,-1 # 7dffffff <_eusrstack+0x5dff7fff>
    58b0:	08a7e163          	bltu	a5,a0,5932 <__divsf3+0x298>
    58b4:	0757ff63          	bgeu	a5,s5,5932 <__divsf3+0x298>
    58b8:	16f9                	addi	a3,a3,-2
    58ba:	97aa                	add	a5,a5,a0
    58bc:	05c2                	slli	a1,a1,0x10
    58be:	41578ab3          	sub	s5,a5,s5
    58c2:	8dd5                	or	a1,a1,a3
    58c4:	01503ab3          	snez	s5,s5
    58c8:	0155eab3          	or	s5,a1,s5
    58cc:	8bca                	mv	s7,s2
    58ce:	b5f1                	j	579a <__divsf3+0x100>
    58d0:	4685                	li	a3,1
    58d2:	8e99                	sub	a3,a3,a4
    58d4:	c711                	beqz	a4,58e0 <__divsf3+0x246>
    58d6:	466d                	li	a2,27
    58d8:	4701                	li	a4,0
    58da:	4781                	li	a5,0
    58dc:	e6d64be3          	blt	a2,a3,5752 <__divsf3+0xb8>
    58e0:	09ea0a13          	addi	s4,s4,158
    58e4:	014a9a33          	sll	s4,s5,s4
    58e8:	00dad7b3          	srl	a5,s5,a3
    58ec:	01403ab3          	snez	s5,s4
    58f0:	0157e7b3          	or	a5,a5,s5
    58f4:	0077f713          	andi	a4,a5,7
    58f8:	c719                	beqz	a4,5906 <__divsf3+0x26c>
    58fa:	00f7f713          	andi	a4,a5,15
    58fe:	4691                	li	a3,4
    5900:	00d70363          	beq	a4,a3,5906 <__divsf3+0x26c>
    5904:	0791                	addi	a5,a5,4
    5906:	00579713          	slli	a4,a5,0x5
    590a:	02074863          	bltz	a4,593a <__divsf3+0x2a0>
    590e:	079a                	slli	a5,a5,0x6
    5910:	83a5                	srli	a5,a5,0x9
    5912:	4701                	li	a4,0
    5914:	bd3d                	j	5752 <__divsf3+0xb8>
    5916:	001ad693          	srli	a3,s5,0x1
    591a:	02f6d5b3          	divu	a1,a3,a5
    591e:	01fa9713          	slli	a4,s5,0x1f
    5922:	8341                	srli	a4,a4,0x10
    5924:	02c58833          	mul	a6,a1,a2
    5928:	b7b1                	j	5874 <__divsf3+0x1da>
    592a:	8bce                	mv	s7,s3
    592c:	8b36                	mv	s6,a3
    592e:	4a81                	li	s5,0
    5930:	bda1                	j	5788 <__divsf3+0xee>
    5932:	86ba                	mv	a3,a4
    5934:	b761                	j	58bc <__divsf3+0x222>
    5936:	85b6                	mv	a1,a3
    5938:	bfa9                	j	5892 <__divsf3+0x1f8>
    593a:	4705                	li	a4,1
    593c:	4781                	li	a5,0
    593e:	bd11                	j	5752 <__divsf3+0xb8>
    5940:	001bf913          	andi	s2,s7,1
    5944:	0ff00713          	li	a4,255
    5948:	4781                	li	a5,0
    594a:	b521                	j	5752 <__divsf3+0xb8>

0000594c <__gesf2>:
    594c:	01755693          	srli	a3,a0,0x17
    5950:	008007b7          	lui	a5,0x800
    5954:	17fd                	addi	a5,a5,-1
    5956:	0175d613          	srli	a2,a1,0x17
    595a:	0ff6f693          	andi	a3,a3,255
    595e:	0ff00813          	li	a6,255
    5962:	00a7f8b3          	and	a7,a5,a0
    5966:	01f55713          	srli	a4,a0,0x1f
    596a:	8fed                	and	a5,a5,a1
    596c:	0ff67613          	andi	a2,a2,255
    5970:	81fd                	srli	a1,a1,0x1f
    5972:	03068163          	beq	a3,a6,5994 <__gesf2+0x48>
    5976:	01060c63          	beq	a2,a6,598e <__gesf2+0x42>
    597a:	e28d                	bnez	a3,599c <__gesf2+0x50>
    597c:	e211                	bnez	a2,5980 <__gesf2+0x34>
    597e:	c3b1                	beqz	a5,59c2 <__gesf2+0x76>
    5980:	02088e63          	beqz	a7,59bc <__gesf2+0x70>
    5984:	04b70563          	beq	a4,a1,59ce <__gesf2+0x82>
    5988:	4505                	li	a0,1
    598a:	e71d                	bnez	a4,59b8 <__gesf2+0x6c>
    598c:	8082                	ret
    598e:	d7f5                	beqz	a5,597a <__gesf2+0x2e>
    5990:	5579                	li	a0,-2
    5992:	8082                	ret
    5994:	fe089ee3          	bnez	a7,5990 <__gesf2+0x44>
    5998:	02d60963          	beq	a2,a3,59ca <__gesf2+0x7e>
    599c:	e211                	bnez	a2,59a0 <__gesf2+0x54>
    599e:	d7ed                	beqz	a5,5988 <__gesf2+0x3c>
    59a0:	feb714e3          	bne	a4,a1,5988 <__gesf2+0x3c>
    59a4:	fed642e3          	blt	a2,a3,5988 <__gesf2+0x3c>
    59a8:	00c6c763          	blt	a3,a2,59b6 <__gesf2+0x6a>
    59ac:	fd17eee3          	bltu	a5,a7,5988 <__gesf2+0x3c>
    59b0:	4501                	li	a0,0
    59b2:	fcf8fde3          	bgeu	a7,a5,598c <__gesf2+0x40>
    59b6:	e701                	bnez	a4,59be <__gesf2+0x72>
    59b8:	557d                	li	a0,-1
    59ba:	8082                	ret
    59bc:	ddf5                	beqz	a1,59b8 <__gesf2+0x6c>
    59be:	4505                	li	a0,1
    59c0:	8082                	ret
    59c2:	4501                	li	a0,0
    59c4:	fc0892e3          	bnez	a7,5988 <__gesf2+0x3c>
    59c8:	8082                	ret
    59ca:	dbf9                	beqz	a5,59a0 <__gesf2+0x54>
    59cc:	b7d1                	j	5990 <__gesf2+0x44>
    59ce:	4681                	li	a3,0
    59d0:	bfe1                	j	59a8 <__gesf2+0x5c>

000059d2 <__lesf2>:
    59d2:	01755693          	srli	a3,a0,0x17
    59d6:	008007b7          	lui	a5,0x800
    59da:	17fd                	addi	a5,a5,-1
    59dc:	0175d613          	srli	a2,a1,0x17
    59e0:	0ff6f693          	andi	a3,a3,255
    59e4:	0ff00813          	li	a6,255
    59e8:	00a7f8b3          	and	a7,a5,a0
    59ec:	01f55713          	srli	a4,a0,0x1f
    59f0:	8fed                	and	a5,a5,a1
    59f2:	0ff67613          	andi	a2,a2,255
    59f6:	81fd                	srli	a1,a1,0x1f
    59f8:	03068763          	beq	a3,a6,5a26 <__lesf2+0x54>
    59fc:	01060963          	beq	a2,a6,5a0e <__lesf2+0x3c>
    5a00:	ea85                	bnez	a3,5a30 <__lesf2+0x5e>
    5a02:	ea11                	bnez	a2,5a16 <__lesf2+0x44>
    5a04:	eb89                	bnez	a5,5a16 <__lesf2+0x44>
    5a06:	4501                	li	a0,0
    5a08:	00089b63          	bnez	a7,5a1e <__lesf2+0x4c>
    5a0c:	8082                	ret
    5a0e:	4509                	li	a0,2
    5a10:	fff5                	bnez	a5,5a0c <__lesf2+0x3a>
    5a12:	dae5                	beqz	a3,5a02 <__lesf2+0x30>
    5a14:	a831                	j	5a30 <__lesf2+0x5e>
    5a16:	02088c63          	beqz	a7,5a4e <__lesf2+0x7c>
    5a1a:	04b70063          	beq	a4,a1,5a5a <__lesf2+0x88>
    5a1e:	4505                	li	a0,1
    5a20:	d775                	beqz	a4,5a0c <__lesf2+0x3a>
    5a22:	557d                	li	a0,-1
    5a24:	8082                	ret
    5a26:	4509                	li	a0,2
    5a28:	02089863          	bnez	a7,5a58 <__lesf2+0x86>
    5a2c:	02d60463          	beq	a2,a3,5a54 <__lesf2+0x82>
    5a30:	e211                	bnez	a2,5a34 <__lesf2+0x62>
    5a32:	d7f5                	beqz	a5,5a1e <__lesf2+0x4c>
    5a34:	feb715e3          	bne	a4,a1,5a1e <__lesf2+0x4c>
    5a38:	fed643e3          	blt	a2,a3,5a1e <__lesf2+0x4c>
    5a3c:	00c6c763          	blt	a3,a2,5a4a <__lesf2+0x78>
    5a40:	fd17efe3          	bltu	a5,a7,5a1e <__lesf2+0x4c>
    5a44:	4501                	li	a0,0
    5a46:	fcf8f3e3          	bgeu	a7,a5,5a0c <__lesf2+0x3a>
    5a4a:	e319                	bnez	a4,5a50 <__lesf2+0x7e>
    5a4c:	bfd9                	j	5a22 <__lesf2+0x50>
    5a4e:	d9f1                	beqz	a1,5a22 <__lesf2+0x50>
    5a50:	4505                	li	a0,1
    5a52:	8082                	ret
    5a54:	d3e5                	beqz	a5,5a34 <__lesf2+0x62>
    5a56:	8082                	ret
    5a58:	8082                	ret
    5a5a:	4681                	li	a3,0
    5a5c:	b7c5                	j	5a3c <__lesf2+0x6a>

00005a5e <__mulsf3>:
    5a5e:	7179                	addi	sp,sp,-48
    5a60:	d422                	sw	s0,40(sp)
    5a62:	01755413          	srli	s0,a0,0x17
    5a66:	ce4e                	sw	s3,28(sp)
    5a68:	cc52                	sw	s4,24(sp)
    5a6a:	00951993          	slli	s3,a0,0x9
    5a6e:	d606                	sw	ra,44(sp)
    5a70:	d226                	sw	s1,36(sp)
    5a72:	d04a                	sw	s2,32(sp)
    5a74:	ca56                	sw	s5,20(sp)
    5a76:	c85a                	sw	s6,16(sp)
    5a78:	0ff47413          	andi	s0,s0,255
    5a7c:	0099d993          	srli	s3,s3,0x9
    5a80:	01f55a13          	srli	s4,a0,0x1f
    5a84:	c469                	beqz	s0,5b4e <__mulsf3+0xf0>
    5a86:	0ff00793          	li	a5,255
    5a8a:	0ef40863          	beq	s0,a5,5b7a <__mulsf3+0x11c>
    5a8e:	00399793          	slli	a5,s3,0x3
    5a92:	04000737          	lui	a4,0x4000
    5a96:	00e7e9b3          	or	s3,a5,a4
    5a9a:	f8140413          	addi	s0,s0,-127 # 3ffff81 <_data_lma+0x3ff2d2d>
    5a9e:	4481                	li	s1,0
    5aa0:	4b01                	li	s6,0
    5aa2:	0175d713          	srli	a4,a1,0x17
    5aa6:	00959a93          	slli	s5,a1,0x9
    5aaa:	0ff77713          	andi	a4,a4,255
    5aae:	009ada93          	srli	s5,s5,0x9
    5ab2:	01f5d913          	srli	s2,a1,0x1f
    5ab6:	cf45                	beqz	a4,5b6e <__mulsf3+0x110>
    5ab8:	0ff00793          	li	a5,255
    5abc:	02f70c63          	beq	a4,a5,5af4 <__mulsf3+0x96>
    5ac0:	0a8e                	slli	s5,s5,0x3
    5ac2:	f8170713          	addi	a4,a4,-127 # 3ffff81 <_data_lma+0x3ff2d2d>
    5ac6:	040007b7          	lui	a5,0x4000
    5aca:	00faeab3          	or	s5,s5,a5
    5ace:	943a                	add	s0,s0,a4
    5ad0:	4601                	li	a2,0
    5ad2:	012a4533          	xor	a0,s4,s2
    5ad6:	47bd                	li	a5,15
    5ad8:	86aa                	mv	a3,a0
    5ada:	00140593          	addi	a1,s0,1
    5ade:	1097e063          	bltu	a5,s1,5bde <__mulsf3+0x180>
    5ae2:	00007717          	auipc	a4,0x7
    5ae6:	26270713          	addi	a4,a4,610 # cd44 <u8x8_ssd1306_128x64_noname_display_info+0x298>
    5aea:	048a                	slli	s1,s1,0x2
    5aec:	94ba                	add	s1,s1,a4
    5aee:	409c                	lw	a5,0(s1)
    5af0:	97ba                	add	a5,a5,a4
    5af2:	8782                	jr	a5
    5af4:	0ff40413          	addi	s0,s0,255
    5af8:	0c0a9663          	bnez	s5,5bc4 <__mulsf3+0x166>
    5afc:	0024e493          	ori	s1,s1,2
    5b00:	4609                	li	a2,2
    5b02:	bfc1                	j	5ad2 <__mulsf3+0x74>
    5b04:	4501                	li	a0,0
    5b06:	0ff00713          	li	a4,255
    5b0a:	004007b7          	lui	a5,0x400
    5b0e:	50b2                	lw	ra,44(sp)
    5b10:	5422                	lw	s0,40(sp)
    5b12:	07a6                	slli	a5,a5,0x9
    5b14:	075e                	slli	a4,a4,0x17
    5b16:	83a5                	srli	a5,a5,0x9
    5b18:	057e                	slli	a0,a0,0x1f
    5b1a:	8fd9                	or	a5,a5,a4
    5b1c:	5492                	lw	s1,36(sp)
    5b1e:	5902                	lw	s2,32(sp)
    5b20:	49f2                	lw	s3,28(sp)
    5b22:	4a62                	lw	s4,24(sp)
    5b24:	4ad2                	lw	s5,20(sp)
    5b26:	4b42                	lw	s6,16(sp)
    5b28:	8d5d                	or	a0,a0,a5
    5b2a:	6145                	addi	sp,sp,48
    5b2c:	8082                	ret
    5b2e:	86ca                	mv	a3,s2
    5b30:	89d6                	mv	s3,s5
    5b32:	8b32                	mv	s6,a2
    5b34:	4789                	li	a5,2
    5b36:	08fb0f63          	beq	s6,a5,5bd4 <__mulsf3+0x176>
    5b3a:	478d                	li	a5,3
    5b3c:	fcfb04e3          	beq	s6,a5,5b04 <__mulsf3+0xa6>
    5b40:	4785                	li	a5,1
    5b42:	8536                	mv	a0,a3
    5b44:	1afb1063          	bne	s6,a5,5ce4 <__mulsf3+0x286>
    5b48:	4701                	li	a4,0
    5b4a:	4781                	li	a5,0
    5b4c:	b7c9                	j	5b0e <__mulsf3+0xb0>
    5b4e:	04099d63          	bnez	s3,5ba8 <__mulsf3+0x14a>
    5b52:	0175d713          	srli	a4,a1,0x17
    5b56:	00959a93          	slli	s5,a1,0x9
    5b5a:	0ff77713          	andi	a4,a4,255
    5b5e:	4491                	li	s1,4
    5b60:	4401                	li	s0,0
    5b62:	4b05                	li	s6,1
    5b64:	009ada93          	srli	s5,s5,0x9
    5b68:	01f5d913          	srli	s2,a1,0x1f
    5b6c:	f731                	bnez	a4,5ab8 <__mulsf3+0x5a>
    5b6e:	000a9d63          	bnez	s5,5b88 <__mulsf3+0x12a>
    5b72:	0014e493          	ori	s1,s1,1
    5b76:	4605                	li	a2,1
    5b78:	bfa9                	j	5ad2 <__mulsf3+0x74>
    5b7a:	02099263          	bnez	s3,5b9e <__mulsf3+0x140>
    5b7e:	44a1                	li	s1,8
    5b80:	0ff00413          	li	s0,255
    5b84:	4b09                	li	s6,2
    5b86:	bf31                	j	5aa2 <__mulsf3+0x44>
    5b88:	8556                	mv	a0,s5
    5b8a:	2979                	jal	6028 <__clzsi2>
    5b8c:	ffb50793          	addi	a5,a0,-5
    5b90:	8c09                	sub	s0,s0,a0
    5b92:	00fa9ab3          	sll	s5,s5,a5
    5b96:	f8a40413          	addi	s0,s0,-118
    5b9a:	4601                	li	a2,0
    5b9c:	bf1d                	j	5ad2 <__mulsf3+0x74>
    5b9e:	44b1                	li	s1,12
    5ba0:	0ff00413          	li	s0,255
    5ba4:	4b0d                	li	s6,3
    5ba6:	bdf5                	j	5aa2 <__mulsf3+0x44>
    5ba8:	854e                	mv	a0,s3
    5baa:	c62e                	sw	a1,12(sp)
    5bac:	29b5                	jal	6028 <__clzsi2>
    5bae:	ffb50793          	addi	a5,a0,-5
    5bb2:	f8a00413          	li	s0,-118
    5bb6:	00f999b3          	sll	s3,s3,a5
    5bba:	8c09                	sub	s0,s0,a0
    5bbc:	4481                	li	s1,0
    5bbe:	4b01                	li	s6,0
    5bc0:	45b2                	lw	a1,12(sp)
    5bc2:	b5c5                	j	5aa2 <__mulsf3+0x44>
    5bc4:	0034e493          	ori	s1,s1,3
    5bc8:	460d                	li	a2,3
    5bca:	b721                	j	5ad2 <__mulsf3+0x74>
    5bcc:	4789                	li	a5,2
    5bce:	86d2                	mv	a3,s4
    5bd0:	f6fb15e3          	bne	s6,a5,5b3a <__mulsf3+0xdc>
    5bd4:	8536                	mv	a0,a3
    5bd6:	0ff00713          	li	a4,255
    5bda:	4781                	li	a5,0
    5bdc:	bf0d                	j	5b0e <__mulsf3+0xb0>
    5bde:	6341                	lui	t1,0x10
    5be0:	fff30693          	addi	a3,t1,-1 # ffff <_data_lma+0x2dab>
    5be4:	0109d613          	srli	a2,s3,0x10
    5be8:	010ad893          	srli	a7,s5,0x10
    5bec:	00d9f7b3          	and	a5,s3,a3
    5bf0:	00dafab3          	and	s5,s5,a3
    5bf4:	03578833          	mul	a6,a5,s5
    5bf8:	02f889b3          	mul	s3,a7,a5
    5bfc:	01085713          	srli	a4,a6,0x10
    5c00:	03560ab3          	mul	s5,a2,s5
    5c04:	99d6                	add	s3,s3,s5
    5c06:	974e                	add	a4,a4,s3
    5c08:	03160633          	mul	a2,a2,a7
    5c0c:	01577363          	bgeu	a4,s5,5c12 <__mulsf3+0x1b4>
    5c10:	961a                	add	a2,a2,t1
    5c12:	67c1                	lui	a5,0x10
    5c14:	17fd                	addi	a5,a5,-1
    5c16:	00f776b3          	and	a3,a4,a5
    5c1a:	00f87833          	and	a6,a6,a5
    5c1e:	06c2                	slli	a3,a3,0x10
    5c20:	96c2                	add	a3,a3,a6
    5c22:	00669993          	slli	s3,a3,0x6
    5c26:	01075793          	srli	a5,a4,0x10
    5c2a:	013039b3          	snez	s3,s3
    5c2e:	82e9                	srli	a3,a3,0x1a
    5c30:	97b2                	add	a5,a5,a2
    5c32:	079a                	slli	a5,a5,0x6
    5c34:	00d9e6b3          	or	a3,s3,a3
    5c38:	00d7e9b3          	or	s3,a5,a3
    5c3c:	00499793          	slli	a5,s3,0x4
    5c40:	0007d963          	bgez	a5,5c52 <__mulsf3+0x1f4>
    5c44:	0019d713          	srli	a4,s3,0x1
    5c48:	0019f793          	andi	a5,s3,1
    5c4c:	00f769b3          	or	s3,a4,a5
    5c50:	842e                	mv	s0,a1
    5c52:	07f40713          	addi	a4,s0,127
    5c56:	04e05063          	blez	a4,5c96 <__mulsf3+0x238>
    5c5a:	0079f793          	andi	a5,s3,7
    5c5e:	c799                	beqz	a5,5c6c <__mulsf3+0x20e>
    5c60:	00f9f793          	andi	a5,s3,15
    5c64:	4691                	li	a3,4
    5c66:	00d78363          	beq	a5,a3,5c6c <__mulsf3+0x20e>
    5c6a:	0991                	addi	s3,s3,4
    5c6c:	00499793          	slli	a5,s3,0x4
    5c70:	0007d963          	bgez	a5,5c82 <__mulsf3+0x224>
    5c74:	f80007b7          	lui	a5,0xf8000
    5c78:	17fd                	addi	a5,a5,-1
    5c7a:	00f9f9b3          	and	s3,s3,a5
    5c7e:	08040713          	addi	a4,s0,128
    5c82:	0fe00793          	li	a5,254
    5c86:	04e7cb63          	blt	a5,a4,5cdc <__mulsf3+0x27e>
    5c8a:	00699793          	slli	a5,s3,0x6
    5c8e:	83a5                	srli	a5,a5,0x9
    5c90:	0ff77713          	andi	a4,a4,255
    5c94:	bdad                	j	5b0e <__mulsf3+0xb0>
    5c96:	4785                	li	a5,1
    5c98:	40e786b3          	sub	a3,a5,a4
    5c9c:	c711                	beqz	a4,5ca8 <__mulsf3+0x24a>
    5c9e:	466d                	li	a2,27
    5ca0:	4701                	li	a4,0
    5ca2:	4781                	li	a5,0
    5ca4:	e6d645e3          	blt	a2,a3,5b0e <__mulsf3+0xb0>
    5ca8:	09e40713          	addi	a4,s0,158
    5cac:	00e99733          	sll	a4,s3,a4
    5cb0:	00e03733          	snez	a4,a4
    5cb4:	00d9d7b3          	srl	a5,s3,a3
    5cb8:	8fd9                	or	a5,a5,a4
    5cba:	0077f713          	andi	a4,a5,7
    5cbe:	c719                	beqz	a4,5ccc <__mulsf3+0x26e>
    5cc0:	00f7f713          	andi	a4,a5,15
    5cc4:	4691                	li	a3,4
    5cc6:	00d70363          	beq	a4,a3,5ccc <__mulsf3+0x26e>
    5cca:	0791                	addi	a5,a5,4
    5ccc:	00579713          	slli	a4,a5,0x5
    5cd0:	00074c63          	bltz	a4,5ce8 <__mulsf3+0x28a>
    5cd4:	079a                	slli	a5,a5,0x6
    5cd6:	83a5                	srli	a5,a5,0x9
    5cd8:	4701                	li	a4,0
    5cda:	bd15                	j	5b0e <__mulsf3+0xb0>
    5cdc:	0ff00713          	li	a4,255
    5ce0:	4781                	li	a5,0
    5ce2:	b535                	j	5b0e <__mulsf3+0xb0>
    5ce4:	842e                	mv	s0,a1
    5ce6:	b7b5                	j	5c52 <__mulsf3+0x1f4>
    5ce8:	4705                	li	a4,1
    5cea:	4781                	li	a5,0
    5cec:	b50d                	j	5b0e <__mulsf3+0xb0>

00005cee <__fixunssfsi>:
    5cee:	01755713          	srli	a4,a0,0x17
    5cf2:	00800637          	lui	a2,0x800
    5cf6:	fff60793          	addi	a5,a2,-1 # 7fffff <_data_lma+0x7f2dab>
    5cfa:	0ff77713          	andi	a4,a4,255
    5cfe:	07e00593          	li	a1,126
    5d02:	00a7f6b3          	and	a3,a5,a0
    5d06:	01f55793          	srli	a5,a0,0x1f
    5d0a:	4501                	li	a0,0
    5d0c:	00e5f463          	bgeu	a1,a4,5d14 <__fixunssfsi+0x26>
    5d10:	c399                	beqz	a5,5d16 <__fixunssfsi+0x28>
    5d12:	8082                	ret
    5d14:	8082                	ret
    5d16:	09e00793          	li	a5,158
    5d1a:	557d                	li	a0,-1
    5d1c:	fee7ebe3          	bltu	a5,a4,5d12 <__fixunssfsi+0x24>
    5d20:	09500593          	li	a1,149
    5d24:	00c6e7b3          	or	a5,a3,a2
    5d28:	00e5d763          	bge	a1,a4,5d36 <__fixunssfsi+0x48>
    5d2c:	f6a70713          	addi	a4,a4,-150
    5d30:	00e79533          	sll	a0,a5,a4
    5d34:	8082                	ret
    5d36:	09600513          	li	a0,150
    5d3a:	40e50733          	sub	a4,a0,a4
    5d3e:	00e7d533          	srl	a0,a5,a4
    5d42:	8082                	ret

00005d44 <__floatunsisf>:
    5d44:	1141                	addi	sp,sp,-16
    5d46:	c606                	sw	ra,12(sp)
    5d48:	c422                	sw	s0,8(sp)
    5d4a:	cd15                	beqz	a0,5d86 <__floatunsisf+0x42>
    5d4c:	842a                	mv	s0,a0
    5d4e:	2ce9                	jal	6028 <__clzsi2>
    5d50:	09e00793          	li	a5,158
    5d54:	40a78733          	sub	a4,a5,a0
    5d58:	09600793          	li	a5,150
    5d5c:	04e7c063          	blt	a5,a4,5d9c <__floatunsisf+0x58>
    5d60:	46a1                	li	a3,8
    5d62:	0ff77793          	andi	a5,a4,255
    5d66:	00a6d563          	bge	a3,a0,5d70 <__floatunsisf+0x2c>
    5d6a:	1561                	addi	a0,a0,-8
    5d6c:	00a41433          	sll	s0,s0,a0
    5d70:	0426                	slli	s0,s0,0x9
    5d72:	8025                	srli	s0,s0,0x9
    5d74:	0426                	slli	s0,s0,0x9
    5d76:	00945513          	srli	a0,s0,0x9
    5d7a:	40b2                	lw	ra,12(sp)
    5d7c:	4422                	lw	s0,8(sp)
    5d7e:	07de                	slli	a5,a5,0x17
    5d80:	8d5d                	or	a0,a0,a5
    5d82:	0141                	addi	sp,sp,16
    5d84:	8082                	ret
    5d86:	4401                	li	s0,0
    5d88:	0426                	slli	s0,s0,0x9
    5d8a:	00945513          	srli	a0,s0,0x9
    5d8e:	40b2                	lw	ra,12(sp)
    5d90:	4422                	lw	s0,8(sp)
    5d92:	4781                	li	a5,0
    5d94:	07de                	slli	a5,a5,0x17
    5d96:	8d5d                	or	a0,a0,a5
    5d98:	0141                	addi	sp,sp,16
    5d9a:	8082                	ret
    5d9c:	09900793          	li	a5,153
    5da0:	00e7dd63          	bge	a5,a4,5dba <__floatunsisf+0x76>
    5da4:	01b50793          	addi	a5,a0,27
    5da8:	4695                	li	a3,5
    5daa:	00f417b3          	sll	a5,s0,a5
    5dae:	8e89                	sub	a3,a3,a0
    5db0:	00f037b3          	snez	a5,a5
    5db4:	00d45433          	srl	s0,s0,a3
    5db8:	8c5d                	or	s0,s0,a5
    5dba:	4795                	li	a5,5
    5dbc:	00a7d663          	bge	a5,a0,5dc8 <__floatunsisf+0x84>
    5dc0:	ffb50793          	addi	a5,a0,-5
    5dc4:	00f41433          	sll	s0,s0,a5
    5dc8:	fc0006b7          	lui	a3,0xfc000
    5dcc:	16fd                	addi	a3,a3,-1
    5dce:	00747793          	andi	a5,s0,7
    5dd2:	00d47633          	and	a2,s0,a3
    5dd6:	c385                	beqz	a5,5df6 <__floatunsisf+0xb2>
    5dd8:	00f47793          	andi	a5,s0,15
    5ddc:	4591                	li	a1,4
    5dde:	00b78c63          	beq	a5,a1,5df6 <__floatunsisf+0xb2>
    5de2:	0611                	addi	a2,a2,4
    5de4:	00561793          	slli	a5,a2,0x5
    5de8:	0007d763          	bgez	a5,5df6 <__floatunsisf+0xb2>
    5dec:	09f00793          	li	a5,159
    5df0:	8e75                	and	a2,a2,a3
    5df2:	40a78733          	sub	a4,a5,a0
    5df6:	00661413          	slli	s0,a2,0x6
    5dfa:	8025                	srli	s0,s0,0x9
    5dfc:	0426                	slli	s0,s0,0x9
    5dfe:	00945513          	srli	a0,s0,0x9
    5e02:	40b2                	lw	ra,12(sp)
    5e04:	4422                	lw	s0,8(sp)
    5e06:	0ff77793          	andi	a5,a4,255
    5e0a:	07de                	slli	a5,a5,0x17
    5e0c:	8d5d                	or	a0,a0,a5
    5e0e:	0141                	addi	sp,sp,16
    5e10:	8082                	ret

00005e12 <__extendsfdf2>:
    5e12:	01755713          	srli	a4,a0,0x17
    5e16:	0ff77713          	andi	a4,a4,255
    5e1a:	1141                	addi	sp,sp,-16
    5e1c:	00170793          	addi	a5,a4,1
    5e20:	c422                	sw	s0,8(sp)
    5e22:	c226                	sw	s1,4(sp)
    5e24:	00951413          	slli	s0,a0,0x9
    5e28:	c606                	sw	ra,12(sp)
    5e2a:	0fe7f793          	andi	a5,a5,254
    5e2e:	8025                	srli	s0,s0,0x9
    5e30:	01f55493          	srli	s1,a0,0x1f
    5e34:	c785                	beqz	a5,5e5c <__extendsfdf2+0x4a>
    5e36:	00345793          	srli	a5,s0,0x3
    5e3a:	38070713          	addi	a4,a4,896
    5e3e:	0476                	slli	s0,s0,0x1d
    5e40:	07b2                	slli	a5,a5,0xc
    5e42:	0752                	slli	a4,a4,0x14
    5e44:	83b1                	srli	a5,a5,0xc
    5e46:	01f49513          	slli	a0,s1,0x1f
    5e4a:	8fd9                	or	a5,a5,a4
    5e4c:	8fc9                	or	a5,a5,a0
    5e4e:	40b2                	lw	ra,12(sp)
    5e50:	8522                	mv	a0,s0
    5e52:	4422                	lw	s0,8(sp)
    5e54:	4492                	lw	s1,4(sp)
    5e56:	85be                	mv	a1,a5
    5e58:	0141                	addi	sp,sp,16
    5e5a:	8082                	ret
    5e5c:	eb05                	bnez	a4,5e8c <__extendsfdf2+0x7a>
    5e5e:	c439                	beqz	s0,5eac <__extendsfdf2+0x9a>
    5e60:	8522                	mv	a0,s0
    5e62:	22d9                	jal	6028 <__clzsi2>
    5e64:	47a9                	li	a5,10
    5e66:	04a7c663          	blt	a5,a0,5eb2 <__extendsfdf2+0xa0>
    5e6a:	472d                	li	a4,11
    5e6c:	8f09                	sub	a4,a4,a0
    5e6e:	01550793          	addi	a5,a0,21
    5e72:	00e45733          	srl	a4,s0,a4
    5e76:	00f41433          	sll	s0,s0,a5
    5e7a:	00c71793          	slli	a5,a4,0xc
    5e7e:	38900713          	li	a4,905
    5e82:	8f09                	sub	a4,a4,a0
    5e84:	83b1                	srli	a5,a5,0xc
    5e86:	7ff77713          	andi	a4,a4,2047
    5e8a:	bf5d                	j	5e40 <__extendsfdf2+0x2e>
    5e8c:	cc01                	beqz	s0,5ea4 <__extendsfdf2+0x92>
    5e8e:	00345713          	srli	a4,s0,0x3
    5e92:	000807b7          	lui	a5,0x80
    5e96:	8fd9                	or	a5,a5,a4
    5e98:	07b2                	slli	a5,a5,0xc
    5e9a:	0476                	slli	s0,s0,0x1d
    5e9c:	83b1                	srli	a5,a5,0xc
    5e9e:	7ff00713          	li	a4,2047
    5ea2:	bf79                	j	5e40 <__extendsfdf2+0x2e>
    5ea4:	7ff00713          	li	a4,2047
    5ea8:	4781                	li	a5,0
    5eaa:	bf59                	j	5e40 <__extendsfdf2+0x2e>
    5eac:	4701                	li	a4,0
    5eae:	4781                	li	a5,0
    5eb0:	bf41                	j	5e40 <__extendsfdf2+0x2e>
    5eb2:	ff550713          	addi	a4,a0,-11
    5eb6:	00e41733          	sll	a4,s0,a4
    5eba:	4401                	li	s0,0
    5ebc:	bf7d                	j	5e7a <__extendsfdf2+0x68>

00005ebe <__truncdfsf2>:
    5ebe:	0145d693          	srli	a3,a1,0x14
    5ec2:	00c59793          	slli	a5,a1,0xc
    5ec6:	7ff6f693          	andi	a3,a3,2047
    5eca:	83b1                	srli	a5,a5,0xc
    5ecc:	00168613          	addi	a2,a3,1 # fc000001 <_eusrstack+0xdbff8001>
    5ed0:	078e                	slli	a5,a5,0x3
    5ed2:	01d55713          	srli	a4,a0,0x1d
    5ed6:	7fe67613          	andi	a2,a2,2046
    5eda:	81fd                	srli	a1,a1,0x1f
    5edc:	8f5d                	or	a4,a4,a5
    5ede:	00351893          	slli	a7,a0,0x3
    5ee2:	ce35                	beqz	a2,5f5e <__truncdfsf2+0xa0>
    5ee4:	c8068813          	addi	a6,a3,-896
    5ee8:	0fe00793          	li	a5,254
    5eec:	0107dd63          	bge	a5,a6,5f06 <__truncdfsf2+0x48>
    5ef0:	4781                	li	a5,0
    5ef2:	00979513          	slli	a0,a5,0x9
    5ef6:	0ff00693          	li	a3,255
    5efa:	06de                	slli	a3,a3,0x17
    5efc:	8125                	srli	a0,a0,0x9
    5efe:	05fe                	slli	a1,a1,0x1f
    5f00:	8d55                	or	a0,a0,a3
    5f02:	8d4d                	or	a0,a0,a1
    5f04:	8082                	ret
    5f06:	0b005563          	blez	a6,5fb0 <__truncdfsf2+0xf2>
    5f0a:	00651793          	slli	a5,a0,0x6
    5f0e:	070e                	slli	a4,a4,0x3
    5f10:	00f037b3          	snez	a5,a5
    5f14:	8fd9                	or	a5,a5,a4
    5f16:	01d8d893          	srli	a7,a7,0x1d
    5f1a:	0117e7b3          	or	a5,a5,a7
    5f1e:	0077f713          	andi	a4,a5,7
    5f22:	10070163          	beqz	a4,6024 <__truncdfsf2+0x166>
    5f26:	00f7f713          	andi	a4,a5,15
    5f2a:	4691                	li	a3,4
    5f2c:	00d70363          	beq	a4,a3,5f32 <__truncdfsf2+0x74>
    5f30:	0791                	addi	a5,a5,4
    5f32:	04000737          	lui	a4,0x4000
    5f36:	8f7d                	and	a4,a4,a5
    5f38:	c775                	beqz	a4,6024 <__truncdfsf2+0x166>
    5f3a:	00180713          	addi	a4,a6,1
    5f3e:	0ff00613          	li	a2,255
    5f42:	0ff77693          	andi	a3,a4,255
    5f46:	fac705e3          	beq	a4,a2,5ef0 <__truncdfsf2+0x32>
    5f4a:	079a                	slli	a5,a5,0x6
    5f4c:	83a5                	srli	a5,a5,0x9
    5f4e:	00979513          	slli	a0,a5,0x9
    5f52:	06de                	slli	a3,a3,0x17
    5f54:	8125                	srli	a0,a0,0x9
    5f56:	05fe                	slli	a1,a1,0x1f
    5f58:	8d55                	or	a0,a0,a3
    5f5a:	8d4d                	or	a0,a0,a1
    5f5c:	8082                	ret
    5f5e:	011767b3          	or	a5,a4,a7
    5f62:	ee99                	bnez	a3,5f80 <__truncdfsf2+0xc2>
    5f64:	cf85                	beqz	a5,5f9c <__truncdfsf2+0xde>
    5f66:	4795                	li	a5,5
    5f68:	079a                	slli	a5,a5,0x6
    5f6a:	83a5                	srli	a5,a5,0x9
    5f6c:	00979513          	slli	a0,a5,0x9
    5f70:	0ff6f693          	andi	a3,a3,255
    5f74:	06de                	slli	a3,a3,0x17
    5f76:	8125                	srli	a0,a0,0x9
    5f78:	05fe                	slli	a1,a1,0x1f
    5f7a:	8d55                	or	a0,a0,a3
    5f7c:	8d4d                	or	a0,a0,a1
    5f7e:	8082                	ret
    5f80:	dba5                	beqz	a5,5ef0 <__truncdfsf2+0x32>
    5f82:	004007b7          	lui	a5,0x400
    5f86:	00979513          	slli	a0,a5,0x9
    5f8a:	0ff00693          	li	a3,255
    5f8e:	06de                	slli	a3,a3,0x17
    5f90:	4581                	li	a1,0
    5f92:	8125                	srli	a0,a0,0x9
    5f94:	05fe                	slli	a1,a1,0x1f
    5f96:	8d55                	or	a0,a0,a3
    5f98:	8d4d                	or	a0,a0,a1
    5f9a:	8082                	ret
    5f9c:	4781                	li	a5,0
    5f9e:	00979513          	slli	a0,a5,0x9
    5fa2:	4681                	li	a3,0
    5fa4:	06de                	slli	a3,a3,0x17
    5fa6:	8125                	srli	a0,a0,0x9
    5fa8:	05fe                	slli	a1,a1,0x1f
    5faa:	8d55                	or	a0,a0,a3
    5fac:	8d4d                	or	a0,a0,a1
    5fae:	8082                	ret
    5fb0:	57a5                	li	a5,-23
    5fb2:	04f84863          	blt	a6,a5,6002 <__truncdfsf2+0x144>
    5fb6:	47f9                	li	a5,30
    5fb8:	00800637          	lui	a2,0x800
    5fbc:	410787b3          	sub	a5,a5,a6
    5fc0:	457d                	li	a0,31
    5fc2:	8e59                	or	a2,a2,a4
    5fc4:	04f55163          	bge	a0,a5,6006 <__truncdfsf2+0x148>
    5fc8:	5779                	li	a4,-2
    5fca:	41070733          	sub	a4,a4,a6
    5fce:	02000513          	li	a0,32
    5fd2:	00e65733          	srl	a4,a2,a4
    5fd6:	00a78863          	beq	a5,a0,5fe6 <__truncdfsf2+0x128>
    5fda:	ca268693          	addi	a3,a3,-862
    5fde:	00d616b3          	sll	a3,a2,a3
    5fe2:	00d8e8b3          	or	a7,a7,a3
    5fe6:	011037b3          	snez	a5,a7
    5fea:	8fd9                	or	a5,a5,a4
    5fec:	0077f713          	andi	a4,a5,7
    5ff0:	4801                	li	a6,0
    5ff2:	fb15                	bnez	a4,5f26 <__truncdfsf2+0x68>
    5ff4:	00579713          	slli	a4,a5,0x5
    5ff8:	4685                	li	a3,1
    5ffa:	f40748e3          	bltz	a4,5f4a <__truncdfsf2+0x8c>
    5ffe:	4681                	li	a3,0
    6000:	b7a5                	j	5f68 <__truncdfsf2+0xaa>
    6002:	4681                	li	a3,0
    6004:	b78d                	j	5f66 <__truncdfsf2+0xa8>
    6006:	c8268693          	addi	a3,a3,-894
    600a:	00d89733          	sll	a4,a7,a3
    600e:	00e03733          	snez	a4,a4
    6012:	00d616b3          	sll	a3,a2,a3
    6016:	00f8d8b3          	srl	a7,a7,a5
    601a:	00d767b3          	or	a5,a4,a3
    601e:	00f8e7b3          	or	a5,a7,a5
    6022:	b7e9                	j	5fec <__truncdfsf2+0x12e>
    6024:	86c2                	mv	a3,a6
    6026:	b789                	j	5f68 <__truncdfsf2+0xaa>

00006028 <__clzsi2>:
    6028:	67c1                	lui	a5,0x10
    602a:	02f57e63          	bgeu	a0,a5,6066 <__clzsi2+0x3e>
    602e:	0ff00793          	li	a5,255
    6032:	02000713          	li	a4,32
    6036:	00a7ec63          	bltu	a5,a0,604e <__clzsi2+0x26>
    603a:	00007797          	auipc	a5,0x7
    603e:	d4a78793          	addi	a5,a5,-694 # cd84 <__clz_tab>
    6042:	97aa                	add	a5,a5,a0
    6044:	0007c503          	lbu	a0,0(a5)
    6048:	40a70533          	sub	a0,a4,a0
    604c:	8082                	ret
    604e:	8121                	srli	a0,a0,0x8
    6050:	00007797          	auipc	a5,0x7
    6054:	d3478793          	addi	a5,a5,-716 # cd84 <__clz_tab>
    6058:	97aa                	add	a5,a5,a0
    605a:	0007c503          	lbu	a0,0(a5)
    605e:	4761                	li	a4,24
    6060:	40a70533          	sub	a0,a4,a0
    6064:	8082                	ret
    6066:	010007b7          	lui	a5,0x1000
    606a:	00f56e63          	bltu	a0,a5,6086 <__clzsi2+0x5e>
    606e:	8161                	srli	a0,a0,0x18
    6070:	00007797          	auipc	a5,0x7
    6074:	d1478793          	addi	a5,a5,-748 # cd84 <__clz_tab>
    6078:	97aa                	add	a5,a5,a0
    607a:	0007c503          	lbu	a0,0(a5)
    607e:	4721                	li	a4,8
    6080:	40a70533          	sub	a0,a4,a0
    6084:	8082                	ret
    6086:	8141                	srli	a0,a0,0x10
    6088:	00007797          	auipc	a5,0x7
    608c:	cfc78793          	addi	a5,a5,-772 # cd84 <__clz_tab>
    6090:	97aa                	add	a5,a5,a0
    6092:	0007c503          	lbu	a0,0(a5)
    6096:	4741                	li	a4,16
    6098:	40a70533          	sub	a0,a4,a0
    609c:	8082                	ret

0000609e <__errno>:
    609e:	81018793          	addi	a5,gp,-2032 # 200001f0 <_impure_ptr>
    60a2:	4388                	lw	a0,0(a5)
    60a4:	8082                	ret

000060a6 <__cvt>:
    60a6:	7179                	addi	sp,sp,-48
    60a8:	d422                	sw	s0,40(sp)
    60aa:	d04a                	sw	s2,32(sp)
    60ac:	cc52                	sw	s4,24(sp)
    60ae:	ca56                	sw	s5,20(sp)
    60b0:	c85a                	sw	s6,16(sp)
    60b2:	d606                	sw	ra,44(sp)
    60b4:	d226                	sw	s1,36(sp)
    60b6:	ce4e                	sw	s3,28(sp)
    60b8:	8a3a                	mv	s4,a4
    60ba:	8aae                	mv	s5,a1
    60bc:	8432                	mv	s0,a2
    60be:	8936                	mv	s2,a3
    60c0:	8b42                	mv	s6,a6
    60c2:	4701                	li	a4,0
    60c4:	00065863          	bgez	a2,60d4 <__cvt+0x2e>
    60c8:	80000737          	lui	a4,0x80000
    60cc:	00c74433          	xor	s0,a4,a2
    60d0:	02d00713          	li	a4,45
    60d4:	00e78023          	sb	a4,0(a5)
    60d8:	fdf8f493          	andi	s1,a7,-33
    60dc:	04600793          	li	a5,70
    60e0:	468d                	li	a3,3
    60e2:	00f48863          	beq	s1,a5,60f2 <__cvt+0x4c>
    60e6:	04500793          	li	a5,69
    60ea:	4689                	li	a3,2
    60ec:	00f49363          	bne	s1,a5,60f2 <__cvt+0x4c>
    60f0:	0905                	addi	s2,s2,1
    60f2:	87da                	mv	a5,s6
    60f4:	00c10893          	addi	a7,sp,12
    60f8:	00810813          	addi	a6,sp,8
    60fc:	874a                	mv	a4,s2
    60fe:	85d6                	mv	a1,s5
    6100:	8622                	mv	a2,s0
    6102:	659010ef          	jal	ra,7f5a <_dtoa_r>
    6106:	04700793          	li	a5,71
    610a:	89aa                	mv	s3,a0
    610c:	00f49663          	bne	s1,a5,6118 <__cvt+0x72>
    6110:	001a7a13          	andi	s4,s4,1
    6114:	040a0a63          	beqz	s4,6168 <__cvt+0xc2>
    6118:	04600793          	li	a5,70
    611c:	01298a33          	add	s4,s3,s2
    6120:	02f49763          	bne	s1,a5,614e <__cvt+0xa8>
    6124:	0009c703          	lbu	a4,0(s3)
    6128:	03000793          	li	a5,48
    612c:	00f71e63          	bne	a4,a5,6148 <__cvt+0xa2>
    6130:	4601                	li	a2,0
    6132:	4681                	li	a3,0
    6134:	8556                	mv	a0,s5
    6136:	85a2                	mv	a1,s0
    6138:	679040ef          	jal	ra,afb0 <__eqdf2>
    613c:	c511                	beqz	a0,6148 <__cvt+0xa2>
    613e:	4785                	li	a5,1
    6140:	41278933          	sub	s2,a5,s2
    6144:	012b2023          	sw	s2,0(s6)
    6148:	000b2783          	lw	a5,0(s6)
    614c:	9a3e                	add	s4,s4,a5
    614e:	4601                	li	a2,0
    6150:	4681                	li	a3,0
    6152:	8556                	mv	a0,s5
    6154:	85a2                	mv	a1,s0
    6156:	65b040ef          	jal	ra,afb0 <__eqdf2>
    615a:	e111                	bnez	a0,615e <__cvt+0xb8>
    615c:	c652                	sw	s4,12(sp)
    615e:	03000713          	li	a4,48
    6162:	47b2                	lw	a5,12(sp)
    6164:	0347e263          	bltu	a5,s4,6188 <__cvt+0xe2>
    6168:	47b2                	lw	a5,12(sp)
    616a:	5742                	lw	a4,48(sp)
    616c:	50b2                	lw	ra,44(sp)
    616e:	5422                	lw	s0,40(sp)
    6170:	413787b3          	sub	a5,a5,s3
    6174:	c31c                	sw	a5,0(a4)
    6176:	854e                	mv	a0,s3
    6178:	5492                	lw	s1,36(sp)
    617a:	5902                	lw	s2,32(sp)
    617c:	49f2                	lw	s3,28(sp)
    617e:	4a62                	lw	s4,24(sp)
    6180:	4ad2                	lw	s5,20(sp)
    6182:	4b42                	lw	s6,16(sp)
    6184:	6145                	addi	sp,sp,48
    6186:	8082                	ret
    6188:	00178693          	addi	a3,a5,1
    618c:	c636                	sw	a3,12(sp)
    618e:	00e78023          	sb	a4,0(a5)
    6192:	bfc1                	j	6162 <__cvt+0xbc>

00006194 <__exponent>:
    6194:	00c50023          	sb	a2,0(a0)
    6198:	00250713          	addi	a4,a0,2
    619c:	02b00793          	li	a5,43
    61a0:	0005d663          	bgez	a1,61ac <__exponent+0x18>
    61a4:	40b005b3          	neg	a1,a1
    61a8:	02d00793          	li	a5,45
    61ac:	00f500a3          	sb	a5,1(a0)
    61b0:	47a5                	li	a5,9
    61b2:	04b7da63          	bge	a5,a1,6206 <__exponent+0x72>
    61b6:	1141                	addi	sp,sp,-16
    61b8:	00f10793          	addi	a5,sp,15
    61bc:	88be                	mv	a7,a5
    61be:	4829                	li	a6,10
    61c0:	06300313          	li	t1,99
    61c4:	0305e6b3          	rem	a3,a1,a6
    61c8:	fff78613          	addi	a2,a5,-1
    61cc:	03068693          	addi	a3,a3,48
    61d0:	fed78fa3          	sb	a3,-1(a5)
    61d4:	0305c6b3          	div	a3,a1,a6
    61d8:	00b34d63          	blt	t1,a1,61f2 <__exponent+0x5e>
    61dc:	03068693          	addi	a3,a3,48
    61e0:	17f9                	addi	a5,a5,-2
    61e2:	fed60fa3          	sb	a3,-1(a2) # 7fffff <_data_lma+0x7f2dab>
    61e6:	0117e963          	bltu	a5,a7,61f8 <__exponent+0x64>
    61ea:	40a70533          	sub	a0,a4,a0
    61ee:	0141                	addi	sp,sp,16
    61f0:	8082                	ret
    61f2:	87b2                	mv	a5,a2
    61f4:	85b6                	mv	a1,a3
    61f6:	b7f9                	j	61c4 <__exponent+0x30>
    61f8:	0785                	addi	a5,a5,1
    61fa:	fff7c683          	lbu	a3,-1(a5)
    61fe:	0705                	addi	a4,a4,1
    6200:	fed70fa3          	sb	a3,-1(a4) # 7fffffff <_eusrstack+0x5fff7fff>
    6204:	b7cd                	j	61e6 <__exponent+0x52>
    6206:	03000793          	li	a5,48
    620a:	00450713          	addi	a4,a0,4
    620e:	03058593          	addi	a1,a1,48
    6212:	00f50123          	sb	a5,2(a0)
    6216:	00b501a3          	sb	a1,3(a0)
    621a:	40a70533          	sub	a0,a4,a0
    621e:	8082                	ret

00006220 <_printf_float>:
    6220:	7119                	addi	sp,sp,-128
    6222:	ce3a                	sw	a4,28(sp)
    6224:	de86                	sw	ra,124(sp)
    6226:	dca2                	sw	s0,120(sp)
    6228:	daa6                	sw	s1,116(sp)
    622a:	842e                	mv	s0,a1
    622c:	d8ca                	sw	s2,112(sp)
    622e:	d6ce                	sw	s3,108(sp)
    6230:	d4d2                	sw	s4,104(sp)
    6232:	89b6                	mv	s3,a3
    6234:	d0da                	sw	s6,96(sp)
    6236:	cede                	sw	s7,92(sp)
    6238:	cce2                	sw	s8,88(sp)
    623a:	8932                	mv	s2,a2
    623c:	d2d6                	sw	s5,100(sp)
    623e:	cae6                	sw	s9,84(sp)
    6240:	c8ea                	sw	s10,80(sp)
    6242:	c6ee                	sw	s11,76(sp)
    6244:	84aa                	mv	s1,a0
    6246:	2b2030ef          	jal	ra,94f8 <_localeconv_r>
    624a:	00052b83          	lw	s7,0(a0)
    624e:	855e                	mv	a0,s7
    6250:	583000ef          	jal	ra,6fd2 <strlen>
    6254:	00042b03          	lw	s6,0(s0)
    6258:	4772                	lw	a4,28(sp)
    625a:	dc02                	sw	zero,56(sp)
    625c:	100b7693          	andi	a3,s6,256
    6260:	8c2a                	mv	s8,a0
    6262:	01844a03          	lbu	s4,24(s0)
    6266:	431c                	lw	a5,0(a4)
    6268:	caf1                	beqz	a3,633c <_printf_float+0x11c>
    626a:	00478693          	addi	a3,a5,4
    626e:	c314                	sw	a3,0(a4)
    6270:	439c                	lw	a5,0(a5)
    6272:	1008                	addi	a0,sp,32
    6274:	4398                	lw	a4,0(a5)
    6276:	d03a                	sw	a4,32(sp)
    6278:	43d8                	lw	a4,4(a5)
    627a:	d23a                	sw	a4,36(sp)
    627c:	4798                	lw	a4,8(a5)
    627e:	d43a                	sw	a4,40(sp)
    6280:	47dc                	lw	a5,12(a5)
    6282:	d63e                	sw	a5,44(sp)
    6284:	0ac050ef          	jal	ra,b330 <__trunctfdf2>
    6288:	c428                	sw	a0,72(s0)
    628a:	c46c                	sw	a1,76(s0)
    628c:	04c42c83          	lw	s9,76(s0)
    6290:	00007717          	auipc	a4,0x7
    6294:	bf870713          	addi	a4,a4,-1032 # ce88 <__clz_tab+0x104>
    6298:	04842a83          	lw	s5,72(s0)
    629c:	00072d03          	lw	s10,0(a4)
    62a0:	00472d83          	lw	s11,4(a4)
    62a4:	001c9793          	slli	a5,s9,0x1
    62a8:	8385                	srli	a5,a5,0x1
    62aa:	866a                	mv	a2,s10
    62ac:	86ee                	mv	a3,s11
    62ae:	8556                	mv	a0,s5
    62b0:	85be                	mv	a1,a5
    62b2:	ce3e                	sw	a5,28(sp)
    62b4:	ddbfe0ef          	jal	ra,508e <__unorddf2>
    62b8:	ed41                	bnez	a0,6350 <_printf_float+0x130>
    62ba:	47f2                	lw	a5,28(sp)
    62bc:	866a                	mv	a2,s10
    62be:	86ee                	mv	a3,s11
    62c0:	8556                	mv	a0,s5
    62c2:	85be                	mv	a1,a5
    62c4:	91efe0ef          	jal	ra,43e2 <__ledf2>
    62c8:	08a05463          	blez	a0,6350 <_printf_float+0x130>
    62cc:	4601                	li	a2,0
    62ce:	4681                	li	a3,0
    62d0:	8556                	mv	a0,s5
    62d2:	85e6                	mv	a1,s9
    62d4:	90efe0ef          	jal	ra,43e2 <__ledf2>
    62d8:	00055663          	bgez	a0,62e4 <_printf_float+0xc4>
    62dc:	02d00793          	li	a5,45
    62e0:	04f401a3          	sb	a5,67(s0)
    62e4:	04700793          	li	a5,71
    62e8:	00007a97          	auipc	s5,0x7
    62ec:	ba8a8a93          	addi	s5,s5,-1112 # ce90 <__clz_tab+0x10c>
    62f0:	0147f663          	bgeu	a5,s4,62fc <_printf_float+0xdc>
    62f4:	00007a97          	auipc	s5,0x7
    62f8:	ba0a8a93          	addi	s5,s5,-1120 # ce94 <__clz_tab+0x110>
    62fc:	ffbb7b13          	andi	s6,s6,-5
    6300:	478d                	li	a5,3
    6302:	01642023          	sw	s6,0(s0)
    6306:	c81c                	sw	a5,16(s0)
    6308:	4b01                	li	s6,0
    630a:	874e                	mv	a4,s3
    630c:	86ca                	mv	a3,s2
    630e:	1870                	addi	a2,sp,60
    6310:	85a2                	mv	a1,s0
    6312:	8526                	mv	a0,s1
    6314:	2ec1                	jal	66e4 <_printf_common>
    6316:	5cfd                	li	s9,-1
    6318:	15951e63          	bne	a0,s9,6474 <_printf_float+0x254>
    631c:	557d                	li	a0,-1
    631e:	50f6                	lw	ra,124(sp)
    6320:	5466                	lw	s0,120(sp)
    6322:	54d6                	lw	s1,116(sp)
    6324:	5946                	lw	s2,112(sp)
    6326:	59b6                	lw	s3,108(sp)
    6328:	5a26                	lw	s4,104(sp)
    632a:	5a96                	lw	s5,100(sp)
    632c:	5b06                	lw	s6,96(sp)
    632e:	4bf6                	lw	s7,92(sp)
    6330:	4c66                	lw	s8,88(sp)
    6332:	4cd6                	lw	s9,84(sp)
    6334:	4d46                	lw	s10,80(sp)
    6336:	4db6                	lw	s11,76(sp)
    6338:	6109                	addi	sp,sp,128
    633a:	8082                	ret
    633c:	079d                	addi	a5,a5,7
    633e:	9be1                	andi	a5,a5,-8
    6340:	00878693          	addi	a3,a5,8
    6344:	c314                	sw	a3,0(a4)
    6346:	4398                	lw	a4,0(a5)
    6348:	43dc                	lw	a5,4(a5)
    634a:	c438                	sw	a4,72(s0)
    634c:	c47c                	sw	a5,76(s0)
    634e:	bf3d                	j	628c <_printf_float+0x6c>
    6350:	8656                	mv	a2,s5
    6352:	86e6                	mv	a3,s9
    6354:	8556                	mv	a0,s5
    6356:	85e6                	mv	a1,s9
    6358:	d37fe0ef          	jal	ra,508e <__unorddf2>
    635c:	cd11                	beqz	a0,6378 <_printf_float+0x158>
    635e:	04700793          	li	a5,71
    6362:	00007a97          	auipc	s5,0x7
    6366:	b36a8a93          	addi	s5,s5,-1226 # ce98 <__clz_tab+0x114>
    636a:	f947f9e3          	bgeu	a5,s4,62fc <_printf_float+0xdc>
    636e:	00007a97          	auipc	s5,0x7
    6372:	b2ea8a93          	addi	s5,s5,-1234 # ce9c <__clz_tab+0x118>
    6376:	b759                	j	62fc <_printf_float+0xdc>
    6378:	405c                	lw	a5,4(s0)
    637a:	577d                	li	a4,-1
    637c:	0dfa7d13          	andi	s10,s4,223
    6380:	08e79563          	bne	a5,a4,640a <_printf_float+0x1ea>
    6384:	4799                	li	a5,6
    6386:	c05c                	sw	a5,4(s0)
    6388:	4054                	lw	a3,4(s0)
    638a:	400b6713          	ori	a4,s6,1024
    638e:	183c                	addi	a5,sp,56
    6390:	85d6                	mv	a1,s5
    6392:	c03e                	sw	a5,0(sp)
    6394:	c018                	sw	a4,0(s0)
    6396:	03310793          	addi	a5,sp,51
    639a:	c202                	sw	zero,4(sp)
    639c:	88d2                	mv	a7,s4
    639e:	03410813          	addi	a6,sp,52
    63a2:	8666                	mv	a2,s9
    63a4:	8526                	mv	a0,s1
    63a6:	d01ff0ef          	jal	ra,60a6 <__cvt>
    63aa:	04700793          	li	a5,71
    63ae:	8aaa                	mv	s5,a0
    63b0:	55d2                	lw	a1,52(sp)
    63b2:	00fd1b63          	bne	s10,a5,63c8 <_printf_float+0x1a8>
    63b6:	57f5                	li	a5,-3
    63b8:	00f5c563          	blt	a1,a5,63c2 <_printf_float+0x1a2>
    63bc:	405c                	lw	a5,4(s0)
    63be:	08b7d863          	bge	a5,a1,644e <_printf_float+0x22e>
    63c2:	1a79                	addi	s4,s4,-2
    63c4:	0ffa7a13          	andi	s4,s4,255
    63c8:	06500793          	li	a5,101
    63cc:	0547e663          	bltu	a5,s4,6418 <_printf_float+0x1f8>
    63d0:	15fd                	addi	a1,a1,-1
    63d2:	8652                	mv	a2,s4
    63d4:	05040513          	addi	a0,s0,80
    63d8:	da2e                	sw	a1,52(sp)
    63da:	dbbff0ef          	jal	ra,6194 <__exponent>
    63de:	5762                	lw	a4,56(sp)
    63e0:	4685                	li	a3,1
    63e2:	8b2a                	mv	s6,a0
    63e4:	00a707b3          	add	a5,a4,a0
    63e8:	c81c                	sw	a5,16(s0)
    63ea:	00e6c563          	blt	a3,a4,63f4 <_printf_float+0x1d4>
    63ee:	4018                	lw	a4,0(s0)
    63f0:	8b05                	andi	a4,a4,1
    63f2:	c319                	beqz	a4,63f8 <_printf_float+0x1d8>
    63f4:	0785                	addi	a5,a5,1
    63f6:	c81c                	sw	a5,16(s0)
    63f8:	03314783          	lbu	a5,51(sp)
    63fc:	f00787e3          	beqz	a5,630a <_printf_float+0xea>
    6400:	02d00793          	li	a5,45
    6404:	04f401a3          	sb	a5,67(s0)
    6408:	b709                	j	630a <_printf_float+0xea>
    640a:	04700713          	li	a4,71
    640e:	f6ed1de3          	bne	s10,a4,6388 <_printf_float+0x168>
    6412:	fbbd                	bnez	a5,6388 <_printf_float+0x168>
    6414:	4785                	li	a5,1
    6416:	bf85                	j	6386 <_printf_float+0x166>
    6418:	06600793          	li	a5,102
    641c:	02fa1b63          	bne	s4,a5,6452 <_printf_float+0x232>
    6420:	405c                	lw	a5,4(s0)
    6422:	00b05b63          	blez	a1,6438 <_printf_float+0x218>
    6426:	c80c                	sw	a1,16(s0)
    6428:	e781                	bnez	a5,6430 <_printf_float+0x210>
    642a:	4018                	lw	a4,0(s0)
    642c:	8b05                	andi	a4,a4,1
    642e:	cf09                	beqz	a4,6448 <_printf_float+0x228>
    6430:	0785                	addi	a5,a5,1
    6432:	97ae                	add	a5,a5,a1
    6434:	c81c                	sw	a5,16(s0)
    6436:	a809                	j	6448 <_printf_float+0x228>
    6438:	e789                	bnez	a5,6442 <_printf_float+0x222>
    643a:	4018                	lw	a4,0(s0)
    643c:	4685                	li	a3,1
    643e:	8b05                	andi	a4,a4,1
    6440:	c319                	beqz	a4,6446 <_printf_float+0x226>
    6442:	00278693          	addi	a3,a5,2
    6446:	c814                	sw	a3,16(s0)
    6448:	cc2c                	sw	a1,88(s0)
    644a:	4b01                	li	s6,0
    644c:	b775                	j	63f8 <_printf_float+0x1d8>
    644e:	06700a13          	li	s4,103
    6452:	57e2                	lw	a5,56(sp)
    6454:	00f5c963          	blt	a1,a5,6466 <_printf_float+0x246>
    6458:	401c                	lw	a5,0(s0)
    645a:	c80c                	sw	a1,16(s0)
    645c:	8b85                	andi	a5,a5,1
    645e:	d7ed                	beqz	a5,6448 <_printf_float+0x228>
    6460:	00158793          	addi	a5,a1,1
    6464:	bfc1                	j	6434 <_printf_float+0x214>
    6466:	4705                	li	a4,1
    6468:	00b04463          	bgtz	a1,6470 <_printf_float+0x250>
    646c:	4709                	li	a4,2
    646e:	8f0d                	sub	a4,a4,a1
    6470:	97ba                	add	a5,a5,a4
    6472:	b7c9                	j	6434 <_printf_float+0x214>
    6474:	401c                	lw	a5,0(s0)
    6476:	4007f713          	andi	a4,a5,1024
    647a:	e315                	bnez	a4,649e <_printf_float+0x27e>
    647c:	4814                	lw	a3,16(s0)
    647e:	8656                	mv	a2,s5
    6480:	85ca                	mv	a1,s2
    6482:	8526                	mv	a0,s1
    6484:	9982                	jalr	s3
    6486:	e9950be3          	beq	a0,s9,631c <_printf_float+0xfc>
    648a:	401c                	lw	a5,0(s0)
    648c:	8b89                	andi	a5,a5,2
    648e:	24079663          	bnez	a5,66da <_printf_float+0x4ba>
    6492:	57f2                	lw	a5,60(sp)
    6494:	4448                	lw	a0,12(s0)
    6496:	e8f554e3          	bge	a0,a5,631e <_printf_float+0xfe>
    649a:	853e                	mv	a0,a5
    649c:	b549                	j	631e <_printf_float+0xfe>
    649e:	06500713          	li	a4,101
    64a2:	19477b63          	bgeu	a4,s4,6638 <_printf_float+0x418>
    64a6:	4428                	lw	a0,72(s0)
    64a8:	446c                	lw	a1,76(s0)
    64aa:	4601                	li	a2,0
    64ac:	4681                	li	a3,0
    64ae:	303040ef          	jal	ra,afb0 <__eqdf2>
    64b2:	e939                	bnez	a0,6508 <_printf_float+0x2e8>
    64b4:	4685                	li	a3,1
    64b6:	00007617          	auipc	a2,0x7
    64ba:	9ea60613          	addi	a2,a2,-1558 # cea0 <__clz_tab+0x11c>
    64be:	85ca                	mv	a1,s2
    64c0:	8526                	mv	a0,s1
    64c2:	9982                	jalr	s3
    64c4:	e5950ce3          	beq	a0,s9,631c <_printf_float+0xfc>
    64c8:	5752                	lw	a4,52(sp)
    64ca:	57e2                	lw	a5,56(sp)
    64cc:	00f74563          	blt	a4,a5,64d6 <_printf_float+0x2b6>
    64d0:	401c                	lw	a5,0(s0)
    64d2:	8b85                	andi	a5,a5,1
    64d4:	dbdd                	beqz	a5,648a <_printf_float+0x26a>
    64d6:	86e2                	mv	a3,s8
    64d8:	865e                	mv	a2,s7
    64da:	85ca                	mv	a1,s2
    64dc:	8526                	mv	a0,s1
    64de:	9982                	jalr	s3
    64e0:	57fd                	li	a5,-1
    64e2:	e2f50de3          	beq	a0,a5,631c <_printf_float+0xfc>
    64e6:	4a01                	li	s4,0
    64e8:	01a40a93          	addi	s5,s0,26
    64ec:	5b7d                	li	s6,-1
    64ee:	57e2                	lw	a5,56(sp)
    64f0:	17fd                	addi	a5,a5,-1
    64f2:	f8fa5ce3          	bge	s4,a5,648a <_printf_float+0x26a>
    64f6:	4685                	li	a3,1
    64f8:	8656                	mv	a2,s5
    64fa:	85ca                	mv	a1,s2
    64fc:	8526                	mv	a0,s1
    64fe:	9982                	jalr	s3
    6500:	e1650ee3          	beq	a0,s6,631c <_printf_float+0xfc>
    6504:	0a05                	addi	s4,s4,1
    6506:	b7e5                	j	64ee <_printf_float+0x2ce>
    6508:	57d2                	lw	a5,52(sp)
    650a:	06f04663          	bgtz	a5,6576 <_printf_float+0x356>
    650e:	4685                	li	a3,1
    6510:	00007617          	auipc	a2,0x7
    6514:	99060613          	addi	a2,a2,-1648 # cea0 <__clz_tab+0x11c>
    6518:	85ca                	mv	a1,s2
    651a:	8526                	mv	a0,s1
    651c:	9982                	jalr	s3
    651e:	df950fe3          	beq	a0,s9,631c <_printf_float+0xfc>
    6522:	57d2                	lw	a5,52(sp)
    6524:	5762                	lw	a4,56(sp)
    6526:	8fd9                	or	a5,a5,a4
    6528:	e781                	bnez	a5,6530 <_printf_float+0x310>
    652a:	401c                	lw	a5,0(s0)
    652c:	8b85                	andi	a5,a5,1
    652e:	dfb1                	beqz	a5,648a <_printf_float+0x26a>
    6530:	86e2                	mv	a3,s8
    6532:	865e                	mv	a2,s7
    6534:	85ca                	mv	a1,s2
    6536:	8526                	mv	a0,s1
    6538:	9982                	jalr	s3
    653a:	57fd                	li	a5,-1
    653c:	def500e3          	beq	a0,a5,631c <_printf_float+0xfc>
    6540:	4a01                	li	s4,0
    6542:	01a40b13          	addi	s6,s0,26
    6546:	5bfd                	li	s7,-1
    6548:	57d2                	lw	a5,52(sp)
    654a:	40f007b3          	neg	a5,a5
    654e:	00fa4b63          	blt	s4,a5,6564 <_printf_float+0x344>
    6552:	56e2                	lw	a3,56(sp)
    6554:	8656                	mv	a2,s5
    6556:	85ca                	mv	a1,s2
    6558:	8526                	mv	a0,s1
    655a:	9982                	jalr	s3
    655c:	57fd                	li	a5,-1
    655e:	f2f516e3          	bne	a0,a5,648a <_printf_float+0x26a>
    6562:	bb6d                	j	631c <_printf_float+0xfc>
    6564:	4685                	li	a3,1
    6566:	865a                	mv	a2,s6
    6568:	85ca                	mv	a1,s2
    656a:	8526                	mv	a0,s1
    656c:	9982                	jalr	s3
    656e:	db7507e3          	beq	a0,s7,631c <_printf_float+0xfc>
    6572:	0a05                	addi	s4,s4,1
    6574:	bfd1                	j	6548 <_printf_float+0x328>
    6576:	4c3c                	lw	a5,88(s0)
    6578:	5a62                	lw	s4,56(sp)
    657a:	0147d363          	bge	a5,s4,6580 <_printf_float+0x360>
    657e:	8a3e                	mv	s4,a5
    6580:	01405a63          	blez	s4,6594 <_printf_float+0x374>
    6584:	86d2                	mv	a3,s4
    6586:	8656                	mv	a2,s5
    6588:	85ca                	mv	a1,s2
    658a:	8526                	mv	a0,s1
    658c:	9982                	jalr	s3
    658e:	57fd                	li	a5,-1
    6590:	d8f506e3          	beq	a0,a5,631c <_printf_float+0xfc>
    6594:	4c81                	li	s9,0
    6596:	01a40d13          	addi	s10,s0,26
    659a:	5dfd                	li	s11,-1
    659c:	a809                	j	65ae <_printf_float+0x38e>
    659e:	4685                	li	a3,1
    65a0:	866a                	mv	a2,s10
    65a2:	85ca                	mv	a1,s2
    65a4:	8526                	mv	a0,s1
    65a6:	9982                	jalr	s3
    65a8:	d7b50ae3          	beq	a0,s11,631c <_printf_float+0xfc>
    65ac:	0c85                	addi	s9,s9,1
    65ae:	05842b03          	lw	s6,88(s0)
    65b2:	87d2                	mv	a5,s4
    65b4:	000a5363          	bgez	s4,65ba <_printf_float+0x39a>
    65b8:	4781                	li	a5,0
    65ba:	40fb07b3          	sub	a5,s6,a5
    65be:	fefcc0e3          	blt	s9,a5,659e <_printf_float+0x37e>
    65c2:	5752                	lw	a4,52(sp)
    65c4:	57e2                	lw	a5,56(sp)
    65c6:	02f74d63          	blt	a4,a5,6600 <_printf_float+0x3e0>
    65ca:	401c                	lw	a5,0(s0)
    65cc:	8b85                	andi	a5,a5,1
    65ce:	eb8d                	bnez	a5,6600 <_printf_float+0x3e0>
    65d0:	57e2                	lw	a5,56(sp)
    65d2:	5752                	lw	a4,52(sp)
    65d4:	40e78a33          	sub	s4,a5,a4
    65d8:	00eb4463          	blt	s6,a4,65e0 <_printf_float+0x3c0>
    65dc:	41678a33          	sub	s4,a5,s6
    65e0:	01405b63          	blez	s4,65f6 <_printf_float+0x3d6>
    65e4:	86d2                	mv	a3,s4
    65e6:	016a8633          	add	a2,s5,s6
    65ea:	85ca                	mv	a1,s2
    65ec:	8526                	mv	a0,s1
    65ee:	9982                	jalr	s3
    65f0:	57fd                	li	a5,-1
    65f2:	d2f505e3          	beq	a0,a5,631c <_printf_float+0xfc>
    65f6:	4a81                	li	s5,0
    65f8:	01a40b13          	addi	s6,s0,26
    65fc:	5bfd                	li	s7,-1
    65fe:	a015                	j	6622 <_printf_float+0x402>
    6600:	86e2                	mv	a3,s8
    6602:	865e                	mv	a2,s7
    6604:	85ca                	mv	a1,s2
    6606:	8526                	mv	a0,s1
    6608:	9982                	jalr	s3
    660a:	57fd                	li	a5,-1
    660c:	fcf512e3          	bne	a0,a5,65d0 <_printf_float+0x3b0>
    6610:	b331                	j	631c <_printf_float+0xfc>
    6612:	4685                	li	a3,1
    6614:	865a                	mv	a2,s6
    6616:	85ca                	mv	a1,s2
    6618:	8526                	mv	a0,s1
    661a:	9982                	jalr	s3
    661c:	d17500e3          	beq	a0,s7,631c <_printf_float+0xfc>
    6620:	0a85                	addi	s5,s5,1
    6622:	5752                	lw	a4,52(sp)
    6624:	57e2                	lw	a5,56(sp)
    6626:	8f99                	sub	a5,a5,a4
    6628:	8752                	mv	a4,s4
    662a:	000a5363          	bgez	s4,6630 <_printf_float+0x410>
    662e:	4701                	li	a4,0
    6630:	8f99                	sub	a5,a5,a4
    6632:	fefac0e3          	blt	s5,a5,6612 <_printf_float+0x3f2>
    6636:	bd91                	j	648a <_printf_float+0x26a>
    6638:	56e2                	lw	a3,56(sp)
    663a:	4705                	li	a4,1
    663c:	00d74463          	blt	a4,a3,6644 <_printf_float+0x424>
    6640:	8b85                	andi	a5,a5,1
    6642:	c7b5                	beqz	a5,66ae <_printf_float+0x48e>
    6644:	4685                	li	a3,1
    6646:	8656                	mv	a2,s5
    6648:	85ca                	mv	a1,s2
    664a:	8526                	mv	a0,s1
    664c:	9982                	jalr	s3
    664e:	5a7d                	li	s4,-1
    6650:	cd4506e3          	beq	a0,s4,631c <_printf_float+0xfc>
    6654:	86e2                	mv	a3,s8
    6656:	865e                	mv	a2,s7
    6658:	85ca                	mv	a1,s2
    665a:	8526                	mv	a0,s1
    665c:	9982                	jalr	s3
    665e:	cb450fe3          	beq	a0,s4,631c <_printf_float+0xfc>
    6662:	4428                	lw	a0,72(s0)
    6664:	446c                	lw	a1,76(s0)
    6666:	4601                	li	a2,0
    6668:	4681                	li	a3,0
    666a:	147040ef          	jal	ra,afb0 <__eqdf2>
    666e:	c91d                	beqz	a0,66a4 <_printf_float+0x484>
    6670:	56e2                	lw	a3,56(sp)
    6672:	001a8613          	addi	a2,s5,1
    6676:	85ca                	mv	a1,s2
    6678:	16fd                	addi	a3,a3,-1
    667a:	8526                	mv	a0,s1
    667c:	9982                	jalr	s3
    667e:	c9450fe3          	beq	a0,s4,631c <_printf_float+0xfc>
    6682:	86da                	mv	a3,s6
    6684:	05040613          	addi	a2,s0,80
    6688:	b5f9                	j	6556 <_printf_float+0x336>
    668a:	4685                	li	a3,1
    668c:	8656                	mv	a2,s5
    668e:	85ca                	mv	a1,s2
    6690:	8526                	mv	a0,s1
    6692:	9982                	jalr	s3
    6694:	c97504e3          	beq	a0,s7,631c <_printf_float+0xfc>
    6698:	0a05                	addi	s4,s4,1
    669a:	57e2                	lw	a5,56(sp)
    669c:	17fd                	addi	a5,a5,-1
    669e:	fefa46e3          	blt	s4,a5,668a <_printf_float+0x46a>
    66a2:	b7c5                	j	6682 <_printf_float+0x462>
    66a4:	4a01                	li	s4,0
    66a6:	01a40a93          	addi	s5,s0,26
    66aa:	5bfd                	li	s7,-1
    66ac:	b7fd                	j	669a <_printf_float+0x47a>
    66ae:	4685                	li	a3,1
    66b0:	8656                	mv	a2,s5
    66b2:	85ca                	mv	a1,s2
    66b4:	8526                	mv	a0,s1
    66b6:	9982                	jalr	s3
    66b8:	fd9515e3          	bne	a0,s9,6682 <_printf_float+0x462>
    66bc:	b185                	j	631c <_printf_float+0xfc>
    66be:	4685                	li	a3,1
    66c0:	8656                	mv	a2,s5
    66c2:	85ca                	mv	a1,s2
    66c4:	8526                	mv	a0,s1
    66c6:	9982                	jalr	s3
    66c8:	c5650ae3          	beq	a0,s6,631c <_printf_float+0xfc>
    66cc:	0a05                	addi	s4,s4,1
    66ce:	445c                	lw	a5,12(s0)
    66d0:	5772                	lw	a4,60(sp)
    66d2:	8f99                	sub	a5,a5,a4
    66d4:	fefa45e3          	blt	s4,a5,66be <_printf_float+0x49e>
    66d8:	bb6d                	j	6492 <_printf_float+0x272>
    66da:	4a01                	li	s4,0
    66dc:	01940a93          	addi	s5,s0,25
    66e0:	5b7d                	li	s6,-1
    66e2:	b7f5                	j	66ce <_printf_float+0x4ae>

000066e4 <_printf_common>:
    66e4:	7179                	addi	sp,sp,-48
    66e6:	ca56                	sw	s5,20(sp)
    66e8:	499c                	lw	a5,16(a1)
    66ea:	8aba                	mv	s5,a4
    66ec:	4598                	lw	a4,8(a1)
    66ee:	d422                	sw	s0,40(sp)
    66f0:	d226                	sw	s1,36(sp)
    66f2:	ce4e                	sw	s3,28(sp)
    66f4:	cc52                	sw	s4,24(sp)
    66f6:	d606                	sw	ra,44(sp)
    66f8:	d04a                	sw	s2,32(sp)
    66fa:	c85a                	sw	s6,16(sp)
    66fc:	c65e                	sw	s7,12(sp)
    66fe:	89aa                	mv	s3,a0
    6700:	842e                	mv	s0,a1
    6702:	84b2                	mv	s1,a2
    6704:	8a36                	mv	s4,a3
    6706:	00e7d363          	bge	a5,a4,670c <_printf_common+0x28>
    670a:	87ba                	mv	a5,a4
    670c:	c09c                	sw	a5,0(s1)
    670e:	04344703          	lbu	a4,67(s0)
    6712:	c319                	beqz	a4,6718 <_printf_common+0x34>
    6714:	0785                	addi	a5,a5,1
    6716:	c09c                	sw	a5,0(s1)
    6718:	401c                	lw	a5,0(s0)
    671a:	0207f793          	andi	a5,a5,32
    671e:	c781                	beqz	a5,6726 <_printf_common+0x42>
    6720:	409c                	lw	a5,0(s1)
    6722:	0789                	addi	a5,a5,2
    6724:	c09c                	sw	a5,0(s1)
    6726:	00042903          	lw	s2,0(s0)
    672a:	00697913          	andi	s2,s2,6
    672e:	00091a63          	bnez	s2,6742 <_printf_common+0x5e>
    6732:	01940b13          	addi	s6,s0,25
    6736:	5bfd                	li	s7,-1
    6738:	445c                	lw	a5,12(s0)
    673a:	4098                	lw	a4,0(s1)
    673c:	8f99                	sub	a5,a5,a4
    673e:	04f94c63          	blt	s2,a5,6796 <_printf_common+0xb2>
    6742:	401c                	lw	a5,0(s0)
    6744:	04344683          	lbu	a3,67(s0)
    6748:	0207f793          	andi	a5,a5,32
    674c:	00d036b3          	snez	a3,a3
    6750:	eba5                	bnez	a5,67c0 <_printf_common+0xdc>
    6752:	04340613          	addi	a2,s0,67
    6756:	85d2                	mv	a1,s4
    6758:	854e                	mv	a0,s3
    675a:	9a82                	jalr	s5
    675c:	57fd                	li	a5,-1
    675e:	04f50363          	beq	a0,a5,67a4 <_printf_common+0xc0>
    6762:	401c                	lw	a5,0(s0)
    6764:	4611                	li	a2,4
    6766:	4098                	lw	a4,0(s1)
    6768:	8b99                	andi	a5,a5,6
    676a:	4454                	lw	a3,12(s0)
    676c:	4481                	li	s1,0
    676e:	00c79763          	bne	a5,a2,677c <_printf_common+0x98>
    6772:	40e684b3          	sub	s1,a3,a4
    6776:	0004d363          	bgez	s1,677c <_printf_common+0x98>
    677a:	4481                	li	s1,0
    677c:	441c                	lw	a5,8(s0)
    677e:	4818                	lw	a4,16(s0)
    6780:	00f75463          	bge	a4,a5,6788 <_printf_common+0xa4>
    6784:	8f99                	sub	a5,a5,a4
    6786:	94be                	add	s1,s1,a5
    6788:	4901                	li	s2,0
    678a:	0469                	addi	s0,s0,26
    678c:	5b7d                	li	s6,-1
    678e:	05249863          	bne	s1,s2,67de <_printf_common+0xfa>
    6792:	4501                	li	a0,0
    6794:	a809                	j	67a6 <_printf_common+0xc2>
    6796:	4685                	li	a3,1
    6798:	865a                	mv	a2,s6
    679a:	85d2                	mv	a1,s4
    679c:	854e                	mv	a0,s3
    679e:	9a82                	jalr	s5
    67a0:	01751e63          	bne	a0,s7,67bc <_printf_common+0xd8>
    67a4:	557d                	li	a0,-1
    67a6:	50b2                	lw	ra,44(sp)
    67a8:	5422                	lw	s0,40(sp)
    67aa:	5492                	lw	s1,36(sp)
    67ac:	5902                	lw	s2,32(sp)
    67ae:	49f2                	lw	s3,28(sp)
    67b0:	4a62                	lw	s4,24(sp)
    67b2:	4ad2                	lw	s5,20(sp)
    67b4:	4b42                	lw	s6,16(sp)
    67b6:	4bb2                	lw	s7,12(sp)
    67b8:	6145                	addi	sp,sp,48
    67ba:	8082                	ret
    67bc:	0905                	addi	s2,s2,1
    67be:	bfad                	j	6738 <_printf_common+0x54>
    67c0:	00d40733          	add	a4,s0,a3
    67c4:	03000613          	li	a2,48
    67c8:	04c701a3          	sb	a2,67(a4)
    67cc:	04544703          	lbu	a4,69(s0)
    67d0:	00168793          	addi	a5,a3,1
    67d4:	97a2                	add	a5,a5,s0
    67d6:	0689                	addi	a3,a3,2
    67d8:	04e781a3          	sb	a4,67(a5)
    67dc:	bf9d                	j	6752 <_printf_common+0x6e>
    67de:	4685                	li	a3,1
    67e0:	8622                	mv	a2,s0
    67e2:	85d2                	mv	a1,s4
    67e4:	854e                	mv	a0,s3
    67e6:	9a82                	jalr	s5
    67e8:	fb650ee3          	beq	a0,s6,67a4 <_printf_common+0xc0>
    67ec:	0905                	addi	s2,s2,1
    67ee:	b745                	j	678e <_printf_common+0xaa>

000067f0 <_printf_i>:
    67f0:	7179                	addi	sp,sp,-48
    67f2:	d422                	sw	s0,40(sp)
    67f4:	d226                	sw	s1,36(sp)
    67f6:	d04a                	sw	s2,32(sp)
    67f8:	ce4e                	sw	s3,28(sp)
    67fa:	d606                	sw	ra,44(sp)
    67fc:	cc52                	sw	s4,24(sp)
    67fe:	ca56                	sw	s5,20(sp)
    6800:	c85a                	sw	s6,16(sp)
    6802:	89b6                	mv	s3,a3
    6804:	0185c683          	lbu	a3,24(a1)
    6808:	06900793          	li	a5,105
    680c:	8932                	mv	s2,a2
    680e:	84aa                	mv	s1,a0
    6810:	842e                	mv	s0,a1
    6812:	04358613          	addi	a2,a1,67
    6816:	02f68d63          	beq	a3,a5,6850 <_printf_i+0x60>
    681a:	06d7e263          	bltu	a5,a3,687e <_printf_i+0x8e>
    681e:	05800793          	li	a5,88
    6822:	18f68963          	beq	a3,a5,69b4 <_printf_i+0x1c4>
    6826:	00d7ed63          	bltu	a5,a3,6840 <_printf_i+0x50>
    682a:	22068263          	beqz	a3,6a4e <_printf_i+0x25e>
    682e:	04300793          	li	a5,67
    6832:	0af68f63          	beq	a3,a5,68f0 <_printf_i+0x100>
    6836:	04240a93          	addi	s5,s0,66
    683a:	04d40123          	sb	a3,66(s0)
    683e:	a0d1                	j	6902 <_printf_i+0x112>
    6840:	06300793          	li	a5,99
    6844:	0af68663          	beq	a3,a5,68f0 <_printf_i+0x100>
    6848:	06400793          	li	a5,100
    684c:	fef695e3          	bne	a3,a5,6836 <_printf_i+0x46>
    6850:	401c                	lw	a5,0(s0)
    6852:	4308                	lw	a0,0(a4)
    6854:	0807f693          	andi	a3,a5,128
    6858:	00450593          	addi	a1,a0,4
    685c:	c6cd                	beqz	a3,6906 <_printf_i+0x116>
    685e:	411c                	lw	a5,0(a0)
    6860:	c30c                	sw	a1,0(a4)
    6862:	0007d863          	bgez	a5,6872 <_printf_i+0x82>
    6866:	02d00713          	li	a4,45
    686a:	40f007b3          	neg	a5,a5
    686e:	04e401a3          	sb	a4,67(s0)
    6872:	00006697          	auipc	a3,0x6
    6876:	63268693          	addi	a3,a3,1586 # cea4 <__clz_tab+0x120>
    687a:	4729                	li	a4,10
    687c:	a875                	j	6938 <_printf_i+0x148>
    687e:	07000793          	li	a5,112
    6882:	16f68563          	beq	a3,a5,69ec <_printf_i+0x1fc>
    6886:	02d7e563          	bltu	a5,a3,68b0 <_printf_i+0xc0>
    688a:	06e00793          	li	a5,110
    688e:	18f68c63          	beq	a3,a5,6a26 <_printf_i+0x236>
    6892:	06f00793          	li	a5,111
    6896:	faf690e3          	bne	a3,a5,6836 <_printf_i+0x46>
    689a:	400c                	lw	a1,0(s0)
    689c:	431c                	lw	a5,0(a4)
    689e:	0805f813          	andi	a6,a1,128
    68a2:	00478513          	addi	a0,a5,4
    68a6:	06080863          	beqz	a6,6916 <_printf_i+0x126>
    68aa:	c308                	sw	a0,0(a4)
    68ac:	439c                	lw	a5,0(a5)
    68ae:	a895                	j	6922 <_printf_i+0x132>
    68b0:	07500793          	li	a5,117
    68b4:	fef683e3          	beq	a3,a5,689a <_printf_i+0xaa>
    68b8:	07800793          	li	a5,120
    68bc:	12f68c63          	beq	a3,a5,69f4 <_printf_i+0x204>
    68c0:	07300793          	li	a5,115
    68c4:	f6f699e3          	bne	a3,a5,6836 <_printf_i+0x46>
    68c8:	431c                	lw	a5,0(a4)
    68ca:	41d0                	lw	a2,4(a1)
    68cc:	4581                	li	a1,0
    68ce:	00478693          	addi	a3,a5,4
    68d2:	c314                	sw	a3,0(a4)
    68d4:	0007aa83          	lw	s5,0(a5)
    68d8:	8556                	mv	a0,s5
    68da:	47d020ef          	jal	ra,9556 <memchr>
    68de:	c501                	beqz	a0,68e6 <_printf_i+0xf6>
    68e0:	41550533          	sub	a0,a0,s5
    68e4:	c048                	sw	a0,4(s0)
    68e6:	405c                	lw	a5,4(s0)
    68e8:	c81c                	sw	a5,16(s0)
    68ea:	040401a3          	sb	zero,67(s0)
    68ee:	a871                	j	698a <_printf_i+0x19a>
    68f0:	431c                	lw	a5,0(a4)
    68f2:	04240a93          	addi	s5,s0,66
    68f6:	00478693          	addi	a3,a5,4
    68fa:	439c                	lw	a5,0(a5)
    68fc:	c314                	sw	a3,0(a4)
    68fe:	04f40123          	sb	a5,66(s0)
    6902:	4785                	li	a5,1
    6904:	b7d5                	j	68e8 <_printf_i+0xf8>
    6906:	0407f693          	andi	a3,a5,64
    690a:	411c                	lw	a5,0(a0)
    690c:	c30c                	sw	a1,0(a4)
    690e:	dab1                	beqz	a3,6862 <_printf_i+0x72>
    6910:	07c2                	slli	a5,a5,0x10
    6912:	87c1                	srai	a5,a5,0x10
    6914:	b7b9                	j	6862 <_printf_i+0x72>
    6916:	0405f593          	andi	a1,a1,64
    691a:	c308                	sw	a0,0(a4)
    691c:	d9c1                	beqz	a1,68ac <_printf_i+0xbc>
    691e:	0007d783          	lhu	a5,0(a5)
    6922:	06f00713          	li	a4,111
    6926:	0ee68863          	beq	a3,a4,6a16 <_printf_i+0x226>
    692a:	00006697          	auipc	a3,0x6
    692e:	57a68693          	addi	a3,a3,1402 # cea4 <__clz_tab+0x120>
    6932:	4729                	li	a4,10
    6934:	040401a3          	sb	zero,67(s0)
    6938:	404c                	lw	a1,4(s0)
    693a:	c40c                	sw	a1,8(s0)
    693c:	0005c563          	bltz	a1,6946 <_printf_i+0x156>
    6940:	4008                	lw	a0,0(s0)
    6942:	996d                	andi	a0,a0,-5
    6944:	c008                	sw	a0,0(s0)
    6946:	e399                	bnez	a5,694c <_printf_i+0x15c>
    6948:	8ab2                	mv	s5,a2
    694a:	cd91                	beqz	a1,6966 <_printf_i+0x176>
    694c:	8ab2                	mv	s5,a2
    694e:	02e7f5b3          	remu	a1,a5,a4
    6952:	1afd                	addi	s5,s5,-1
    6954:	95b6                	add	a1,a1,a3
    6956:	0005c583          	lbu	a1,0(a1)
    695a:	00ba8023          	sb	a1,0(s5)
    695e:	02e7d5b3          	divu	a1,a5,a4
    6962:	0ce7f063          	bgeu	a5,a4,6a22 <_printf_i+0x232>
    6966:	47a1                	li	a5,8
    6968:	00f71e63          	bne	a4,a5,6984 <_printf_i+0x194>
    696c:	401c                	lw	a5,0(s0)
    696e:	8b85                	andi	a5,a5,1
    6970:	cb91                	beqz	a5,6984 <_printf_i+0x194>
    6972:	4058                	lw	a4,4(s0)
    6974:	481c                	lw	a5,16(s0)
    6976:	00e7c763          	blt	a5,a4,6984 <_printf_i+0x194>
    697a:	03000793          	li	a5,48
    697e:	fefa8fa3          	sb	a5,-1(s5)
    6982:	1afd                	addi	s5,s5,-1
    6984:	41560633          	sub	a2,a2,s5
    6988:	c810                	sw	a2,16(s0)
    698a:	874e                	mv	a4,s3
    698c:	86ca                	mv	a3,s2
    698e:	0070                	addi	a2,sp,12
    6990:	85a2                	mv	a1,s0
    6992:	8526                	mv	a0,s1
    6994:	d51ff0ef          	jal	ra,66e4 <_printf_common>
    6998:	5a7d                	li	s4,-1
    699a:	0b451e63          	bne	a0,s4,6a56 <_printf_i+0x266>
    699e:	557d                	li	a0,-1
    69a0:	50b2                	lw	ra,44(sp)
    69a2:	5422                	lw	s0,40(sp)
    69a4:	5492                	lw	s1,36(sp)
    69a6:	5902                	lw	s2,32(sp)
    69a8:	49f2                	lw	s3,28(sp)
    69aa:	4a62                	lw	s4,24(sp)
    69ac:	4ad2                	lw	s5,20(sp)
    69ae:	4b42                	lw	s6,16(sp)
    69b0:	6145                	addi	sp,sp,48
    69b2:	8082                	ret
    69b4:	04d582a3          	sb	a3,69(a1)
    69b8:	00006697          	auipc	a3,0x6
    69bc:	4ec68693          	addi	a3,a3,1260 # cea4 <__clz_tab+0x120>
    69c0:	400c                	lw	a1,0(s0)
    69c2:	4308                	lw	a0,0(a4)
    69c4:	0805f813          	andi	a6,a1,128
    69c8:	411c                	lw	a5,0(a0)
    69ca:	0511                	addi	a0,a0,4
    69cc:	02080d63          	beqz	a6,6a06 <_printf_i+0x216>
    69d0:	c308                	sw	a0,0(a4)
    69d2:	0015f713          	andi	a4,a1,1
    69d6:	c701                	beqz	a4,69de <_printf_i+0x1ee>
    69d8:	0205e593          	ori	a1,a1,32
    69dc:	c00c                	sw	a1,0(s0)
    69de:	4741                	li	a4,16
    69e0:	fbb1                	bnez	a5,6934 <_printf_i+0x144>
    69e2:	400c                	lw	a1,0(s0)
    69e4:	fdf5f593          	andi	a1,a1,-33
    69e8:	c00c                	sw	a1,0(s0)
    69ea:	b7a9                	j	6934 <_printf_i+0x144>
    69ec:	419c                	lw	a5,0(a1)
    69ee:	0207e793          	ori	a5,a5,32
    69f2:	c19c                	sw	a5,0(a1)
    69f4:	07800793          	li	a5,120
    69f8:	04f402a3          	sb	a5,69(s0)
    69fc:	00006697          	auipc	a3,0x6
    6a00:	4bc68693          	addi	a3,a3,1212 # ceb8 <__clz_tab+0x134>
    6a04:	bf75                	j	69c0 <_printf_i+0x1d0>
    6a06:	0405f813          	andi	a6,a1,64
    6a0a:	c308                	sw	a0,0(a4)
    6a0c:	fc0803e3          	beqz	a6,69d2 <_printf_i+0x1e2>
    6a10:	07c2                	slli	a5,a5,0x10
    6a12:	83c1                	srli	a5,a5,0x10
    6a14:	bf7d                	j	69d2 <_printf_i+0x1e2>
    6a16:	00006697          	auipc	a3,0x6
    6a1a:	48e68693          	addi	a3,a3,1166 # cea4 <__clz_tab+0x120>
    6a1e:	4721                	li	a4,8
    6a20:	bf11                	j	6934 <_printf_i+0x144>
    6a22:	87ae                	mv	a5,a1
    6a24:	b72d                	j	694e <_printf_i+0x15e>
    6a26:	4194                	lw	a3,0(a1)
    6a28:	431c                	lw	a5,0(a4)
    6a2a:	49cc                	lw	a1,20(a1)
    6a2c:	0806f813          	andi	a6,a3,128
    6a30:	00478513          	addi	a0,a5,4
    6a34:	00080663          	beqz	a6,6a40 <_printf_i+0x250>
    6a38:	c308                	sw	a0,0(a4)
    6a3a:	439c                	lw	a5,0(a5)
    6a3c:	c38c                	sw	a1,0(a5)
    6a3e:	a801                	j	6a4e <_printf_i+0x25e>
    6a40:	c308                	sw	a0,0(a4)
    6a42:	0406f693          	andi	a3,a3,64
    6a46:	439c                	lw	a5,0(a5)
    6a48:	daf5                	beqz	a3,6a3c <_printf_i+0x24c>
    6a4a:	00b79023          	sh	a1,0(a5)
    6a4e:	00042823          	sw	zero,16(s0)
    6a52:	8ab2                	mv	s5,a2
    6a54:	bf1d                	j	698a <_printf_i+0x19a>
    6a56:	4814                	lw	a3,16(s0)
    6a58:	8656                	mv	a2,s5
    6a5a:	85ca                	mv	a1,s2
    6a5c:	8526                	mv	a0,s1
    6a5e:	9982                	jalr	s3
    6a60:	f3450fe3          	beq	a0,s4,699e <_printf_i+0x1ae>
    6a64:	401c                	lw	a5,0(s0)
    6a66:	8b89                	andi	a5,a5,2
    6a68:	e78d                	bnez	a5,6a92 <_printf_i+0x2a2>
    6a6a:	47b2                	lw	a5,12(sp)
    6a6c:	4448                	lw	a0,12(s0)
    6a6e:	f2f559e3          	bge	a0,a5,69a0 <_printf_i+0x1b0>
    6a72:	853e                	mv	a0,a5
    6a74:	b735                	j	69a0 <_printf_i+0x1b0>
    6a76:	4685                	li	a3,1
    6a78:	8656                	mv	a2,s5
    6a7a:	85ca                	mv	a1,s2
    6a7c:	8526                	mv	a0,s1
    6a7e:	9982                	jalr	s3
    6a80:	f1650fe3          	beq	a0,s6,699e <_printf_i+0x1ae>
    6a84:	0a05                	addi	s4,s4,1
    6a86:	445c                	lw	a5,12(s0)
    6a88:	4732                	lw	a4,12(sp)
    6a8a:	8f99                	sub	a5,a5,a4
    6a8c:	fefa45e3          	blt	s4,a5,6a76 <_printf_i+0x286>
    6a90:	bfe9                	j	6a6a <_printf_i+0x27a>
    6a92:	4a01                	li	s4,0
    6a94:	01940a93          	addi	s5,s0,25
    6a98:	5b7d                	li	s6,-1
    6a9a:	b7f5                	j	6a86 <_printf_i+0x296>

00006a9c <_scanf_float>:
    6a9c:	459c                	lw	a5,8(a1)
    6a9e:	711d                	addi	sp,sp,-96
    6aa0:	cca2                	sw	s0,88(sp)
    6aa2:	c6ce                	sw	s3,76(sp)
    6aa4:	c0da                	sw	s6,64(sp)
    6aa6:	da66                	sw	s9,52(sp)
    6aa8:	ce86                	sw	ra,92(sp)
    6aaa:	8cb2                	mv	s9,a2
    6aac:	caa6                	sw	s1,84(sp)
    6aae:	c8ca                	sw	s2,80(sp)
    6ab0:	c4d2                	sw	s4,72(sp)
    6ab2:	c2d6                	sw	s5,68(sp)
    6ab4:	de5e                	sw	s7,60(sp)
    6ab6:	dc62                	sw	s8,56(sp)
    6ab8:	d86a                	sw	s10,48(sp)
    6aba:	d66e                	sw	s11,44(sp)
    6abc:	fff78613          	addi	a2,a5,-1
    6ac0:	15c00713          	li	a4,348
    6ac4:	8b36                	mv	s6,a3
    6ac6:	89aa                	mv	s3,a0
    6ac8:	842e                	mv	s0,a1
    6aca:	4681                	li	a3,0
    6acc:	00c77763          	bgeu	a4,a2,6ada <_scanf_float+0x3e>
    6ad0:	ea378693          	addi	a3,a5,-349
    6ad4:	15d00793          	li	a5,349
    6ad8:	c59c                	sw	a5,8(a1)
    6ada:	401c                	lw	a5,0(s0)
    6adc:	01c40a93          	addi	s5,s0,28
    6ae0:	84d6                	mv	s1,s5
    6ae2:	7807e793          	ori	a5,a5,1920
    6ae6:	c01c                	sw	a5,0(s0)
    6ae8:	4901                	li	s2,0
    6aea:	4d81                	li	s11,0
    6aec:	4c01                	li	s8,0
    6aee:	4a01                	li	s4,0
    6af0:	4d01                	li	s10,0
    6af2:	4b81                	li	s7,0
    6af4:	04900613          	li	a2,73
    6af8:	70000813          	li	a6,1792
    6afc:	4885                	li	a7,1
    6afe:	40000e93          	li	t4,1024
    6b02:	4309                	li	t1,2
    6b04:	06500e13          	li	t3,101
    6b08:	4f1d                	li	t5,7
    6b0a:	4418                	lw	a4,8(s0)
    6b0c:	cb1d                	beqz	a4,6b42 <_scanf_float+0xa6>
    6b0e:	000ca783          	lw	a5,0(s9)
    6b12:	0007c783          	lbu	a5,0(a5)
    6b16:	12c78b63          	beq	a5,a2,6c4c <_scanf_float+0x1b0>
    6b1a:	0cf66863          	bltu	a2,a5,6bea <_scanf_float+0x14e>
    6b1e:	03900593          	li	a1,57
    6b22:	0af5e463          	bltu	a1,a5,6bca <_scanf_float+0x12e>
    6b26:	03100593          	li	a1,49
    6b2a:	14b7fb63          	bgeu	a5,a1,6c80 <_scanf_float+0x1e4>
    6b2e:	02d00593          	li	a1,45
    6b32:	16b78363          	beq	a5,a1,6c98 <_scanf_float+0x1fc>
    6b36:	04f5e363          	bltu	a1,a5,6b7c <_scanf_float+0xe0>
    6b3a:	02b00713          	li	a4,43
    6b3e:	14e78d63          	beq	a5,a4,6c98 <_scanf_float+0x1fc>
    6b42:	000d0663          	beqz	s10,6b4e <_scanf_float+0xb2>
    6b46:	401c                	lw	a5,0(s0)
    6b48:	eff7f793          	andi	a5,a5,-257
    6b4c:	c01c                	sw	a5,0(s0)
    6b4e:	1dfd                	addi	s11,s11,-1
    6b50:	4785                	li	a5,1
    6b52:	21b7eb63          	bltu	a5,s11,6d68 <_scanf_float+0x2cc>
    6b56:	1e9aed63          	bltu	s5,s1,6d50 <_scanf_float+0x2b4>
    6b5a:	4905                	li	s2,1
    6b5c:	40f6                	lw	ra,92(sp)
    6b5e:	4466                	lw	s0,88(sp)
    6b60:	854a                	mv	a0,s2
    6b62:	44d6                	lw	s1,84(sp)
    6b64:	4946                	lw	s2,80(sp)
    6b66:	49b6                	lw	s3,76(sp)
    6b68:	4a26                	lw	s4,72(sp)
    6b6a:	4a96                	lw	s5,68(sp)
    6b6c:	4b06                	lw	s6,64(sp)
    6b6e:	5bf2                	lw	s7,60(sp)
    6b70:	5c62                	lw	s8,56(sp)
    6b72:	5cd2                	lw	s9,52(sp)
    6b74:	5d42                	lw	s10,48(sp)
    6b76:	5db2                	lw	s11,44(sp)
    6b78:	6125                	addi	sp,sp,96
    6b7a:	8082                	ret
    6b7c:	02e00593          	li	a1,46
    6b80:	14b78f63          	beq	a5,a1,6cde <_scanf_float+0x242>
    6b84:	03000593          	li	a1,48
    6b88:	fab79de3          	bne	a5,a1,6b42 <_scanf_float+0xa6>
    6b8c:	400c                	lw	a1,0(s0)
    6b8e:	1005f513          	andi	a0,a1,256
    6b92:	c57d                	beqz	a0,6c80 <_scanf_float+0x1e4>
    6b94:	f7f5f593          	andi	a1,a1,-129
    6b98:	c00c                	sw	a1,0(s0)
    6b9a:	0d05                	addi	s10,s10,1
    6b9c:	c681                	beqz	a3,6ba4 <_scanf_float+0x108>
    6b9e:	0705                	addi	a4,a4,1
    6ba0:	16fd                	addi	a3,a3,-1
    6ba2:	c418                	sw	a4,8(s0)
    6ba4:	441c                	lw	a5,8(s0)
    6ba6:	17fd                	addi	a5,a5,-1
    6ba8:	c41c                	sw	a5,8(s0)
    6baa:	481c                	lw	a5,16(s0)
    6bac:	0785                	addi	a5,a5,1
    6bae:	c81c                	sw	a5,16(s0)
    6bb0:	004ca783          	lw	a5,4(s9)
    6bb4:	17fd                	addi	a5,a5,-1
    6bb6:	00fca223          	sw	a5,4(s9)
    6bba:	16f05663          	blez	a5,6d26 <_scanf_float+0x28a>
    6bbe:	000ca783          	lw	a5,0(s9)
    6bc2:	0785                	addi	a5,a5,1
    6bc4:	00fca023          	sw	a5,0(s9)
    6bc8:	b789                	j	6b0a <_scanf_float+0x6e>
    6bca:	04500713          	li	a4,69
    6bce:	12e78263          	beq	a5,a4,6cf2 <_scanf_float+0x256>
    6bd2:	04600713          	li	a4,70
    6bd6:	0ee78b63          	beq	a5,a4,6ccc <_scanf_float+0x230>
    6bda:	04100713          	li	a4,65
    6bde:	f6e792e3          	bne	a5,a4,6b42 <_scanf_float+0xa6>
    6be2:	f71d90e3          	bne	s11,a7,6b42 <_scanf_float+0xa6>
    6be6:	4d89                	li	s11,2
    6be8:	a065                	j	6c90 <_scanf_float+0x1f4>
    6bea:	11c78463          	beq	a5,t3,6cf2 <_scanf_float+0x256>
    6bee:	04fe6163          	bltu	t3,a5,6c30 <_scanf_float+0x194>
    6bf2:	05400713          	li	a4,84
    6bf6:	0ce78f63          	beq	a5,a4,6cd4 <_scanf_float+0x238>
    6bfa:	02f76463          	bltu	a4,a5,6c22 <_scanf_float+0x186>
    6bfe:	04e00713          	li	a4,78
    6c02:	f4e790e3          	bne	a5,a4,6b42 <_scanf_float+0xa6>
    6c06:	0a0d9163          	bnez	s11,6ca8 <_scanf_float+0x20c>
    6c0a:	0a0d1163          	bnez	s10,6cac <_scanf_float+0x210>
    6c0e:	4018                	lw	a4,0(s0)
    6c10:	70077593          	andi	a1,a4,1792
    6c14:	09059c63          	bne	a1,a6,6cac <_scanf_float+0x210>
    6c18:	87f77713          	andi	a4,a4,-1921
    6c1c:	c018                	sw	a4,0(s0)
    6c1e:	4d85                	li	s11,1
    6c20:	a885                	j	6c90 <_scanf_float+0x1f4>
    6c22:	05900713          	li	a4,89
    6c26:	04e78963          	beq	a5,a4,6c78 <_scanf_float+0x1dc>
    6c2a:	06100713          	li	a4,97
    6c2e:	bf45                	j	6bde <_scanf_float+0x142>
    6c30:	06e00713          	li	a4,110
    6c34:	fce789e3          	beq	a5,a4,6c06 <_scanf_float+0x16a>
    6c38:	02f76863          	bltu	a4,a5,6c68 <_scanf_float+0x1cc>
    6c3c:	06600713          	li	a4,102
    6c40:	08e78663          	beq	a5,a4,6ccc <_scanf_float+0x230>
    6c44:	06900713          	li	a4,105
    6c48:	eee79de3          	bne	a5,a4,6b42 <_scanf_float+0xa6>
    6c4c:	06091963          	bnez	s2,6cbe <_scanf_float+0x222>
    6c50:	ee0d1be3          	bnez	s10,6b46 <_scanf_float+0xaa>
    6c54:	4018                	lw	a4,0(s0)
    6c56:	70077593          	andi	a1,a4,1792
    6c5a:	ef059ae3          	bne	a1,a6,6b4e <_scanf_float+0xb2>
    6c5e:	87f77713          	andi	a4,a4,-1921
    6c62:	c018                	sw	a4,0(s0)
    6c64:	4905                	li	s2,1
    6c66:	a02d                	j	6c90 <_scanf_float+0x1f4>
    6c68:	07400713          	li	a4,116
    6c6c:	06e78463          	beq	a5,a4,6cd4 <_scanf_float+0x238>
    6c70:	07900713          	li	a4,121
    6c74:	ece797e3          	bne	a5,a4,6b42 <_scanf_float+0xa6>
    6c78:	ede915e3          	bne	s2,t5,6b42 <_scanf_float+0xa6>
    6c7c:	4921                	li	s2,8
    6c7e:	a809                	j	6c90 <_scanf_float+0x1f4>
    6c80:	012d8733          	add	a4,s11,s2
    6c84:	ea071fe3          	bnez	a4,6b42 <_scanf_float+0xa6>
    6c88:	4018                	lw	a4,0(s0)
    6c8a:	e7f77713          	andi	a4,a4,-385
    6c8e:	c018                	sw	a4,0(s0)
    6c90:	00f48023          	sb	a5,0(s1)
    6c94:	0485                	addi	s1,s1,1
    6c96:	b739                	j	6ba4 <_scanf_float+0x108>
    6c98:	4018                	lw	a4,0(s0)
    6c9a:	08077593          	andi	a1,a4,128
    6c9e:	ea0582e3          	beqz	a1,6b42 <_scanf_float+0xa6>
    6ca2:	f7f77713          	andi	a4,a4,-129
    6ca6:	b7e5                	j	6c8e <_scanf_float+0x1f2>
    6ca8:	066d8d63          	beq	s11,t1,6d22 <_scanf_float+0x286>
    6cac:	01190563          	beq	s2,a7,6cb6 <_scanf_float+0x21a>
    6cb0:	4711                	li	a4,4
    6cb2:	e8e918e3          	bne	s2,a4,6b42 <_scanf_float+0xa6>
    6cb6:	0905                	addi	s2,s2,1
    6cb8:	0ff97913          	andi	s2,s2,255
    6cbc:	bfd1                	j	6c90 <_scanf_float+0x1f4>
    6cbe:	ffd90713          	addi	a4,s2,-3 # 7ffffd <_data_lma+0x7f2da9>
    6cc2:	0fd77713          	andi	a4,a4,253
    6cc6:	e6071ee3          	bnez	a4,6b42 <_scanf_float+0xa6>
    6cca:	b7f5                	j	6cb6 <_scanf_float+0x21a>
    6ccc:	e6691be3          	bne	s2,t1,6b42 <_scanf_float+0xa6>
    6cd0:	490d                	li	s2,3
    6cd2:	bf7d                	j	6c90 <_scanf_float+0x1f4>
    6cd4:	4719                	li	a4,6
    6cd6:	e6e916e3          	bne	s2,a4,6b42 <_scanf_float+0xa6>
    6cda:	491d                	li	s2,7
    6cdc:	bf55                	j	6c90 <_scanf_float+0x1f4>
    6cde:	4018                	lw	a4,0(s0)
    6ce0:	20077593          	andi	a1,a4,512
    6ce4:	e4058fe3          	beqz	a1,6b42 <_scanf_float+0xa6>
    6ce8:	d7f77713          	andi	a4,a4,-641
    6cec:	c018                	sw	a4,0(s0)
    6cee:	8bea                	mv	s7,s10
    6cf0:	b745                	j	6c90 <_scanf_float+0x1f4>
    6cf2:	4018                	lw	a4,0(s0)
    6cf4:	50077593          	andi	a1,a4,1280
    6cf8:	01d58863          	beq	a1,t4,6d08 <_scanf_float+0x26c>
    6cfc:	40077593          	andi	a1,a4,1024
    6d00:	e40581e3          	beqz	a1,6b42 <_scanf_float+0xa6>
    6d04:	e40d05e3          	beqz	s10,6b4e <_scanf_float+0xb2>
    6d08:	20077593          	andi	a1,a4,512
    6d0c:	e581                	bnez	a1,6d14 <_scanf_float+0x278>
    6d0e:	417d0a33          	sub	s4,s10,s7
    6d12:	8c26                	mv	s8,s1
    6d14:	87f77713          	andi	a4,a4,-1921
    6d18:	18076713          	ori	a4,a4,384
    6d1c:	c018                	sw	a4,0(s0)
    6d1e:	4d01                	li	s10,0
    6d20:	bf85                	j	6c90 <_scanf_float+0x1f4>
    6d22:	4d8d                	li	s11,3
    6d24:	b7b5                	j	6c90 <_scanf_float+0x1f4>
    6d26:	18042783          	lw	a5,384(s0)
    6d2a:	85e6                	mv	a1,s9
    6d2c:	854e                	mv	a0,s3
    6d2e:	c636                	sw	a3,12(sp)
    6d30:	9782                	jalr	a5
    6d32:	46b2                	lw	a3,12(sp)
    6d34:	04900613          	li	a2,73
    6d38:	70000813          	li	a6,1792
    6d3c:	4885                	li	a7,1
    6d3e:	40000e93          	li	t4,1024
    6d42:	4309                	li	t1,2
    6d44:	06500e13          	li	t3,101
    6d48:	4f1d                	li	t5,7
    6d4a:	dc0500e3          	beqz	a0,6b0a <_scanf_float+0x6e>
    6d4e:	bbd5                	j	6b42 <_scanf_float+0xa6>
    6d50:	14fd                	addi	s1,s1,-1
    6d52:	17c42783          	lw	a5,380(s0)
    6d56:	0004c583          	lbu	a1,0(s1)
    6d5a:	8666                	mv	a2,s9
    6d5c:	854e                	mv	a0,s3
    6d5e:	9782                	jalr	a5
    6d60:	481c                	lw	a5,16(s0)
    6d62:	17fd                	addi	a5,a5,-1
    6d64:	c81c                	sw	a5,16(s0)
    6d66:	bbc5                	j	6b56 <_scanf_float+0xba>
    6d68:	fff90793          	addi	a5,s2,-1
    6d6c:	4719                	li	a4,6
    6d6e:	02f76663          	bltu	a4,a5,6d9a <_scanf_float+0x2fe>
    6d72:	4789                	li	a5,2
    6d74:	8da6                	mv	s11,s1
    6d76:	0927f163          	bgeu	a5,s2,6df8 <_scanf_float+0x35c>
    6d7a:	40990733          	sub	a4,s2,s1
    6d7e:	0ff77713          	andi	a4,a4,255
    6d82:	468d                	li	a3,3
    6d84:	00ed87b3          	add	a5,s11,a4
    6d88:	0ff7f793          	andi	a5,a5,255
    6d8c:	02f6ec63          	bltu	a3,a5,6dc4 <_scanf_float+0x328>
    6d90:	1975                	addi	s2,s2,-3
    6d92:	0ff97913          	andi	s2,s2,255
    6d96:	412484b3          	sub	s1,s1,s2
    6d9a:	401c                	lw	a5,0(s0)
    6d9c:	1007f713          	andi	a4,a5,256
    6da0:	c345                	beqz	a4,6e40 <_scanf_float+0x3a4>
    6da2:	4007f793          	andi	a5,a5,1024
    6da6:	cfa1                	beqz	a5,6dfe <_scanf_float+0x362>
    6da8:	da9af9e3          	bgeu	s5,s1,6b5a <_scanf_float+0xbe>
    6dac:	14fd                	addi	s1,s1,-1
    6dae:	17c42783          	lw	a5,380(s0)
    6db2:	0004c583          	lbu	a1,0(s1)
    6db6:	8666                	mv	a2,s9
    6db8:	854e                	mv	a0,s3
    6dba:	9782                	jalr	a5
    6dbc:	481c                	lw	a5,16(s0)
    6dbe:	17fd                	addi	a5,a5,-1
    6dc0:	c81c                	sw	a5,16(s0)
    6dc2:	b7dd                	j	6da8 <_scanf_float+0x30c>
    6dc4:	1dfd                	addi	s11,s11,-1
    6dc6:	17c42783          	lw	a5,380(s0)
    6dca:	000dc583          	lbu	a1,0(s11)
    6dce:	8666                	mv	a2,s9
    6dd0:	854e                	mv	a0,s3
    6dd2:	c63a                	sw	a4,12(sp)
    6dd4:	9782                	jalr	a5
    6dd6:	481c                	lw	a5,16(s0)
    6dd8:	468d                	li	a3,3
    6dda:	4732                	lw	a4,12(sp)
    6ddc:	17fd                	addi	a5,a5,-1
    6dde:	c81c                	sw	a5,16(s0)
    6de0:	b755                	j	6d84 <_scanf_float+0x2e8>
    6de2:	14fd                	addi	s1,s1,-1
    6de4:	17c42783          	lw	a5,380(s0)
    6de8:	0004c583          	lbu	a1,0(s1)
    6dec:	8666                	mv	a2,s9
    6dee:	854e                	mv	a0,s3
    6df0:	9782                	jalr	a5
    6df2:	481c                	lw	a5,16(s0)
    6df4:	17fd                	addi	a5,a5,-1
    6df6:	c81c                	sw	a5,16(s0)
    6df8:	fe9ae5e3          	bltu	s5,s1,6de2 <_scanf_float+0x346>
    6dfc:	bbb9                	j	6b5a <_scanf_float+0xbe>
    6dfe:	481c                	lw	a5,16(s0)
    6e00:	fff4c583          	lbu	a1,-1(s1)
    6e04:	fff48913          	addi	s2,s1,-1
    6e08:	17fd                	addi	a5,a5,-1
    6e0a:	c81c                	sw	a5,16(s0)
    6e0c:	06500793          	li	a5,101
    6e10:	02f58263          	beq	a1,a5,6e34 <_scanf_float+0x398>
    6e14:	04500793          	li	a5,69
    6e18:	00f58e63          	beq	a1,a5,6e34 <_scanf_float+0x398>
    6e1c:	17c42783          	lw	a5,380(s0)
    6e20:	8666                	mv	a2,s9
    6e22:	854e                	mv	a0,s3
    6e24:	9782                	jalr	a5
    6e26:	481c                	lw	a5,16(s0)
    6e28:	ffe4c583          	lbu	a1,-2(s1)
    6e2c:	ffe48913          	addi	s2,s1,-2
    6e30:	17fd                	addi	a5,a5,-1
    6e32:	c81c                	sw	a5,16(s0)
    6e34:	17c42783          	lw	a5,380(s0)
    6e38:	8666                	mv	a2,s9
    6e3a:	854e                	mv	a0,s3
    6e3c:	9782                	jalr	a5
    6e3e:	84ca                	mv	s1,s2
    6e40:	00042903          	lw	s2,0(s0)
    6e44:	01097913          	andi	s2,s2,16
    6e48:	0c091363          	bnez	s2,6f0e <_scanf_float+0x472>
    6e4c:	00048023          	sb	zero,0(s1)
    6e50:	401c                	lw	a5,0(s0)
    6e52:	40000713          	li	a4,1024
    6e56:	6007f793          	andi	a5,a5,1536
    6e5a:	02e79e63          	bne	a5,a4,6e96 <_scanf_float+0x3fa>
    6e5e:	41ab8633          	sub	a2,s7,s10
    6e62:	05ab9663          	bne	s7,s10,6eae <_scanf_float+0x412>
    6e66:	85d6                	mv	a1,s5
    6e68:	4601                	li	a2,0
    6e6a:	854e                	mv	a0,s3
    6e6c:	645000ef          	jal	ra,7cb0 <_strtod_r>
    6e70:	4018                	lw	a4,0(s0)
    6e72:	8a2a                	mv	s4,a0
    6e74:	8aae                	mv	s5,a1
    6e76:	00277693          	andi	a3,a4,2
    6e7a:	000b2783          	lw	a5,0(s6)
    6e7e:	c6a9                	beqz	a3,6ec8 <_scanf_float+0x42c>
    6e80:	00478713          	addi	a4,a5,4
    6e84:	00eb2023          	sw	a4,0(s6)
    6e88:	439c                	lw	a5,0(a5)
    6e8a:	c388                	sw	a0,0(a5)
    6e8c:	c3cc                	sw	a1,4(a5)
    6e8e:	445c                	lw	a5,12(s0)
    6e90:	0785                	addi	a5,a5,1
    6e92:	c45c                	sw	a5,12(s0)
    6e94:	b1e1                	j	6b5c <_scanf_float+0xc0>
    6e96:	fc0a08e3          	beqz	s4,6e66 <_scanf_float+0x3ca>
    6e9a:	4601                	li	a2,0
    6e9c:	46a9                	li	a3,10
    6e9e:	001c0593          	addi	a1,s8,1
    6ea2:	854e                	mv	a0,s3
    6ea4:	767000ef          	jal	ra,7e0a <_strtol_r>
    6ea8:	41450633          	sub	a2,a0,s4
    6eac:	84e2                	mv	s1,s8
    6eae:	16f40793          	addi	a5,s0,367
    6eb2:	00f4e463          	bltu	s1,a5,6eba <_scanf_float+0x41e>
    6eb6:	16e40493          	addi	s1,s0,366
    6eba:	00006597          	auipc	a1,0x6
    6ebe:	01258593          	addi	a1,a1,18 # cecc <__clz_tab+0x148>
    6ec2:	8526                	mv	a0,s1
    6ec4:	20e1                	jal	6f8c <siprintf>
    6ec6:	b745                	j	6e66 <_scanf_float+0x3ca>
    6ec8:	00478693          	addi	a3,a5,4
    6ecc:	00db2023          	sw	a3,0(s6)
    6ed0:	8b11                	andi	a4,a4,4
    6ed2:	4384                	lw	s1,0(a5)
    6ed4:	cf19                	beqz	a4,6ef2 <_scanf_float+0x456>
    6ed6:	85aa                	mv	a1,a0
    6ed8:	8656                	mv	a2,s5
    6eda:	0808                	addi	a0,sp,16
    6edc:	2b0040ef          	jal	ra,b18c <__extenddftf2>
    6ee0:	46d2                	lw	a3,20(sp)
    6ee2:	4762                	lw	a4,24(sp)
    6ee4:	47f2                	lw	a5,28(sp)
    6ee6:	4642                	lw	a2,16(sp)
    6ee8:	c0d4                	sw	a3,4(s1)
    6eea:	c498                	sw	a4,8(s1)
    6eec:	c090                	sw	a2,0(s1)
    6eee:	c4dc                	sw	a5,12(s1)
    6ef0:	bf79                	j	6e8e <_scanf_float+0x3f2>
    6ef2:	862a                	mv	a2,a0
    6ef4:	86ae                	mv	a3,a1
    6ef6:	998fe0ef          	jal	ra,508e <__unorddf2>
    6efa:	c509                	beqz	a0,6f04 <_scanf_float+0x468>
    6efc:	4501                	li	a0,0
    6efe:	2049                	jal	6f80 <nanf>
    6f00:	c088                	sw	a0,0(s1)
    6f02:	b771                	j	6e8e <_scanf_float+0x3f2>
    6f04:	8552                	mv	a0,s4
    6f06:	85d6                	mv	a1,s5
    6f08:	fb7fe0ef          	jal	ra,5ebe <__truncdfsf2>
    6f0c:	bfd5                	j	6f00 <_scanf_float+0x464>
    6f0e:	4901                	li	s2,0
    6f10:	b1b1                	j	6b5c <_scanf_float+0xc0>

00006f12 <iprintf>:
    6f12:	7139                	addi	sp,sp,-64
    6f14:	da3e                	sw	a5,52(sp)
    6f16:	d22e                	sw	a1,36(sp)
    6f18:	d432                	sw	a2,40(sp)
    6f1a:	d636                	sw	a3,44(sp)
    6f1c:	d83a                	sw	a4,48(sp)
    6f1e:	dc42                	sw	a6,56(sp)
    6f20:	de46                	sw	a7,60(sp)
    6f22:	81018793          	addi	a5,gp,-2032 # 200001f0 <_impure_ptr>
    6f26:	cc22                	sw	s0,24(sp)
    6f28:	4380                	lw	s0,0(a5)
    6f2a:	ca26                	sw	s1,20(sp)
    6f2c:	ce06                	sw	ra,28(sp)
    6f2e:	84aa                	mv	s1,a0
    6f30:	c411                	beqz	s0,6f3c <iprintf+0x2a>
    6f32:	4c1c                	lw	a5,24(s0)
    6f34:	e781                	bnez	a5,6f3c <iprintf+0x2a>
    6f36:	8522                	mv	a0,s0
    6f38:	4ff010ef          	jal	ra,8c36 <__sinit>
    6f3c:	440c                	lw	a1,8(s0)
    6f3e:	1054                	addi	a3,sp,36
    6f40:	8626                	mv	a2,s1
    6f42:	8522                	mv	a0,s0
    6f44:	c636                	sw	a3,12(sp)
    6f46:	5ea030ef          	jal	ra,a530 <_vfiprintf_r>
    6f4a:	40f2                	lw	ra,28(sp)
    6f4c:	4462                	lw	s0,24(sp)
    6f4e:	44d2                	lw	s1,20(sp)
    6f50:	6121                	addi	sp,sp,64
    6f52:	8082                	ret

00006f54 <putchar>:
    6f54:	1101                	addi	sp,sp,-32
    6f56:	81018793          	addi	a5,gp,-2032 # 200001f0 <_impure_ptr>
    6f5a:	cc22                	sw	s0,24(sp)
    6f5c:	4380                	lw	s0,0(a5)
    6f5e:	ce06                	sw	ra,28(sp)
    6f60:	85aa                	mv	a1,a0
    6f62:	c801                	beqz	s0,6f72 <putchar+0x1e>
    6f64:	4c1c                	lw	a5,24(s0)
    6f66:	e791                	bnez	a5,6f72 <putchar+0x1e>
    6f68:	c62a                	sw	a0,12(sp)
    6f6a:	8522                	mv	a0,s0
    6f6c:	4cb010ef          	jal	ra,8c36 <__sinit>
    6f70:	45b2                	lw	a1,12(sp)
    6f72:	4410                	lw	a2,8(s0)
    6f74:	8522                	mv	a0,s0
    6f76:	4462                	lw	s0,24(sp)
    6f78:	40f2                	lw	ra,28(sp)
    6f7a:	6105                	addi	sp,sp,32
    6f7c:	0530306f          	j	a7ce <_putc_r>

00006f80 <nanf>:
    6f80:	00006797          	auipc	a5,0x6
    6f84:	f5478793          	addi	a5,a5,-172 # ced4 <__clz_tab+0x150>
    6f88:	4388                	lw	a0,0(a5)
    6f8a:	8082                	ret

00006f8c <siprintf>:
    6f8c:	7135                	addi	sp,sp,-160
    6f8e:	cb3e                	sw	a5,148(sp)
    6f90:	800007b7          	lui	a5,0x80000
    6f94:	fff7c793          	not	a5,a5
    6f98:	ce3e                	sw	a5,28(sp)
    6f9a:	c83e                	sw	a5,16(sp)
    6f9c:	77c1                	lui	a5,0xffff0
    6f9e:	20878793          	addi	a5,a5,520 # ffff0208 <_eusrstack+0xdffe8208>
    6fa2:	c532                	sw	a2,136(sp)
    6fa4:	c736                	sw	a3,140(sp)
    6fa6:	c93a                	sw	a4,144(sp)
    6fa8:	cd42                	sw	a6,152(sp)
    6faa:	cf46                	sw	a7,156(sp)
    6fac:	ca3e                	sw	a5,20(sp)
    6fae:	81018793          	addi	a5,gp,-2032 # 200001f0 <_impure_ptr>
    6fb2:	c42a                	sw	a0,8(sp)
    6fb4:	cc2a                	sw	a0,24(sp)
    6fb6:	4388                	lw	a0,0(a5)
    6fb8:	0134                	addi	a3,sp,136
    6fba:	862e                	mv	a2,a1
    6fbc:	002c                	addi	a1,sp,8
    6fbe:	de86                	sw	ra,124(sp)
    6fc0:	c236                	sw	a3,4(sp)
    6fc2:	284030ef          	jal	ra,a246 <_svfiprintf_r>
    6fc6:	47a2                	lw	a5,8(sp)
    6fc8:	00078023          	sb	zero,0(a5)
    6fcc:	50f6                	lw	ra,124(sp)
    6fce:	610d                	addi	sp,sp,160
    6fd0:	8082                	ret

00006fd2 <strlen>:
    6fd2:	87aa                	mv	a5,a0
    6fd4:	0785                	addi	a5,a5,1
    6fd6:	fff7c703          	lbu	a4,-1(a5)
    6fda:	ff6d                	bnez	a4,6fd4 <strlen+0x2>
    6fdc:	40a78533          	sub	a0,a5,a0
    6fe0:	157d                	addi	a0,a0,-1
    6fe2:	8082                	ret

00006fe4 <sulp>:
    6fe4:	1101                	addi	sp,sp,-32
    6fe6:	cc22                	sw	s0,24(sp)
    6fe8:	872a                	mv	a4,a0
    6fea:	842e                	mv	s0,a1
    6fec:	853a                	mv	a0,a4
    6fee:	85a2                	mv	a1,s0
    6ff0:	c632                	sw	a2,12(sp)
    6ff2:	ce06                	sw	ra,28(sp)
    6ff4:	501020ef          	jal	ra,9cf4 <__ulp>
    6ff8:	4632                	lw	a2,12(sp)
    6ffa:	882a                	mv	a6,a0
    6ffc:	88ae                	mv	a7,a1
    6ffe:	c605                	beqz	a2,7026 <sulp+0x42>
    7000:	8051                	srli	s0,s0,0x14
    7002:	7ff47413          	andi	s0,s0,2047
    7006:	06b00793          	li	a5,107
    700a:	8f81                	sub	a5,a5,s0
    700c:	00f05d63          	blez	a5,7026 <sulp+0x42>
    7010:	07d2                	slli	a5,a5,0x14
    7012:	3ff00737          	lui	a4,0x3ff00
    7016:	4801                	li	a6,0
    7018:	973e                	add	a4,a4,a5
    701a:	8642                	mv	a2,a6
    701c:	86ba                	mv	a3,a4
    701e:	c7afd0ef          	jal	ra,4498 <__muldf3>
    7022:	882a                	mv	a6,a0
    7024:	88ae                	mv	a7,a1
    7026:	40f2                	lw	ra,28(sp)
    7028:	4462                	lw	s0,24(sp)
    702a:	8542                	mv	a0,a6
    702c:	85c6                	mv	a1,a7
    702e:	6105                	addi	sp,sp,32
    7030:	8082                	ret

00007032 <_strtod_l>:
    7032:	7135                	addi	sp,sp,-160
    7034:	c94a                	sw	s2,144(sp)
    7036:	892a                	mv	s2,a0
    7038:	8536                	mv	a0,a3
    703a:	d432                	sw	a2,40(sp)
    703c:	c636                	sw	a3,12(sp)
    703e:	cf06                	sw	ra,156(sp)
    7040:	cd22                	sw	s0,152(sp)
    7042:	cb26                	sw	s1,148(sp)
    7044:	c74e                	sw	s3,140(sp)
    7046:	d8ea                	sw	s10,112(sp)
    7048:	d6ee                	sw	s11,108(sp)
    704a:	8d2e                	mv	s10,a1
    704c:	c552                	sw	s4,136(sp)
    704e:	c356                	sw	s5,132(sp)
    7050:	c15a                	sw	s6,128(sp)
    7052:	dede                	sw	s7,124(sp)
    7054:	dce2                	sw	s8,120(sp)
    7056:	dae6                	sw	s9,116(sp)
    7058:	c882                	sw	zero,80(sp)
    705a:	498020ef          	jal	ra,94f2 <__localeconv_l>
    705e:	8daa                	mv	s11,a0
    7060:	4108                	lw	a0,0(a0)
    7062:	4481                	li	s1,0
    7064:	4401                	li	s0,0
    7066:	f6dff0ef          	jal	ra,6fd2 <strlen>
    706a:	46b2                	lw	a3,12(sp)
    706c:	89aa                	mv	s3,a0
    706e:	c6ea                	sw	s10,76(sp)
    7070:	4635                	li	a2,13
    7072:	02b00593          	li	a1,43
    7076:	02d00513          	li	a0,45
    707a:	02000813          	li	a6,32
    707e:	48a5                	li	a7,9
    7080:	47b6                	lw	a5,76(sp)
    7082:	0007c703          	lbu	a4,0(a5)
    7086:	08e66b63          	bltu	a2,a4,711c <_strtod_l+0xea>
    708a:	09177f63          	bgeu	a4,a7,7128 <_strtod_l+0xf6>
    708e:	c75d                	beqz	a4,713c <_strtod_l+0x10a>
    7090:	c802                	sw	zero,16(sp)
    7092:	4a36                	lw	s4,76(sp)
    7094:	03000793          	li	a5,48
    7098:	4a81                	li	s5,0
    709a:	000a4703          	lbu	a4,0(s4)
    709e:	12f71d63          	bne	a4,a5,71d8 <_strtod_l+0x1a6>
    70a2:	001a4783          	lbu	a5,1(s4)
    70a6:	05800713          	li	a4,88
    70aa:	00e78863          	beq	a5,a4,70ba <_strtod_l+0x88>
    70ae:	07800613          	li	a2,120
    70b2:	03000713          	li	a4,48
    70b6:	10c79763          	bne	a5,a2,71c4 <_strtod_l+0x192>
    70ba:	47c2                	lw	a5,16(sp)
    70bc:	8836                	mv	a6,a3
    70be:	0898                	addi	a4,sp,80
    70c0:	08d4                	addi	a3,sp,84
    70c2:	00006617          	auipc	a2,0x6
    70c6:	e7660613          	addi	a2,a2,-394 # cf38 <fpi.3395>
    70ca:	00ec                	addi	a1,sp,76
    70cc:	854a                	mv	a0,s2
    70ce:	597010ef          	jal	ra,8e64 <__gethex>
    70d2:	00757993          	andi	s3,a0,7
    70d6:	8aaa                	mv	s5,a0
    70d8:	00098863          	beqz	s3,70e8 <_strtod_l+0xb6>
    70dc:	4799                	li	a5,6
    70de:	06f99863          	bne	s3,a5,714e <_strtod_l+0x11c>
    70e2:	0a05                	addi	s4,s4,1
    70e4:	c6d2                	sw	s4,76(sp)
    70e6:	c802                	sw	zero,16(sp)
    70e8:	57a2                	lw	a5,40(sp)
    70ea:	c781                	beqz	a5,70f2 <_strtod_l+0xc0>
    70ec:	47b6                	lw	a5,76(sp)
    70ee:	5722                	lw	a4,40(sp)
    70f0:	c31c                	sw	a5,0(a4)
    70f2:	47c2                	lw	a5,16(sp)
    70f4:	cba1                	beqz	a5,7144 <_strtod_l+0x112>
    70f6:	800005b7          	lui	a1,0x80000
    70fa:	8da1                	xor	a1,a1,s0
    70fc:	40fa                	lw	ra,156(sp)
    70fe:	446a                	lw	s0,152(sp)
    7100:	8526                	mv	a0,s1
    7102:	494a                	lw	s2,144(sp)
    7104:	44da                	lw	s1,148(sp)
    7106:	49ba                	lw	s3,140(sp)
    7108:	4a2a                	lw	s4,136(sp)
    710a:	4a9a                	lw	s5,132(sp)
    710c:	4b0a                	lw	s6,128(sp)
    710e:	5bf6                	lw	s7,124(sp)
    7110:	5c66                	lw	s8,120(sp)
    7112:	5cd6                	lw	s9,116(sp)
    7114:	5d46                	lw	s10,112(sp)
    7116:	5db6                	lw	s11,108(sp)
    7118:	610d                	addi	sp,sp,160
    711a:	8082                	ret
    711c:	00b70963          	beq	a4,a1,712e <_strtod_l+0xfc>
    7120:	02a70463          	beq	a4,a0,7148 <_strtod_l+0x116>
    7124:	f70716e3          	bne	a4,a6,7090 <_strtod_l+0x5e>
    7128:	0785                	addi	a5,a5,1
    712a:	c6be                	sw	a5,76(sp)
    712c:	bf91                	j	7080 <_strtod_l+0x4e>
    712e:	c802                	sw	zero,16(sp)
    7130:	00178713          	addi	a4,a5,1
    7134:	c6ba                	sw	a4,76(sp)
    7136:	0017c783          	lbu	a5,1(a5)
    713a:	ffa1                	bnez	a5,7092 <_strtod_l+0x60>
    713c:	57a2                	lw	a5,40(sp)
    713e:	c6ea                	sw	s10,76(sp)
    7140:	c802                	sw	zero,16(sp)
    7142:	f7cd                	bnez	a5,70ec <_strtod_l+0xba>
    7144:	85a2                	mv	a1,s0
    7146:	bf5d                	j	70fc <_strtod_l+0xca>
    7148:	4705                	li	a4,1
    714a:	c83a                	sw	a4,16(sp)
    714c:	b7d5                	j	7130 <_strtod_l+0xfe>
    714e:	4646                	lw	a2,80(sp)
    7150:	ca11                	beqz	a2,7164 <_strtod_l+0x132>
    7152:	03500593          	li	a1,53
    7156:	08a8                	addi	a0,sp,88
    7158:	5df020ef          	jal	ra,9f36 <__copybits>
    715c:	45c6                	lw	a1,80(sp)
    715e:	854a                	mv	a0,s2
    7160:	552020ef          	jal	ra,96b2 <_Bfree>
    7164:	19fd                	addi	s3,s3,-1
    7166:	4791                	li	a5,4
    7168:	0137ee63          	bltu	a5,s3,7184 <_strtod_l+0x152>
    716c:	00006717          	auipc	a4,0x6
    7170:	d6c70713          	addi	a4,a4,-660 # ced8 <__clz_tab+0x154>
    7174:	098a                	slli	s3,s3,0x2
    7176:	99ba                	add	s3,s3,a4
    7178:	0009a783          	lw	a5,0(s3)
    717c:	97ba                	add	a5,a5,a4
    717e:	8782                	jr	a5
    7180:	44e6                	lw	s1,88(sp)
    7182:	4476                	lw	s0,92(sp)
    7184:	008afa93          	andi	s5,s5,8
    7188:	f60a80e3          	beqz	s5,70e8 <_strtod_l+0xb6>
    718c:	800007b7          	lui	a5,0x80000
    7190:	8c5d                	or	s0,s0,a5
    7192:	bf99                	j	70e8 <_strtod_l+0xb6>
    7194:	45f6                	lw	a1,92(sp)
    7196:	fff00437          	lui	s0,0xfff00
    719a:	147d                	addi	s0,s0,-1
    719c:	0085f7b3          	and	a5,a1,s0
    71a0:	4456                	lw	s0,84(sp)
    71a2:	44e6                	lw	s1,88(sp)
    71a4:	43340413          	addi	s0,s0,1075 # fff00433 <_eusrstack+0xdfef8433>
    71a8:	01441593          	slli	a1,s0,0x14
    71ac:	00b7e433          	or	s0,a5,a1
    71b0:	bfd1                	j	7184 <_strtod_l+0x152>
    71b2:	7ff00437          	lui	s0,0x7ff00
    71b6:	b7f9                	j	7184 <_strtod_l+0x152>
    71b8:	800005b7          	lui	a1,0x80000
    71bc:	fff5c413          	not	s0,a1
    71c0:	54fd                	li	s1,-1
    71c2:	b7c9                	j	7184 <_strtod_l+0x152>
    71c4:	47b6                	lw	a5,76(sp)
    71c6:	00178693          	addi	a3,a5,1 # 80000001 <_eusrstack+0x5fff8001>
    71ca:	c6b6                	sw	a3,76(sp)
    71cc:	0017c783          	lbu	a5,1(a5)
    71d0:	fee78ae3          	beq	a5,a4,71c4 <_strtod_l+0x192>
    71d4:	db91                	beqz	a5,70e8 <_strtod_l+0xb6>
    71d6:	4a85                	li	s5,1
    71d8:	4cb6                	lw	s9,76(sp)
    71da:	4a01                	li	s4,0
    71dc:	4b81                	li	s7,0
    71de:	4c01                	li	s8,0
    71e0:	46a5                	li	a3,9
    71e2:	45a1                	li	a1,8
    71e4:	47a9                	li	a5,10
    71e6:	4536                	lw	a0,76(sp)
    71e8:	00054b03          	lbu	s6,0(a0)
    71ec:	fd0b0713          	addi	a4,s6,-48
    71f0:	0ff77613          	andi	a2,a4,255
    71f4:	04c6fd63          	bgeu	a3,a2,724e <_strtod_l+0x21c>
    71f8:	000da583          	lw	a1,0(s11)
    71fc:	864e                	mv	a2,s3
    71fe:	738030ef          	jal	ra,a936 <strncmp>
    7202:	c13d                	beqz	a0,7268 <_strtod_l+0x236>
    7204:	87da                	mv	a5,s6
    7206:	8de2                	mv	s11,s8
    7208:	4681                	li	a3,0
    720a:	4b01                	li	s6,0
    720c:	4501                	li	a0,0
    720e:	06500713          	li	a4,101
    7212:	00e78763          	beq	a5,a4,7220 <_strtod_l+0x1ee>
    7216:	04500713          	li	a4,69
    721a:	4981                	li	s3,0
    721c:	16e79963          	bne	a5,a4,738e <_strtod_l+0x35c>
    7220:	000d9663          	bnez	s11,722c <_strtod_l+0x1fa>
    7224:	0156e7b3          	or	a5,a3,s5
    7228:	db91                	beqz	a5,713c <_strtod_l+0x10a>
    722a:	4d81                	li	s11,0
    722c:	4d36                	lw	s10,76(sp)
    722e:	02b00713          	li	a4,43
    7232:	001d0793          	addi	a5,s10,1
    7236:	c6be                	sw	a5,76(sp)
    7238:	001d4783          	lbu	a5,1(s10)
    723c:	0ee78263          	beq	a5,a4,7320 <_strtod_l+0x2ee>
    7240:	02d00713          	li	a4,45
    7244:	4801                	li	a6,0
    7246:	0ee79363          	bne	a5,a4,732c <_strtod_l+0x2fa>
    724a:	4805                	li	a6,1
    724c:	a8d9                	j	7322 <_strtod_l+0x2f0>
    724e:	0185c963          	blt	a1,s8,7260 <_strtod_l+0x22e>
    7252:	02fb8bb3          	mul	s7,s7,a5
    7256:	9bba                	add	s7,s7,a4
    7258:	0505                	addi	a0,a0,1
    725a:	0c05                	addi	s8,s8,1
    725c:	c6aa                	sw	a0,76(sp)
    725e:	b761                	j	71e6 <_strtod_l+0x1b4>
    7260:	02fa0a33          	mul	s4,s4,a5
    7264:	9a3a                	add	s4,s4,a4
    7266:	bfcd                	j	7258 <_strtod_l+0x226>
    7268:	4536                	lw	a0,76(sp)
    726a:	4681                	li	a3,0
    726c:	954e                	add	a0,a0,s3
    726e:	c6aa                	sw	a0,76(sp)
    7270:	00054783          	lbu	a5,0(a0)
    7274:	060c0d63          	beqz	s8,72ee <_strtod_l+0x2bc>
    7278:	4b01                	li	s6,0
    727a:	8de2                	mv	s11,s8
    727c:	fd078713          	addi	a4,a5,-48
    7280:	4625                	li	a2,9
    7282:	02e67663          	bgeu	a2,a4,72ae <_strtod_l+0x27c>
    7286:	4505                	li	a0,1
    7288:	b759                	j	720e <_strtod_l+0x1dc>
    728a:	47b6                	lw	a5,76(sp)
    728c:	0685                	addi	a3,a3,1
    728e:	00178613          	addi	a2,a5,1
    7292:	c6b2                	sw	a2,76(sp)
    7294:	0017c783          	lbu	a5,1(a5)
    7298:	fee789e3          	beq	a5,a4,728a <_strtod_l+0x258>
    729c:	fcf78713          	addi	a4,a5,-49
    72a0:	4621                	li	a2,8
    72a2:	1ee66ae3          	bltu	a2,a4,7c96 <_strtod_l+0xc64>
    72a6:	4cb6                	lw	s9,76(sp)
    72a8:	8b36                	mv	s6,a3
    72aa:	4d81                	li	s11,0
    72ac:	4681                	li	a3,0
    72ae:	fd078793          	addi	a5,a5,-48
    72b2:	00168713          	addi	a4,a3,1
    72b6:	c785                	beqz	a5,72de <_strtod_l+0x2ac>
    72b8:	9b3a                	add	s6,s6,a4
    72ba:	01b68533          	add	a0,a3,s11
    72be:	876e                	mv	a4,s11
    72c0:	4821                	li	a6,8
    72c2:	48c1                	li	a7,16
    72c4:	4629                	li	a2,10
    72c6:	02a71763          	bne	a4,a0,72f4 <_strtod_l+0x2c2>
    72ca:	0d85                	addi	s11,s11,1
    72cc:	9db6                	add	s11,s11,a3
    72ce:	46a1                	li	a3,8
    72d0:	02e6cf63          	blt	a3,a4,730e <_strtod_l+0x2dc>
    72d4:	4729                	li	a4,10
    72d6:	02eb8bb3          	mul	s7,s7,a4
    72da:	4701                	li	a4,0
    72dc:	9bbe                	add	s7,s7,a5
    72de:	47b6                	lw	a5,76(sp)
    72e0:	00178693          	addi	a3,a5,1
    72e4:	c6b6                	sw	a3,76(sp)
    72e6:	0017c783          	lbu	a5,1(a5)
    72ea:	86ba                	mv	a3,a4
    72ec:	bf41                	j	727c <_strtod_l+0x24a>
    72ee:	03000713          	li	a4,48
    72f2:	b75d                	j	7298 <_strtod_l+0x266>
    72f4:	00170593          	addi	a1,a4,1
    72f8:	00e84663          	blt	a6,a4,7304 <_strtod_l+0x2d2>
    72fc:	02cb8bb3          	mul	s7,s7,a2
    7300:	872e                	mv	a4,a1
    7302:	b7d1                	j	72c6 <_strtod_l+0x294>
    7304:	feb8cee3          	blt	a7,a1,7300 <_strtod_l+0x2ce>
    7308:	02ca0a33          	mul	s4,s4,a2
    730c:	bfd5                	j	7300 <_strtod_l+0x2ce>
    730e:	46c1                	li	a3,16
    7310:	4701                	li	a4,0
    7312:	fdb6c6e3          	blt	a3,s11,72de <_strtod_l+0x2ac>
    7316:	46a9                	li	a3,10
    7318:	02da0a33          	mul	s4,s4,a3
    731c:	9a3e                	add	s4,s4,a5
    731e:	b7c1                	j	72de <_strtod_l+0x2ac>
    7320:	4801                	li	a6,0
    7322:	002d0793          	addi	a5,s10,2
    7326:	c6be                	sw	a5,76(sp)
    7328:	002d4783          	lbu	a5,2(s10)
    732c:	fd078713          	addi	a4,a5,-48
    7330:	4625                	li	a2,9
    7332:	0ce66763          	bltu	a2,a4,7400 <_strtod_l+0x3ce>
    7336:	03000713          	li	a4,48
    733a:	0ae78663          	beq	a5,a4,73e6 <_strtod_l+0x3b4>
    733e:	fcf78713          	addi	a4,a5,-49
    7342:	4621                	li	a2,8
    7344:	4981                	li	s3,0
    7346:	04e66463          	bltu	a2,a4,738e <_strtod_l+0x35c>
    734a:	48b6                	lw	a7,76(sp)
    734c:	fd078713          	addi	a4,a5,-48
    7350:	4325                	li	t1,9
    7352:	4e29                	li	t3,10
    7354:	47b6                	lw	a5,76(sp)
    7356:	00178613          	addi	a2,a5,1
    735a:	c6b2                	sw	a2,76(sp)
    735c:	0017c783          	lbu	a5,1(a5)
    7360:	fd078593          	addi	a1,a5,-48
    7364:	0ff5f593          	andi	a1,a1,255
    7368:	08b37663          	bgeu	t1,a1,73f4 <_strtod_l+0x3c2>
    736c:	6995                	lui	s3,0x5
    736e:	41160633          	sub	a2,a2,a7
    7372:	e1f98993          	addi	s3,s3,-481 # 4e1f <__subdf3+0x4cf>
    7376:	48a1                	li	a7,8
    7378:	85ce                	mv	a1,s3
    737a:	00c8c663          	blt	a7,a2,7386 <_strtod_l+0x354>
    737e:	89ba                	mv	s3,a4
    7380:	00e5d363          	bge	a1,a4,7386 <_strtod_l+0x354>
    7384:	89ae                	mv	s3,a1
    7386:	00080463          	beqz	a6,738e <_strtod_l+0x35c>
    738a:	413009b3          	neg	s3,s3
    738e:	0c0d9863          	bnez	s11,745e <_strtod_l+0x42c>
    7392:	00dae6b3          	or	a3,s5,a3
    7396:	d40699e3          	bnez	a3,70e8 <_strtod_l+0xb6>
    739a:	da0511e3          	bnez	a0,713c <_strtod_l+0x10a>
    739e:	04e00713          	li	a4,78
    73a2:	06e78a63          	beq	a5,a4,7416 <_strtod_l+0x3e4>
    73a6:	06f74063          	blt	a4,a5,7406 <_strtod_l+0x3d4>
    73aa:	04900713          	li	a4,73
    73ae:	d8e797e3          	bne	a5,a4,713c <_strtod_l+0x10a>
    73b2:	00006597          	auipc	a1,0x6
    73b6:	b7658593          	addi	a1,a1,-1162 # cf28 <__clz_tab+0x1a4>
    73ba:	00e8                	addi	a0,sp,76
    73bc:	7a1010ef          	jal	ra,935c <__match>
    73c0:	d6050ee3          	beqz	a0,713c <_strtod_l+0x10a>
    73c4:	47b6                	lw	a5,76(sp)
    73c6:	00006597          	auipc	a1,0x6
    73ca:	b6658593          	addi	a1,a1,-1178 # cf2c <__clz_tab+0x1a8>
    73ce:	00e8                	addi	a0,sp,76
    73d0:	17fd                	addi	a5,a5,-1
    73d2:	c6be                	sw	a5,76(sp)
    73d4:	789010ef          	jal	ra,935c <__match>
    73d8:	e501                	bnez	a0,73e0 <_strtod_l+0x3ae>
    73da:	47b6                	lw	a5,76(sp)
    73dc:	0785                	addi	a5,a5,1
    73de:	c6be                	sw	a5,76(sp)
    73e0:	7ff00437          	lui	s0,0x7ff00
    73e4:	b311                	j	70e8 <_strtod_l+0xb6>
    73e6:	47b6                	lw	a5,76(sp)
    73e8:	00178613          	addi	a2,a5,1
    73ec:	c6b2                	sw	a2,76(sp)
    73ee:	0017c783          	lbu	a5,1(a5)
    73f2:	b7a1                	j	733a <_strtod_l+0x308>
    73f4:	03c70733          	mul	a4,a4,t3
    73f8:	97ba                	add	a5,a5,a4
    73fa:	fd078713          	addi	a4,a5,-48
    73fe:	bf99                	j	7354 <_strtod_l+0x322>
    7400:	c6ea                	sw	s10,76(sp)
    7402:	4981                	li	s3,0
    7404:	b769                	j	738e <_strtod_l+0x35c>
    7406:	06900713          	li	a4,105
    740a:	fae784e3          	beq	a5,a4,73b2 <_strtod_l+0x380>
    740e:	06e00713          	li	a4,110
    7412:	d2e795e3          	bne	a5,a4,713c <_strtod_l+0x10a>
    7416:	00006597          	auipc	a1,0x6
    741a:	b1e58593          	addi	a1,a1,-1250 # cf34 <__clz_tab+0x1b0>
    741e:	00e8                	addi	a0,sp,76
    7420:	73d010ef          	jal	ra,935c <__match>
    7424:	d0050ce3          	beqz	a0,713c <_strtod_l+0x10a>
    7428:	47b6                	lw	a5,76(sp)
    742a:	0007c703          	lbu	a4,0(a5)
    742e:	02800793          	li	a5,40
    7432:	02f71363          	bne	a4,a5,7458 <_strtod_l+0x426>
    7436:	08b0                	addi	a2,sp,88
    7438:	00006597          	auipc	a1,0x6
    743c:	b1458593          	addi	a1,a1,-1260 # cf4c <fpinan.3431>
    7440:	00e8                	addi	a0,sp,76
    7442:	74b010ef          	jal	ra,938c <__hexnan>
    7446:	4795                	li	a5,5
    7448:	00f51863          	bne	a0,a5,7458 <_strtod_l+0x426>
    744c:	45f6                	lw	a1,92(sp)
    744e:	7ff00437          	lui	s0,0x7ff00
    7452:	44e6                	lw	s1,88(sp)
    7454:	8c4d                	or	s0,s0,a1
    7456:	b949                	j	70e8 <_strtod_l+0xb6>
    7458:	fff80437          	lui	s0,0xfff80
    745c:	b171                	j	70e8 <_strtod_l+0xb6>
    745e:	41698ab3          	sub	s5,s3,s6
    7462:	000c1363          	bnez	s8,7468 <_strtod_l+0x436>
    7466:	8c6e                	mv	s8,s11
    7468:	47c1                	li	a5,16
    746a:	8d6e                	mv	s10,s11
    746c:	01b7d363          	bge	a5,s11,7472 <_strtod_l+0x440>
    7470:	4d41                	li	s10,16
    7472:	855e                	mv	a0,s7
    7474:	cc9fd0ef          	jal	ra,513c <__floatunsidf>
    7478:	47a5                	li	a5,9
    747a:	84aa                	mv	s1,a0
    747c:	842e                	mv	s0,a1
    747e:	03b7dc63          	bge	a5,s11,74b6 <_strtod_l+0x484>
    7482:	ff7d0793          	addi	a5,s10,-9
    7486:	00379713          	slli	a4,a5,0x3
    748a:	00006797          	auipc	a5,0x6
    748e:	bde78793          	addi	a5,a5,-1058 # d068 <__mprec_tens>
    7492:	97ba                	add	a5,a5,a4
    7494:	4390                	lw	a2,0(a5)
    7496:	43d4                	lw	a3,4(a5)
    7498:	800fd0ef          	jal	ra,4498 <__muldf3>
    749c:	842a                	mv	s0,a0
    749e:	8552                	mv	a0,s4
    74a0:	84ae                	mv	s1,a1
    74a2:	c9bfd0ef          	jal	ra,513c <__floatunsidf>
    74a6:	862a                	mv	a2,a0
    74a8:	86ae                	mv	a3,a1
    74aa:	8522                	mv	a0,s0
    74ac:	85a6                	mv	a1,s1
    74ae:	a50fc0ef          	jal	ra,36fe <__adddf3>
    74b2:	84aa                	mv	s1,a0
    74b4:	842e                	mv	s0,a1
    74b6:	47bd                	li	a5,15
    74b8:	09b7cd63          	blt	a5,s11,7552 <_strtod_l+0x520>
    74bc:	c20a86e3          	beqz	s5,70e8 <_strtod_l+0xb6>
    74c0:	07505463          	blez	s5,7528 <_strtod_l+0x4f6>
    74c4:	4759                	li	a4,22
    74c6:	03574363          	blt	a4,s5,74ec <_strtod_l+0x4ba>
    74ca:	0a8e                	slli	s5,s5,0x3
    74cc:	00006797          	auipc	a5,0x6
    74d0:	b9c78793          	addi	a5,a5,-1124 # d068 <__mprec_tens>
    74d4:	9abe                	add	s5,s5,a5
    74d6:	000aa503          	lw	a0,0(s5)
    74da:	004aa583          	lw	a1,4(s5)
    74de:	8626                	mv	a2,s1
    74e0:	86a2                	mv	a3,s0
    74e2:	fb7fc0ef          	jal	ra,4498 <__muldf3>
    74e6:	84aa                	mv	s1,a0
    74e8:	842e                	mv	s0,a1
    74ea:	befd                	j	70e8 <_strtod_l+0xb6>
    74ec:	02500713          	li	a4,37
    74f0:	41b70733          	sub	a4,a4,s11
    74f4:	05574f63          	blt	a4,s5,7552 <_strtod_l+0x520>
    74f8:	41b78db3          	sub	s11,a5,s11
    74fc:	00006917          	auipc	s2,0x6
    7500:	b6c90913          	addi	s2,s2,-1172 # d068 <__mprec_tens>
    7504:	003d9793          	slli	a5,s11,0x3
    7508:	97ca                	add	a5,a5,s2
    750a:	4388                	lw	a0,0(a5)
    750c:	43cc                	lw	a1,4(a5)
    750e:	41ba8db3          	sub	s11,s5,s11
    7512:	8626                	mv	a2,s1
    7514:	86a2                	mv	a3,s0
    7516:	0d8e                	slli	s11,s11,0x3
    7518:	f81fc0ef          	jal	ra,4498 <__muldf3>
    751c:	9dca                	add	s11,s11,s2
    751e:	000da603          	lw	a2,0(s11)
    7522:	004da683          	lw	a3,4(s11)
    7526:	bf75                	j	74e2 <_strtod_l+0x4b0>
    7528:	57a9                	li	a5,-22
    752a:	02fac463          	blt	s5,a5,7552 <_strtod_l+0x520>
    752e:	413b09b3          	sub	s3,s6,s3
    7532:	00399b13          	slli	s6,s3,0x3
    7536:	00006997          	auipc	s3,0x6
    753a:	b3298993          	addi	s3,s3,-1230 # d068 <__mprec_tens>
    753e:	99da                	add	s3,s3,s6
    7540:	0009a603          	lw	a2,0(s3)
    7544:	0049a683          	lw	a3,4(s3)
    7548:	8526                	mv	a0,s1
    754a:	85a2                	mv	a1,s0
    754c:	8e3fc0ef          	jal	ra,3e2e <__divdf3>
    7550:	bf59                	j	74e6 <_strtod_l+0x4b4>
    7552:	41ad8d33          	sub	s10,s11,s10
    7556:	9d56                	add	s10,s10,s5
    7558:	11a05763          	blez	s10,7666 <_strtod_l+0x634>
    755c:	00fd7793          	andi	a5,s10,15
    7560:	cf99                	beqz	a5,757e <_strtod_l+0x54c>
    7562:	00006717          	auipc	a4,0x6
    7566:	b0670713          	addi	a4,a4,-1274 # d068 <__mprec_tens>
    756a:	078e                	slli	a5,a5,0x3
    756c:	97ba                	add	a5,a5,a4
    756e:	4388                	lw	a0,0(a5)
    7570:	43cc                	lw	a1,4(a5)
    7572:	8626                	mv	a2,s1
    7574:	86a2                	mv	a3,s0
    7576:	f23fc0ef          	jal	ra,4498 <__muldf3>
    757a:	84aa                	mv	s1,a0
    757c:	842e                	mv	s0,a1
    757e:	ff0d7d13          	andi	s10,s10,-16
    7582:	0a0d0863          	beqz	s10,7632 <_strtod_l+0x600>
    7586:	13400793          	li	a5,308
    758a:	05a7d563          	bge	a5,s10,75d4 <_strtod_l+0x5a2>
    758e:	4b01                	li	s6,0
    7590:	4981                	li	s3,0
    7592:	c602                	sw	zero,12(sp)
    7594:	4b81                	li	s7,0
    7596:	02200793          	li	a5,34
    759a:	00f92023          	sw	a5,0(s2)
    759e:	7ff00437          	lui	s0,0x7ff00
    75a2:	4481                	li	s1,0
    75a4:	47b2                	lw	a5,12(sp)
    75a6:	b40781e3          	beqz	a5,70e8 <_strtod_l+0xb6>
    75aa:	45c6                	lw	a1,80(sp)
    75ac:	854a                	mv	a0,s2
    75ae:	104020ef          	jal	ra,96b2 <_Bfree>
    75b2:	85de                	mv	a1,s7
    75b4:	854a                	mv	a0,s2
    75b6:	0fc020ef          	jal	ra,96b2 <_Bfree>
    75ba:	85ce                	mv	a1,s3
    75bc:	854a                	mv	a0,s2
    75be:	0f4020ef          	jal	ra,96b2 <_Bfree>
    75c2:	45b2                	lw	a1,12(sp)
    75c4:	854a                	mv	a0,s2
    75c6:	0ec020ef          	jal	ra,96b2 <_Bfree>
    75ca:	85da                	mv	a1,s6
    75cc:	854a                	mv	a0,s2
    75ce:	0e4020ef          	jal	ra,96b2 <_Bfree>
    75d2:	be19                	j	70e8 <_strtod_l+0xb6>
    75d4:	404d5d13          	srai	s10,s10,0x4
    75d8:	8526                	mv	a0,s1
    75da:	85a2                	mv	a1,s0
    75dc:	4781                	li	a5,0
    75de:	4a01                	li	s4,0
    75e0:	4805                	li	a6,1
    75e2:	00006897          	auipc	a7,0x6
    75e6:	a5e88893          	addi	a7,a7,-1442 # d040 <__mprec_bigtens>
    75ea:	05a84663          	blt	a6,s10,7636 <_strtod_l+0x604>
    75ee:	c399                	beqz	a5,75f4 <_strtod_l+0x5c2>
    75f0:	84aa                	mv	s1,a0
    75f2:	842e                	mv	s0,a1
    75f4:	00006717          	auipc	a4,0x6
    75f8:	a4c70713          	addi	a4,a4,-1460 # d040 <__mprec_bigtens>
    75fc:	003a1793          	slli	a5,s4,0x3
    7600:	97ba                	add	a5,a5,a4
    7602:	4388                	lw	a0,0(a5)
    7604:	43cc                	lw	a1,4(a5)
    7606:	fcb00737          	lui	a4,0xfcb00
    760a:	9722                	add	a4,a4,s0
    760c:	8626                	mv	a2,s1
    760e:	86ba                	mv	a3,a4
    7610:	e89fc0ef          	jal	ra,4498 <__muldf3>
    7614:	7ff00437          	lui	s0,0x7ff00
    7618:	00b477b3          	and	a5,s0,a1
    761c:	7ca00737          	lui	a4,0x7ca00
    7620:	84aa                	mv	s1,a0
    7622:	f6f766e3          	bltu	a4,a5,758e <_strtod_l+0x55c>
    7626:	7c900737          	lui	a4,0x7c900
    762a:	02f77a63          	bgeu	a4,a5,765e <_strtod_l+0x62c>
    762e:	147d                	addi	s0,s0,-1
    7630:	54fd                	li	s1,-1
    7632:	4a01                	li	s4,0
    7634:	a8dd                	j	772a <_strtod_l+0x6f8>
    7636:	001d7713          	andi	a4,s10,1
    763a:	cf11                	beqz	a4,7656 <_strtod_l+0x624>
    763c:	003a1713          	slli	a4,s4,0x3
    7640:	9746                	add	a4,a4,a7
    7642:	4310                	lw	a2,0(a4)
    7644:	4354                	lw	a3,4(a4)
    7646:	e53fc0ef          	jal	ra,4498 <__muldf3>
    764a:	4785                	li	a5,1
    764c:	4805                	li	a6,1
    764e:	00006897          	auipc	a7,0x6
    7652:	9f288893          	addi	a7,a7,-1550 # d040 <__mprec_bigtens>
    7656:	0a05                	addi	s4,s4,1
    7658:	401d5d13          	srai	s10,s10,0x1
    765c:	b779                	j	75ea <_strtod_l+0x5b8>
    765e:	03500437          	lui	s0,0x3500
    7662:	942e                	add	s0,s0,a1
    7664:	b7f9                	j	7632 <_strtod_l+0x600>
    7666:	fc0d06e3          	beqz	s10,7632 <_strtod_l+0x600>
    766a:	41a00d33          	neg	s10,s10
    766e:	00fd7793          	andi	a5,s10,15
    7672:	cf99                	beqz	a5,7690 <_strtod_l+0x65e>
    7674:	00006717          	auipc	a4,0x6
    7678:	9f470713          	addi	a4,a4,-1548 # d068 <__mprec_tens>
    767c:	078e                	slli	a5,a5,0x3
    767e:	97ba                	add	a5,a5,a4
    7680:	4390                	lw	a2,0(a5)
    7682:	43d4                	lw	a3,4(a5)
    7684:	8526                	mv	a0,s1
    7686:	85a2                	mv	a1,s0
    7688:	fa6fc0ef          	jal	ra,3e2e <__divdf3>
    768c:	84aa                	mv	s1,a0
    768e:	842e                	mv	s0,a1
    7690:	404d5d13          	srai	s10,s10,0x4
    7694:	f80d0fe3          	beqz	s10,7632 <_strtod_l+0x600>
    7698:	47fd                	li	a5,31
    769a:	01a7dd63          	bge	a5,s10,76b4 <_strtod_l+0x682>
    769e:	4b01                	li	s6,0
    76a0:	4981                	li	s3,0
    76a2:	c602                	sw	zero,12(sp)
    76a4:	4b81                	li	s7,0
    76a6:	02200793          	li	a5,34
    76aa:	4481                	li	s1,0
    76ac:	4401                	li	s0,0
    76ae:	00f92023          	sw	a5,0(s2)
    76b2:	bdcd                	j	75a4 <_strtod_l+0x572>
    76b4:	010d7a13          	andi	s4,s10,16
    76b8:	000a0463          	beqz	s4,76c0 <_strtod_l+0x68e>
    76bc:	06a00a13          	li	s4,106
    76c0:	8526                	mv	a0,s1
    76c2:	85a2                	mv	a1,s0
    76c4:	00006797          	auipc	a5,0x6
    76c8:	89c78793          	addi	a5,a5,-1892 # cf60 <tinytens>
    76cc:	4701                	li	a4,0
    76ce:	001d7693          	andi	a3,s10,1
    76d2:	ca81                	beqz	a3,76e2 <_strtod_l+0x6b0>
    76d4:	4390                	lw	a2,0(a5)
    76d6:	43d4                	lw	a3,4(a5)
    76d8:	c63e                	sw	a5,12(sp)
    76da:	dbffc0ef          	jal	ra,4498 <__muldf3>
    76de:	47b2                	lw	a5,12(sp)
    76e0:	4705                	li	a4,1
    76e2:	401d5d13          	srai	s10,s10,0x1
    76e6:	07a1                	addi	a5,a5,8
    76e8:	fe0d13e3          	bnez	s10,76ce <_strtod_l+0x69c>
    76ec:	c319                	beqz	a4,76f2 <_strtod_l+0x6c0>
    76ee:	84aa                	mv	s1,a0
    76f0:	842e                	mv	s0,a1
    76f2:	020a0563          	beqz	s4,771c <_strtod_l+0x6ea>
    76f6:	01445793          	srli	a5,s0,0x14
    76fa:	7ff7f713          	andi	a4,a5,2047
    76fe:	06b00793          	li	a5,107
    7702:	8f99                	sub	a5,a5,a4
    7704:	00f05c63          	blez	a5,771c <_strtod_l+0x6ea>
    7708:	477d                	li	a4,31
    770a:	22f75463          	bge	a4,a5,7932 <_strtod_l+0x900>
    770e:	03400713          	li	a4,52
    7712:	4481                	li	s1,0
    7714:	20f75963          	bge	a4,a5,7926 <_strtod_l+0x8f4>
    7718:	03700437          	lui	s0,0x3700
    771c:	4601                	li	a2,0
    771e:	4681                	li	a3,0
    7720:	8526                	mv	a0,s1
    7722:	85a2                	mv	a1,s0
    7724:	08d030ef          	jal	ra,afb0 <__eqdf2>
    7728:	d93d                	beqz	a0,769e <_strtod_l+0x66c>
    772a:	875e                	mv	a4,s7
    772c:	86ee                	mv	a3,s11
    772e:	8662                	mv	a2,s8
    7730:	85e6                	mv	a1,s9
    7732:	854a                	mv	a0,s2
    7734:	05a020ef          	jal	ra,978e <__s2b>
    7738:	c62a                	sw	a0,12(sp)
    773a:	e4050ae3          	beqz	a0,758e <_strtod_l+0x55c>
    773e:	41fad793          	srai	a5,s5,0x1f
    7742:	413b09b3          	sub	s3,s6,s3
    7746:	00f9f7b3          	and	a5,s3,a5
    774a:	d03e                	sw	a5,32(sp)
    774c:	ce56                	sw	s5,28(sp)
    774e:	000ad363          	bgez	s5,7754 <_strtod_l+0x722>
    7752:	ce02                	sw	zero,28(sp)
    7754:	47b2                	lw	a5,12(sp)
    7756:	4b01                	li	s6,0
    7758:	4981                	li	s3,0
    775a:	07b1                	addi	a5,a5,12
    775c:	d83e                	sw	a5,48(sp)
    775e:	001007b7          	lui	a5,0x100
    7762:	17fd                	addi	a5,a5,-1
    7764:	d63e                	sw	a5,44(sp)
    7766:	47b2                	lw	a5,12(sp)
    7768:	854a                	mv	a0,s2
    776a:	43cc                	lw	a1,4(a5)
    776c:	6bb010ef          	jal	ra,9626 <_Balloc>
    7770:	8baa                	mv	s7,a0
    7772:	e20502e3          	beqz	a0,7596 <_strtod_l+0x564>
    7776:	47b2                	lw	a5,12(sp)
    7778:	55c2                	lw	a1,48(sp)
    777a:	0531                	addi	a0,a0,12
    777c:	4b90                	lw	a2,16(a5)
    777e:	0609                	addi	a2,a2,2
    7780:	060a                	slli	a2,a2,0x2
    7782:	5ef010ef          	jal	ra,9570 <memcpy>
    7786:	08b8                	addi	a4,sp,88
    7788:	08d4                	addi	a3,sp,84
    778a:	8622                	mv	a2,s0
    778c:	85a6                	mv	a1,s1
    778e:	854a                	mv	a0,s2
    7790:	ca26                	sw	s1,20(sp)
    7792:	cc22                	sw	s0,24(sp)
    7794:	65a020ef          	jal	ra,9dee <__d2b>
    7798:	c8aa                	sw	a0,80(sp)
    779a:	de050ee3          	beqz	a0,7596 <_strtod_l+0x564>
    779e:	4585                	li	a1,1
    77a0:	854a                	mv	a0,s2
    77a2:	142020ef          	jal	ra,98e4 <__i2b>
    77a6:	89aa                	mv	s3,a0
    77a8:	de0507e3          	beqz	a0,7596 <_strtod_l+0x564>
    77ac:	47d6                	lw	a5,84(sp)
    77ae:	1807c763          	bltz	a5,793c <_strtod_l+0x90a>
    77b2:	5702                	lw	a4,32(sp)
    77b4:	4c72                	lw	s8,28(sp)
    77b6:	00e78d33          	add	s10,a5,a4
    77ba:	4766                	lw	a4,88(sp)
    77bc:	414787b3          	sub	a5,a5,s4
    77c0:	03600693          	li	a3,54
    77c4:	97ba                	add	a5,a5,a4
    77c6:	17fd                	addi	a5,a5,-1
    77c8:	c0200d93          	li	s11,-1022
    77cc:	8e99                	sub	a3,a3,a4
    77ce:	19b7d663          	bge	a5,s11,795a <_strtod_l+0x928>
    77d2:	40fd8733          	sub	a4,s11,a5
    77d6:	467d                	li	a2,31
    77d8:	8e99                	sub	a3,a3,a4
    77da:	16e64663          	blt	a2,a4,7946 <_strtod_l+0x914>
    77de:	4d85                	li	s11,1
    77e0:	00ed97b3          	sll	a5,s11,a4
    77e4:	d23e                	sw	a5,36(sp)
    77e6:	4c81                	li	s9,0
    77e8:	9c36                	add	s8,s8,a3
    77ea:	00dd0db3          	add	s11,s10,a3
    77ee:	9c52                	add	s8,s8,s4
    77f0:	87ea                	mv	a5,s10
    77f2:	01add363          	bge	s11,s10,77f8 <_strtod_l+0x7c6>
    77f6:	87ee                	mv	a5,s11
    77f8:	00fc5363          	bge	s8,a5,77fe <_strtod_l+0x7cc>
    77fc:	87e2                	mv	a5,s8
    77fe:	00f05863          	blez	a5,780e <_strtod_l+0x7dc>
    7802:	40fd8db3          	sub	s11,s11,a5
    7806:	40fc0c33          	sub	s8,s8,a5
    780a:	40fd0d33          	sub	s10,s10,a5
    780e:	5782                	lw	a5,32(sp)
    7810:	02f05863          	blez	a5,7840 <_strtod_l+0x80e>
    7814:	85ce                	mv	a1,s3
    7816:	863e                	mv	a2,a5
    7818:	854a                	mv	a0,s2
    781a:	22a020ef          	jal	ra,9a44 <__pow5mult>
    781e:	89aa                	mv	s3,a0
    7820:	d6050be3          	beqz	a0,7596 <_strtod_l+0x564>
    7824:	4646                	lw	a2,80(sp)
    7826:	85aa                	mv	a1,a0
    7828:	854a                	mv	a0,s2
    782a:	0d6020ef          	jal	ra,9900 <__multiply>
    782e:	da2a                	sw	a0,52(sp)
    7830:	d60503e3          	beqz	a0,7596 <_strtod_l+0x564>
    7834:	45c6                	lw	a1,80(sp)
    7836:	854a                	mv	a0,s2
    7838:	67b010ef          	jal	ra,96b2 <_Bfree>
    783c:	57d2                	lw	a5,52(sp)
    783e:	c8be                	sw	a5,80(sp)
    7840:	11b04f63          	bgtz	s11,795e <_strtod_l+0x92c>
    7844:	01505a63          	blez	s5,7858 <_strtod_l+0x826>
    7848:	4672                	lw	a2,28(sp)
    784a:	85de                	mv	a1,s7
    784c:	854a                	mv	a0,s2
    784e:	1f6020ef          	jal	ra,9a44 <__pow5mult>
    7852:	8baa                	mv	s7,a0
    7854:	d40501e3          	beqz	a0,7596 <_strtod_l+0x564>
    7858:	01805a63          	blez	s8,786c <_strtod_l+0x83a>
    785c:	85de                	mv	a1,s7
    785e:	8662                	mv	a2,s8
    7860:	854a                	mv	a0,s2
    7862:	2a0020ef          	jal	ra,9b02 <__lshift>
    7866:	8baa                	mv	s7,a0
    7868:	d20507e3          	beqz	a0,7596 <_strtod_l+0x564>
    786c:	01a05a63          	blez	s10,7880 <_strtod_l+0x84e>
    7870:	85ce                	mv	a1,s3
    7872:	866a                	mv	a2,s10
    7874:	854a                	mv	a0,s2
    7876:	28c020ef          	jal	ra,9b02 <__lshift>
    787a:	89aa                	mv	s3,a0
    787c:	d0050de3          	beqz	a0,7596 <_strtod_l+0x564>
    7880:	45c6                	lw	a1,80(sp)
    7882:	865e                	mv	a2,s7
    7884:	854a                	mv	a0,s2
    7886:	37c020ef          	jal	ra,9c02 <__mdiff>
    788a:	8b2a                	mv	s6,a0
    788c:	d00505e3          	beqz	a0,7596 <_strtod_l+0x564>
    7890:	00c52c03          	lw	s8,12(a0)
    7894:	85ce                	mv	a1,s3
    7896:	00052623          	sw	zero,12(a0)
    789a:	336020ef          	jal	ra,9bd0 <__mcmp>
    789e:	0c055963          	bgez	a0,7970 <_strtod_l+0x93e>
    78a2:	009c6c33          	or	s8,s8,s1
    78a6:	120c1163          	bnez	s8,79c8 <_strtod_l+0x996>
    78aa:	00c41793          	slli	a5,s0,0xc
    78ae:	10079d63          	bnez	a5,79c8 <_strtod_l+0x996>
    78b2:	7ff007b7          	lui	a5,0x7ff00
    78b6:	8fe1                	and	a5,a5,s0
    78b8:	06b00737          	lui	a4,0x6b00
    78bc:	10f77663          	bgeu	a4,a5,79c8 <_strtod_l+0x996>
    78c0:	014b2783          	lw	a5,20(s6)
    78c4:	e791                	bnez	a5,78d0 <_strtod_l+0x89e>
    78c6:	010b2703          	lw	a4,16(s6)
    78ca:	4785                	li	a5,1
    78cc:	0ee7de63          	bge	a5,a4,79c8 <_strtod_l+0x996>
    78d0:	85da                	mv	a1,s6
    78d2:	4605                	li	a2,1
    78d4:	854a                	mv	a0,s2
    78d6:	22c020ef          	jal	ra,9b02 <__lshift>
    78da:	85ce                	mv	a1,s3
    78dc:	8b2a                	mv	s6,a0
    78de:	2f2020ef          	jal	ra,9bd0 <__mcmp>
    78e2:	0ea05363          	blez	a0,79c8 <_strtod_l+0x996>
    78e6:	100a0c63          	beqz	s4,79fe <_strtod_l+0x9cc>
    78ea:	7ff007b7          	lui	a5,0x7ff00
    78ee:	8fe1                	and	a5,a5,s0
    78f0:	06b00737          	lui	a4,0x6b00
    78f4:	10f74563          	blt	a4,a5,79fe <_strtod_l+0x9cc>
    78f8:	03700737          	lui	a4,0x3700
    78fc:	daf755e3          	bge	a4,a5,76a6 <_strtod_l+0x674>
    7900:	4701                	li	a4,0
    7902:	395007b7          	lui	a5,0x39500
    7906:	8526                	mv	a0,s1
    7908:	85a2                	mv	a1,s0
    790a:	863a                	mv	a2,a4
    790c:	86be                	mv	a3,a5
    790e:	b8bfc0ef          	jal	ra,4498 <__muldf3>
    7912:	842e                	mv	s0,a1
    7914:	8dc9                	or	a1,a1,a0
    7916:	84aa                	mv	s1,a0
    7918:	c80599e3          	bnez	a1,75aa <_strtod_l+0x578>
    791c:	02200793          	li	a5,34
    7920:	00f92023          	sw	a5,0(s2)
    7924:	b159                	j	75aa <_strtod_l+0x578>
    7926:	1781                	addi	a5,a5,-32
    7928:	577d                	li	a4,-1
    792a:	00f717b3          	sll	a5,a4,a5
    792e:	8c7d                	and	s0,s0,a5
    7930:	b3f5                	j	771c <_strtod_l+0x6ea>
    7932:	577d                	li	a4,-1
    7934:	00f717b3          	sll	a5,a4,a5
    7938:	8cfd                	and	s1,s1,a5
    793a:	b3cd                	j	771c <_strtod_l+0x6ea>
    793c:	4772                	lw	a4,28(sp)
    793e:	5d02                	lw	s10,32(sp)
    7940:	40f70c33          	sub	s8,a4,a5
    7944:	bd9d                	j	77ba <_strtod_l+0x788>
    7946:	be200c93          	li	s9,-1054
    794a:	40fc87b3          	sub	a5,s9,a5
    794e:	4c85                	li	s9,1
    7950:	00fc9cb3          	sll	s9,s9,a5
    7954:	4785                	li	a5,1
    7956:	d23e                	sw	a5,36(sp)
    7958:	bd41                	j	77e8 <_strtod_l+0x7b6>
    795a:	4c81                	li	s9,0
    795c:	bfe5                	j	7954 <_strtod_l+0x922>
    795e:	45c6                	lw	a1,80(sp)
    7960:	866e                	mv	a2,s11
    7962:	854a                	mv	a0,s2
    7964:	19e020ef          	jal	ra,9b02 <__lshift>
    7968:	c8aa                	sw	a0,80(sp)
    796a:	ec051de3          	bnez	a0,7844 <_strtod_l+0x812>
    796e:	b125                	j	7596 <_strtod_l+0x564>
    7970:	e969                	bnez	a0,7a42 <_strtod_l+0xa10>
    7972:	00100737          	lui	a4,0x100
    7976:	177d                	addi	a4,a4,-1
    7978:	00e477b3          	and	a5,s0,a4
    797c:	040c0963          	beqz	s8,79ce <_strtod_l+0x99c>
    7980:	04e79963          	bne	a5,a4,79d2 <_strtod_l+0x9a0>
    7984:	577d                	li	a4,-1
    7986:	020a0063          	beqz	s4,79a6 <_strtod_l+0x974>
    798a:	7ff007b7          	lui	a5,0x7ff00
    798e:	8fe1                	and	a5,a5,s0
    7990:	06a006b7          	lui	a3,0x6a00
    7994:	00f6e963          	bltu	a3,a5,79a6 <_strtod_l+0x974>
    7998:	83d1                	srli	a5,a5,0x14
    799a:	06b00693          	li	a3,107
    799e:	40f687b3          	sub	a5,a3,a5
    79a2:	00f71733          	sll	a4,a4,a5
    79a6:	02e49663          	bne	s1,a4,79d2 <_strtod_l+0x9a0>
    79aa:	7ff007b7          	lui	a5,0x7ff00
    79ae:	17fd                	addi	a5,a5,-1
    79b0:	00f41563          	bne	s0,a5,79ba <_strtod_l+0x988>
    79b4:	57fd                	li	a5,-1
    79b6:	bef480e3          	beq	s1,a5,7596 <_strtod_l+0x564>
    79ba:	7ff005b7          	lui	a1,0x7ff00
    79be:	8de1                	and	a1,a1,s0
    79c0:	00100437          	lui	s0,0x100
    79c4:	942e                	add	s0,s0,a1
    79c6:	4481                	li	s1,0
    79c8:	f20a1ce3          	bnez	s4,7900 <_strtod_l+0x8ce>
    79cc:	bef9                	j	75aa <_strtod_l+0x578>
    79ce:	8fc5                	or	a5,a5,s1
    79d0:	db99                	beqz	a5,78e6 <_strtod_l+0x8b4>
    79d2:	040c8263          	beqz	s9,7a16 <_strtod_l+0x9e4>
    79d6:	008cfcb3          	and	s9,s9,s0
    79da:	fe0c87e3          	beqz	s9,79c8 <_strtod_l+0x996>
    79de:	8652                	mv	a2,s4
    79e0:	8526                	mv	a0,s1
    79e2:	85a2                	mv	a1,s0
    79e4:	020c0f63          	beqz	s8,7a22 <_strtod_l+0x9f0>
    79e8:	dfcff0ef          	jal	ra,6fe4 <sulp>
    79ec:	862a                	mv	a2,a0
    79ee:	86ae                	mv	a3,a1
    79f0:	4552                	lw	a0,20(sp)
    79f2:	45e2                	lw	a1,24(sp)
    79f4:	d0bfb0ef          	jal	ra,36fe <__adddf3>
    79f8:	84aa                	mv	s1,a0
    79fa:	842e                	mv	s0,a1
    79fc:	b7f1                	j	79c8 <_strtod_l+0x996>
    79fe:	7ff005b7          	lui	a1,0x7ff00
    7a02:	8de1                	and	a1,a1,s0
    7a04:	fff00437          	lui	s0,0xfff00
    7a08:	95a2                	add	a1,a1,s0
    7a0a:	00100437          	lui	s0,0x100
    7a0e:	147d                	addi	s0,s0,-1
    7a10:	8c4d                	or	s0,s0,a1
    7a12:	54fd                	li	s1,-1
    7a14:	bf55                	j	79c8 <_strtod_l+0x996>
    7a16:	5792                	lw	a5,36(sp)
    7a18:	0097fdb3          	and	s11,a5,s1
    7a1c:	fa0d86e3          	beqz	s11,79c8 <_strtod_l+0x996>
    7a20:	bf7d                	j	79de <_strtod_l+0x9ac>
    7a22:	dc2ff0ef          	jal	ra,6fe4 <sulp>
    7a26:	862a                	mv	a2,a0
    7a28:	86ae                	mv	a3,a1
    7a2a:	4552                	lw	a0,20(sp)
    7a2c:	45e2                	lw	a1,24(sp)
    7a2e:	f23fc0ef          	jal	ra,4950 <__subdf3>
    7a32:	4601                	li	a2,0
    7a34:	4681                	li	a3,0
    7a36:	84aa                	mv	s1,a0
    7a38:	842e                	mv	s0,a1
    7a3a:	576030ef          	jal	ra,afb0 <__eqdf2>
    7a3e:	f549                	bnez	a0,79c8 <_strtod_l+0x996>
    7a40:	b19d                	j	76a6 <_strtod_l+0x674>
    7a42:	85ce                	mv	a1,s3
    7a44:	855a                	mv	a0,s6
    7a46:	47c020ef          	jal	ra,9ec2 <__ratio>
    7a4a:	00005797          	auipc	a5,0x5
    7a4e:	4b678793          	addi	a5,a5,1206 # cf00 <__clz_tab+0x17c>
    7a52:	4390                	lw	a2,0(a5)
    7a54:	43d4                	lw	a3,4(a5)
    7a56:	8d2a                	mv	s10,a0
    7a58:	8dae                	mv	s11,a1
    7a5a:	989fc0ef          	jal	ra,43e2 <__ledf2>
    7a5e:	10a04263          	bgtz	a0,7b62 <_strtod_l+0xb30>
    7a62:	0a0c0163          	beqz	s8,7b04 <_strtod_l+0xad2>
    7a66:	4d81                	li	s11,0
    7a68:	3ff00d37          	lui	s10,0x3ff00
    7a6c:	4701                	li	a4,0
    7a6e:	3ff007b7          	lui	a5,0x3ff00
    7a72:	7ff006b7          	lui	a3,0x7ff00
    7a76:	00d47cb3          	and	s9,s0,a3
    7a7a:	7fe006b7          	lui	a3,0x7fe00
    7a7e:	16dc9f63          	bne	s9,a3,7bfc <_strtod_l+0xbca>
    7a82:	d26a                	sw	s10,36(sp)
    7a84:	fcb00d37          	lui	s10,0xfcb00
    7a88:	9d22                	add	s10,s10,s0
    7a8a:	8526                	mv	a0,s1
    7a8c:	85ea                	mv	a1,s10
    7a8e:	de3e                	sw	a5,60(sp)
    7a90:	dc3a                	sw	a4,56(sp)
    7a92:	da6e                	sw	s11,52(sp)
    7a94:	260020ef          	jal	ra,9cf4 <__ulp>
    7a98:	58d2                	lw	a7,52(sp)
    7a9a:	5812                	lw	a6,36(sp)
    7a9c:	862a                	mv	a2,a0
    7a9e:	86ae                	mv	a3,a1
    7aa0:	8546                	mv	a0,a7
    7aa2:	85c2                	mv	a1,a6
    7aa4:	9f5fc0ef          	jal	ra,4498 <__muldf3>
    7aa8:	8626                	mv	a2,s1
    7aaa:	86ea                	mv	a3,s10
    7aac:	c53fb0ef          	jal	ra,36fe <__adddf3>
    7ab0:	84aa                	mv	s1,a0
    7ab2:	7ff00537          	lui	a0,0x7ff00
    7ab6:	00b57633          	and	a2,a0,a1
    7aba:	7ca006b7          	lui	a3,0x7ca00
    7abe:	5762                	lw	a4,56(sp)
    7ac0:	57f2                	lw	a5,60(sp)
    7ac2:	0cd66563          	bltu	a2,a3,7b8c <_strtod_l+0xb5a>
    7ac6:	4762                	lw	a4,24(sp)
    7ac8:	fff50793          	addi	a5,a0,-1 # 7fefffff <_eusrstack+0x5fef7fff>
    7acc:	00e79663          	bne	a5,a4,7ad8 <_strtod_l+0xaa6>
    7ad0:	4752                	lw	a4,20(sp)
    7ad2:	57fd                	li	a5,-1
    7ad4:	ace781e3          	beq	a5,a4,7596 <_strtod_l+0x564>
    7ad8:	7ff007b7          	lui	a5,0x7ff00
    7adc:	fff78413          	addi	s0,a5,-1 # 7fefffff <_eusrstack+0x5fef7fff>
    7ae0:	54fd                	li	s1,-1
    7ae2:	45c6                	lw	a1,80(sp)
    7ae4:	854a                	mv	a0,s2
    7ae6:	3cd010ef          	jal	ra,96b2 <_Bfree>
    7aea:	85de                	mv	a1,s7
    7aec:	854a                	mv	a0,s2
    7aee:	3c5010ef          	jal	ra,96b2 <_Bfree>
    7af2:	85ce                	mv	a1,s3
    7af4:	854a                	mv	a0,s2
    7af6:	3bd010ef          	jal	ra,96b2 <_Bfree>
    7afa:	85da                	mv	a1,s6
    7afc:	854a                	mv	a0,s2
    7afe:	3b5010ef          	jal	ra,96b2 <_Bfree>
    7b02:	b195                	j	7766 <_strtod_l+0x734>
    7b04:	e0b1                	bnez	s1,7b48 <_strtod_l+0xb16>
    7b06:	57b2                	lw	a5,44(sp)
    7b08:	8fe1                	and	a5,a5,s0
    7b0a:	e7a1                	bnez	a5,7b52 <_strtod_l+0xb20>
    7b0c:	00005797          	auipc	a5,0x5
    7b10:	3ec78793          	addi	a5,a5,1004 # cef8 <__clz_tab+0x174>
    7b14:	4390                	lw	a2,0(a5)
    7b16:	43d4                	lw	a3,4(a5)
    7b18:	856a                	mv	a0,s10
    7b1a:	85ee                	mv	a1,s11
    7b1c:	8c7fc0ef          	jal	ra,43e2 <__ledf2>
    7b20:	02054d63          	bltz	a0,7b5a <_strtod_l+0xb28>
    7b24:	00005797          	auipc	a5,0x5
    7b28:	3cc78793          	addi	a5,a5,972 # cef0 <__clz_tab+0x16c>
    7b2c:	4390                	lw	a2,0(a5)
    7b2e:	43d4                	lw	a3,4(a5)
    7b30:	856a                	mv	a0,s10
    7b32:	85ee                	mv	a1,s11
    7b34:	965fc0ef          	jal	ra,4498 <__muldf3>
    7b38:	872a                	mv	a4,a0
    7b3a:	87ae                	mv	a5,a1
    7b3c:	80000d37          	lui	s10,0x80000
    7b40:	8dba                	mv	s11,a4
    7b42:	00fd4d33          	xor	s10,s10,a5
    7b46:	b735                	j	7a72 <_strtod_l+0xa40>
    7b48:	4785                	li	a5,1
    7b4a:	00f49463          	bne	s1,a5,7b52 <_strtod_l+0xb20>
    7b4e:	b4040ce3          	beqz	s0,76a6 <_strtod_l+0x674>
    7b52:	4d81                	li	s11,0
    7b54:	bff00d37          	lui	s10,0xbff00
    7b58:	bf11                	j	7a6c <_strtod_l+0xa3a>
    7b5a:	4701                	li	a4,0
    7b5c:	3fe007b7          	lui	a5,0x3fe00
    7b60:	bff1                	j	7b3c <_strtod_l+0xb0a>
    7b62:	00005797          	auipc	a5,0x5
    7b66:	38e78793          	addi	a5,a5,910 # cef0 <__clz_tab+0x16c>
    7b6a:	4390                	lw	a2,0(a5)
    7b6c:	43d4                	lw	a3,4(a5)
    7b6e:	856a                	mv	a0,s10
    7b70:	85ee                	mv	a1,s11
    7b72:	927fc0ef          	jal	ra,4498 <__muldf3>
    7b76:	872a                	mv	a4,a0
    7b78:	87ae                	mv	a5,a1
    7b7a:	8d2e                	mv	s10,a1
    7b7c:	000c1663          	bnez	s8,7b88 <_strtod_l+0xb56>
    7b80:	80000d37          	lui	s10,0x80000
    7b84:	00bd4d33          	xor	s10,s10,a1
    7b88:	8daa                	mv	s11,a0
    7b8a:	b5e5                	j	7a72 <_strtod_l+0xa40>
    7b8c:	03500437          	lui	s0,0x3500
    7b90:	942e                	add	s0,s0,a1
    7b92:	f40a18e3          	bnez	s4,7ae2 <_strtod_l+0xab0>
    7b96:	7ff006b7          	lui	a3,0x7ff00
    7b9a:	8ee1                	and	a3,a3,s0
    7b9c:	f4dc93e3          	bne	s9,a3,7ae2 <_strtod_l+0xab0>
    7ba0:	85be                	mv	a1,a5
    7ba2:	853a                	mv	a0,a4
    7ba4:	8d3a                	mv	s10,a4
    7ba6:	8cbe                	mv	s9,a5
    7ba8:	520030ef          	jal	ra,b0c8 <__fixdfsi>
    7bac:	d1efd0ef          	jal	ra,50ca <__floatsidf>
    7bb0:	862a                	mv	a2,a0
    7bb2:	86ae                	mv	a3,a1
    7bb4:	856a                	mv	a0,s10
    7bb6:	85e6                	mv	a1,s9
    7bb8:	d99fc0ef          	jal	ra,4950 <__subdf3>
    7bbc:	57b2                	lw	a5,44(sp)
    7bbe:	8d2a                	mv	s10,a0
    7bc0:	8dae                	mv	s11,a1
    7bc2:	8fe1                	and	a5,a5,s0
    7bc4:	8fc5                	or	a5,a5,s1
    7bc6:	0187ec33          	or	s8,a5,s8
    7bca:	0a0c0b63          	beqz	s8,7c80 <_strtod_l+0xc4e>
    7bce:	00005797          	auipc	a5,0x5
    7bd2:	34278793          	addi	a5,a5,834 # cf10 <__clz_tab+0x18c>
    7bd6:	4390                	lw	a2,0(a5)
    7bd8:	43d4                	lw	a3,4(a5)
    7bda:	809fc0ef          	jal	ra,43e2 <__ledf2>
    7bde:	9c0546e3          	bltz	a0,75aa <_strtod_l+0x578>
    7be2:	00005797          	auipc	a5,0x5
    7be6:	33678793          	addi	a5,a5,822 # cf18 <__clz_tab+0x194>
    7bea:	4390                	lw	a2,0(a5)
    7bec:	43d4                	lw	a3,4(a5)
    7bee:	856a                	mv	a0,s10
    7bf0:	85ee                	mv	a1,s11
    7bf2:	428030ef          	jal	ra,b01a <__gedf2>
    7bf6:	eea056e3          	blez	a0,7ae2 <_strtod_l+0xab0>
    7bfa:	ba45                	j	75aa <_strtod_l+0x578>
    7bfc:	040a0d63          	beqz	s4,7c56 <_strtod_l+0xc24>
    7c00:	06a006b7          	lui	a3,0x6a00
    7c04:	0596e963          	bltu	a3,s9,7c56 <_strtod_l+0xc24>
    7c08:	00005697          	auipc	a3,0x5
    7c0c:	30068693          	addi	a3,a3,768 # cf08 <__clz_tab+0x184>
    7c10:	4290                	lw	a2,0(a3)
    7c12:	42d4                	lw	a3,4(a3)
    7c14:	853a                	mv	a0,a4
    7c16:	85be                	mv	a1,a5
    7c18:	da3a                	sw	a4,52(sp)
    7c1a:	d23e                	sw	a5,36(sp)
    7c1c:	fc6fc0ef          	jal	ra,43e2 <__ledf2>
    7c20:	5792                	lw	a5,36(sp)
    7c22:	5752                	lw	a4,52(sp)
    7c24:	02a04463          	bgtz	a0,7c4c <_strtod_l+0xc1a>
    7c28:	853a                	mv	a0,a4
    7c2a:	85be                	mv	a1,a5
    7c2c:	504030ef          	jal	ra,b130 <__fixunsdfsi>
    7c30:	e111                	bnez	a0,7c34 <_strtod_l+0xc02>
    7c32:	4505                	li	a0,1
    7c34:	d08fd0ef          	jal	ra,513c <__floatunsidf>
    7c38:	872a                	mv	a4,a0
    7c3a:	87ae                	mv	a5,a1
    7c3c:	8d2e                	mv	s10,a1
    7c3e:	000c1663          	bnez	s8,7c4a <_strtod_l+0xc18>
    7c42:	80000d37          	lui	s10,0x80000
    7c46:	00bd4d33          	xor	s10,s10,a1
    7c4a:	8daa                	mv	s11,a0
    7c4c:	06b005b7          	lui	a1,0x6b00
    7c50:	9d2e                	add	s10,s10,a1
    7c52:	419d0d33          	sub	s10,s10,s9
    7c56:	4552                	lw	a0,20(sp)
    7c58:	45e2                	lw	a1,24(sp)
    7c5a:	da3e                	sw	a5,52(sp)
    7c5c:	d23a                	sw	a4,36(sp)
    7c5e:	096020ef          	jal	ra,9cf4 <__ulp>
    7c62:	862a                	mv	a2,a0
    7c64:	86ae                	mv	a3,a1
    7c66:	856e                	mv	a0,s11
    7c68:	85ea                	mv	a1,s10
    7c6a:	82ffc0ef          	jal	ra,4498 <__muldf3>
    7c6e:	4652                	lw	a2,20(sp)
    7c70:	46e2                	lw	a3,24(sp)
    7c72:	a8dfb0ef          	jal	ra,36fe <__adddf3>
    7c76:	84aa                	mv	s1,a0
    7c78:	842e                	mv	s0,a1
    7c7a:	57d2                	lw	a5,52(sp)
    7c7c:	5712                	lw	a4,36(sp)
    7c7e:	bf11                	j	7b92 <_strtod_l+0xb60>
    7c80:	00005797          	auipc	a5,0x5
    7c84:	2a078793          	addi	a5,a5,672 # cf20 <__clz_tab+0x19c>
    7c88:	4390                	lw	a2,0(a5)
    7c8a:	43d4                	lw	a3,4(a5)
    7c8c:	f56fc0ef          	jal	ra,43e2 <__ledf2>
    7c90:	e40559e3          	bgez	a0,7ae2 <_strtod_l+0xab0>
    7c94:	ba19                	j	75aa <_strtod_l+0x578>
    7c96:	06500713          	li	a4,101
    7c9a:	00e78763          	beq	a5,a4,7ca8 <_strtod_l+0xc76>
    7c9e:	04500713          	li	a4,69
    7ca2:	4505                	li	a0,1
    7ca4:	eee79763          	bne	a5,a4,7392 <_strtod_l+0x360>
    7ca8:	4b01                	li	s6,0
    7caa:	4505                	li	a0,1
    7cac:	d78ff06f          	j	7224 <_strtod_l+0x1f2>

00007cb0 <_strtod_r>:
    7cb0:	81018793          	addi	a5,gp,-2032 # 200001f0 <_impure_ptr>
    7cb4:	439c                	lw	a5,0(a5)
    7cb6:	5394                	lw	a3,32(a5)
    7cb8:	e689                	bnez	a3,7cc2 <_strtod_r+0x12>
    7cba:	1fff8697          	auipc	a3,0x1fff8
    7cbe:	3b668693          	addi	a3,a3,950 # 20000070 <__global_locale>
    7cc2:	b70ff06f          	j	7032 <_strtod_l>

00007cc6 <_strtol_l.isra.0>:
    7cc6:	7179                	addi	sp,sp,-48
    7cc8:	d04a                	sw	s2,32(sp)
    7cca:	ce4e                	sw	s3,28(sp)
    7ccc:	d606                	sw	ra,44(sp)
    7cce:	d422                	sw	s0,40(sp)
    7cd0:	d226                	sw	s1,36(sp)
    7cd2:	89aa                	mv	s3,a0
    7cd4:	892e                	mv	s2,a1
    7cd6:	00190493          	addi	s1,s2,1
    7cda:	fff4c403          	lbu	s0,-1(s1)
    7cde:	853a                	mv	a0,a4
    7ce0:	c636                	sw	a3,12(sp)
    7ce2:	c432                	sw	a2,8(sp)
    7ce4:	c22e                	sw	a1,4(sp)
    7ce6:	c03a                	sw	a4,0(sp)
    7ce8:	005010ef          	jal	ra,94ec <__locale_ctype_ptr_l>
    7cec:	9522                	add	a0,a0,s0
    7cee:	00154783          	lbu	a5,1(a0)
    7cf2:	4702                	lw	a4,0(sp)
    7cf4:	4592                	lw	a1,4(sp)
    7cf6:	8ba1                	andi	a5,a5,8
    7cf8:	4622                	lw	a2,8(sp)
    7cfa:	46b2                	lw	a3,12(sp)
    7cfc:	e7c9                	bnez	a5,7d86 <_strtol_l.isra.0+0xc0>
    7cfe:	02d00793          	li	a5,45
    7d02:	08f41463          	bne	s0,a5,7d8a <_strtol_l.isra.0+0xc4>
    7d06:	0004c783          	lbu	a5,0(s1)
    7d0a:	4305                	li	t1,1
    7d0c:	00290493          	addi	s1,s2,2
    7d10:	c6fd                	beqz	a3,7dfe <_strtol_l.isra.0+0x138>
    7d12:	4741                	li	a4,16
    7d14:	02e69263          	bne	a3,a4,7d38 <_strtol_l.isra.0+0x72>
    7d18:	03000713          	li	a4,48
    7d1c:	00e79e63          	bne	a5,a4,7d38 <_strtol_l.isra.0+0x72>
    7d20:	0004c783          	lbu	a5,0(s1)
    7d24:	05800713          	li	a4,88
    7d28:	0df7f793          	andi	a5,a5,223
    7d2c:	0ce79463          	bne	a5,a4,7df4 <_strtol_l.isra.0+0x12e>
    7d30:	0014c783          	lbu	a5,1(s1)
    7d34:	46c1                	li	a3,16
    7d36:	0489                	addi	s1,s1,2
    7d38:	800008b7          	lui	a7,0x80000
    7d3c:	00031463          	bnez	t1,7d44 <_strtol_l.isra.0+0x7e>
    7d40:	fff8c893          	not	a7,a7
    7d44:	02d8ff33          	remu	t5,a7,a3
    7d48:	4801                	li	a6,0
    7d4a:	4501                	li	a0,0
    7d4c:	4fa5                	li	t6,9
    7d4e:	4ee5                	li	t4,25
    7d50:	52fd                	li	t0,-1
    7d52:	02d8de33          	divu	t3,a7,a3
    7d56:	fd078713          	addi	a4,a5,-48
    7d5a:	04efe463          	bltu	t6,a4,7da2 <_strtol_l.isra.0+0xdc>
    7d5e:	87ba                	mv	a5,a4
    7d60:	04d7df63          	bge	a5,a3,7dbe <_strtol_l.isra.0+0xf8>
    7d64:	00580d63          	beq	a6,t0,7d7e <_strtol_l.isra.0+0xb8>
    7d68:	587d                	li	a6,-1
    7d6a:	00ae6a63          	bltu	t3,a0,7d7e <_strtol_l.isra.0+0xb8>
    7d6e:	00ae1463          	bne	t3,a0,7d76 <_strtol_l.isra.0+0xb0>
    7d72:	00ff4663          	blt	t5,a5,7d7e <_strtol_l.isra.0+0xb8>
    7d76:	4805                	li	a6,1
    7d78:	02a68533          	mul	a0,a3,a0
    7d7c:	953e                	add	a0,a0,a5
    7d7e:	0485                	addi	s1,s1,1
    7d80:	fff4c783          	lbu	a5,-1(s1)
    7d84:	bfc9                	j	7d56 <_strtol_l.isra.0+0x90>
    7d86:	8926                	mv	s2,s1
    7d88:	b7b9                	j	7cd6 <_strtol_l.isra.0+0x10>
    7d8a:	02b00793          	li	a5,43
    7d8e:	00f40563          	beq	s0,a5,7d98 <_strtol_l.isra.0+0xd2>
    7d92:	87a2                	mv	a5,s0
    7d94:	4301                	li	t1,0
    7d96:	bfad                	j	7d10 <_strtol_l.isra.0+0x4a>
    7d98:	0004c783          	lbu	a5,0(s1)
    7d9c:	00290493          	addi	s1,s2,2
    7da0:	bfd5                	j	7d94 <_strtol_l.isra.0+0xce>
    7da2:	fbf78713          	addi	a4,a5,-65
    7da6:	00eee563          	bltu	t4,a4,7db0 <_strtol_l.isra.0+0xea>
    7daa:	fc978793          	addi	a5,a5,-55
    7dae:	bf4d                	j	7d60 <_strtol_l.isra.0+0x9a>
    7db0:	f9f78713          	addi	a4,a5,-97
    7db4:	00eee563          	bltu	t4,a4,7dbe <_strtol_l.isra.0+0xf8>
    7db8:	fa978793          	addi	a5,a5,-87
    7dbc:	b755                	j	7d60 <_strtol_l.isra.0+0x9a>
    7dbe:	57fd                	li	a5,-1
    7dc0:	00f81f63          	bne	a6,a5,7dde <_strtol_l.isra.0+0x118>
    7dc4:	02200793          	li	a5,34
    7dc8:	00f9a023          	sw	a5,0(s3)
    7dcc:	8546                	mv	a0,a7
    7dce:	ee19                	bnez	a2,7dec <_strtol_l.isra.0+0x126>
    7dd0:	50b2                	lw	ra,44(sp)
    7dd2:	5422                	lw	s0,40(sp)
    7dd4:	5492                	lw	s1,36(sp)
    7dd6:	5902                	lw	s2,32(sp)
    7dd8:	49f2                	lw	s3,28(sp)
    7dda:	6145                	addi	sp,sp,48
    7ddc:	8082                	ret
    7dde:	00030463          	beqz	t1,7de6 <_strtol_l.isra.0+0x120>
    7de2:	40a00533          	neg	a0,a0
    7de6:	d66d                	beqz	a2,7dd0 <_strtol_l.isra.0+0x10a>
    7de8:	00080463          	beqz	a6,7df0 <_strtol_l.isra.0+0x12a>
    7dec:	fff48593          	addi	a1,s1,-1
    7df0:	c20c                	sw	a1,0(a2)
    7df2:	bff9                	j	7dd0 <_strtol_l.isra.0+0x10a>
    7df4:	03000793          	li	a5,48
    7df8:	f2a1                	bnez	a3,7d38 <_strtol_l.isra.0+0x72>
    7dfa:	46a1                	li	a3,8
    7dfc:	bf35                	j	7d38 <_strtol_l.isra.0+0x72>
    7dfe:	03000713          	li	a4,48
    7e02:	f0e78fe3          	beq	a5,a4,7d20 <_strtol_l.isra.0+0x5a>
    7e06:	46a9                	li	a3,10
    7e08:	bf05                	j	7d38 <_strtol_l.isra.0+0x72>

00007e0a <_strtol_r>:
    7e0a:	81018793          	addi	a5,gp,-2032 # 200001f0 <_impure_ptr>
    7e0e:	439c                	lw	a5,0(a5)
    7e10:	5398                	lw	a4,32(a5)
    7e12:	e709                	bnez	a4,7e1c <_strtol_r+0x12>
    7e14:	1fff8717          	auipc	a4,0x1fff8
    7e18:	25c70713          	addi	a4,a4,604 # 20000070 <__global_locale>
    7e1c:	eabff06f          	j	7cc6 <_strtol_l.isra.0>

00007e20 <quorem>:
    7e20:	1101                	addi	sp,sp,-32
    7e22:	cc22                	sw	s0,24(sp)
    7e24:	491c                	lw	a5,16(a0)
    7e26:	4980                	lw	s0,16(a1)
    7e28:	ce06                	sw	ra,28(sp)
    7e2a:	ca26                	sw	s1,20(sp)
    7e2c:	c84a                	sw	s2,16(sp)
    7e2e:	c64e                	sw	s3,12(sp)
    7e30:	c452                	sw	s4,8(sp)
    7e32:	c256                	sw	s5,4(sp)
    7e34:	1287c163          	blt	a5,s0,7f56 <quorem+0x136>
    7e38:	147d                	addi	s0,s0,-1
    7e3a:	00241813          	slli	a6,s0,0x2
    7e3e:	01458993          	addi	s3,a1,20 # 6b00014 <_data_lma+0x6af2dc0>
    7e42:	01098a33          	add	s4,s3,a6
    7e46:	01450913          	addi	s2,a0,20
    7e4a:	984a                	add	a6,a6,s2
    7e4c:	000a2783          	lw	a5,0(s4)
    7e50:	00082703          	lw	a4,0(a6)
    7e54:	0785                	addi	a5,a5,1
    7e56:	02f754b3          	divu	s1,a4,a5
    7e5a:	06f76663          	bltu	a4,a5,7ec6 <quorem+0xa6>
    7e5e:	68c1                	lui	a7,0x10
    7e60:	834e                	mv	t1,s3
    7e62:	8e4a                	mv	t3,s2
    7e64:	4e81                	li	t4,0
    7e66:	4f01                	li	t5,0
    7e68:	18fd                	addi	a7,a7,-1
    7e6a:	0311                	addi	t1,t1,4
    7e6c:	ffc32603          	lw	a2,-4(t1)
    7e70:	0e11                	addi	t3,t3,4
    7e72:	01167733          	and	a4,a2,a7
    7e76:	8241                	srli	a2,a2,0x10
    7e78:	02970733          	mul	a4,a4,s1
    7e7c:	02960633          	mul	a2,a2,s1
    7e80:	9776                	add	a4,a4,t4
    7e82:	01075693          	srli	a3,a4,0x10
    7e86:	011777b3          	and	a5,a4,a7
    7e8a:	40ff07b3          	sub	a5,t5,a5
    7e8e:	9636                	add	a2,a2,a3
    7e90:	ffce2683          	lw	a3,-4(t3)
    7e94:	01065e93          	srli	t4,a2,0x10
    7e98:	01167633          	and	a2,a2,a7
    7e9c:	0116f733          	and	a4,a3,a7
    7ea0:	97ba                	add	a5,a5,a4
    7ea2:	82c1                	srli	a3,a3,0x10
    7ea4:	4107d713          	srai	a4,a5,0x10
    7ea8:	8e91                	sub	a3,a3,a2
    7eaa:	96ba                	add	a3,a3,a4
    7eac:	4106df13          	srai	t5,a3,0x10
    7eb0:	0117f7b3          	and	a5,a5,a7
    7eb4:	06c2                	slli	a3,a3,0x10
    7eb6:	8fd5                	or	a5,a5,a3
    7eb8:	fefe2e23          	sw	a5,-4(t3)
    7ebc:	fa6a77e3          	bgeu	s4,t1,7e6a <quorem+0x4a>
    7ec0:	00082783          	lw	a5,0(a6)
    7ec4:	cbbd                	beqz	a5,7f3a <quorem+0x11a>
    7ec6:	8aaa                	mv	s5,a0
    7ec8:	509010ef          	jal	ra,9bd0 <__mcmp>
    7ecc:	04054963          	bltz	a0,7f1e <quorem+0xfe>
    7ed0:	6641                	lui	a2,0x10
    7ed2:	0485                	addi	s1,s1,1
    7ed4:	85ca                	mv	a1,s2
    7ed6:	4501                	li	a0,0
    7ed8:	167d                	addi	a2,a2,-1
    7eda:	0991                	addi	s3,s3,4
    7edc:	ffc9a803          	lw	a6,-4(s3)
    7ee0:	4198                	lw	a4,0(a1)
    7ee2:	0591                	addi	a1,a1,4
    7ee4:	00c876b3          	and	a3,a6,a2
    7ee8:	8d15                	sub	a0,a0,a3
    7eea:	00c776b3          	and	a3,a4,a2
    7eee:	96aa                	add	a3,a3,a0
    7ef0:	01075793          	srli	a5,a4,0x10
    7ef4:	01085813          	srli	a6,a6,0x10
    7ef8:	4106d713          	srai	a4,a3,0x10
    7efc:	410787b3          	sub	a5,a5,a6
    7f00:	97ba                	add	a5,a5,a4
    7f02:	4107d513          	srai	a0,a5,0x10
    7f06:	8ef1                	and	a3,a3,a2
    7f08:	07c2                	slli	a5,a5,0x10
    7f0a:	8fd5                	or	a5,a5,a3
    7f0c:	fef5ae23          	sw	a5,-4(a1)
    7f10:	fd3a75e3          	bgeu	s4,s3,7eda <quorem+0xba>
    7f14:	00241793          	slli	a5,s0,0x2
    7f18:	97ca                	add	a5,a5,s2
    7f1a:	4398                	lw	a4,0(a5)
    7f1c:	c71d                	beqz	a4,7f4a <quorem+0x12a>
    7f1e:	8526                	mv	a0,s1
    7f20:	40f2                	lw	ra,28(sp)
    7f22:	4462                	lw	s0,24(sp)
    7f24:	44d2                	lw	s1,20(sp)
    7f26:	4942                	lw	s2,16(sp)
    7f28:	49b2                	lw	s3,12(sp)
    7f2a:	4a22                	lw	s4,8(sp)
    7f2c:	4a92                	lw	s5,4(sp)
    7f2e:	6105                	addi	sp,sp,32
    7f30:	8082                	ret
    7f32:	00082783          	lw	a5,0(a6)
    7f36:	e789                	bnez	a5,7f40 <quorem+0x120>
    7f38:	147d                	addi	s0,s0,-1
    7f3a:	1871                	addi	a6,a6,-4
    7f3c:	ff096be3          	bltu	s2,a6,7f32 <quorem+0x112>
    7f40:	c900                	sw	s0,16(a0)
    7f42:	b751                	j	7ec6 <quorem+0xa6>
    7f44:	4398                	lw	a4,0(a5)
    7f46:	e709                	bnez	a4,7f50 <quorem+0x130>
    7f48:	147d                	addi	s0,s0,-1
    7f4a:	17f1                	addi	a5,a5,-4
    7f4c:	fef96ce3          	bltu	s2,a5,7f44 <quorem+0x124>
    7f50:	008aa823          	sw	s0,16(s5)
    7f54:	b7e9                	j	7f1e <quorem+0xfe>
    7f56:	4501                	li	a0,0
    7f58:	b7e1                	j	7f20 <quorem+0x100>

00007f5a <_dtoa_r>:
    7f5a:	7175                	addi	sp,sp,-144
    7f5c:	d83e                	sw	a5,48(sp)
    7f5e:	515c                	lw	a5,36(a0)
    7f60:	c522                	sw	s0,136(sp)
    7f62:	c326                	sw	s1,132(sp)
    7f64:	c14a                	sw	s2,128(sp)
    7f66:	dece                	sw	s3,124(sp)
    7f68:	dcd2                	sw	s4,120(sp)
    7f6a:	d4e2                	sw	s8,104(sp)
    7f6c:	c706                	sw	ra,140(sp)
    7f6e:	dad6                	sw	s5,116(sp)
    7f70:	d8da                	sw	s6,112(sp)
    7f72:	d6de                	sw	s7,108(sp)
    7f74:	d2e6                	sw	s9,100(sp)
    7f76:	d0ea                	sw	s10,96(sp)
    7f78:	ceee                	sw	s11,92(sp)
    7f7a:	c236                	sw	a3,4(sp)
    7f7c:	c63a                	sw	a4,12(sp)
    7f7e:	ca46                	sw	a7,20(sp)
    7f80:	84aa                	mv	s1,a0
    7f82:	842e                	mv	s0,a1
    7f84:	8932                	mv	s2,a2
    7f86:	89c2                	mv	s3,a6
    7f88:	8a2e                	mv	s4,a1
    7f8a:	8c32                	mv	s8,a2
    7f8c:	ef89                	bnez	a5,7fa6 <_dtoa_r+0x4c>
    7f8e:	4541                	li	a0,16
    7f90:	580010ef          	jal	ra,9510 <malloc>
    7f94:	d0c8                	sw	a0,36(s1)
    7f96:	00052223          	sw	zero,4(a0)
    7f9a:	00052423          	sw	zero,8(a0)
    7f9e:	00052023          	sw	zero,0(a0)
    7fa2:	00052623          	sw	zero,12(a0)
    7fa6:	50dc                	lw	a5,36(s1)
    7fa8:	438c                	lw	a1,0(a5)
    7faa:	cd89                	beqz	a1,7fc4 <_dtoa_r+0x6a>
    7fac:	43d8                	lw	a4,4(a5)
    7fae:	4785                	li	a5,1
    7fb0:	8526                	mv	a0,s1
    7fb2:	00e797b3          	sll	a5,a5,a4
    7fb6:	c59c                	sw	a5,8(a1)
    7fb8:	c1d8                	sw	a4,4(a1)
    7fba:	6f8010ef          	jal	ra,96b2 <_Bfree>
    7fbe:	50dc                	lw	a5,36(s1)
    7fc0:	0007a023          	sw	zero,0(a5)
    7fc4:	04095363          	bgez	s2,800a <_dtoa_r+0xb0>
    7fc8:	4785                	li	a5,1
    7fca:	00191c13          	slli	s8,s2,0x1
    7fce:	00f9a023          	sw	a5,0(s3)
    7fd2:	001c5c13          	srli	s8,s8,0x1
    7fd6:	7ff007b7          	lui	a5,0x7ff00
    7fda:	00fc7733          	and	a4,s8,a5
    7fde:	06f71463          	bne	a4,a5,8046 <_dtoa_r+0xec>
    7fe2:	5742                	lw	a4,48(sp)
    7fe4:	6789                	lui	a5,0x2
    7fe6:	0c32                	slli	s8,s8,0xc
    7fe8:	70f78793          	addi	a5,a5,1807 # 270f <ADC_BufferCmd+0x15>
    7fec:	00cc5c13          	srli	s8,s8,0xc
    7ff0:	c31c                	sw	a5,0(a4)
    7ff2:	008c6c33          	or	s8,s8,s0
    7ff6:	320c05e3          	beqz	s8,8b20 <_dtoa_r+0xbc6>
    7ffa:	47d2                	lw	a5,20(sp)
    7ffc:	eb91                	bnez	a5,8010 <_dtoa_r+0xb6>
    7ffe:	00005797          	auipc	a5,0x5
    8002:	fce78793          	addi	a5,a5,-50 # cfcc <tinytens+0x6c>
    8006:	c03e                	sw	a5,0(sp)
    8008:	a839                	j	8026 <_dtoa_r+0xcc>
    800a:	0009a023          	sw	zero,0(s3)
    800e:	b7e1                	j	7fd6 <_dtoa_r+0x7c>
    8010:	00005797          	auipc	a5,0x5
    8014:	fbc78793          	addi	a5,a5,-68 # cfcc <tinytens+0x6c>
    8018:	c03e                	sw	a5,0(sp)
    801a:	00005797          	auipc	a5,0x5
    801e:	fb578793          	addi	a5,a5,-75 # cfcf <tinytens+0x6f>
    8022:	4752                	lw	a4,20(sp)
    8024:	c31c                	sw	a5,0(a4)
    8026:	40ba                	lw	ra,140(sp)
    8028:	442a                	lw	s0,136(sp)
    802a:	4502                	lw	a0,0(sp)
    802c:	449a                	lw	s1,132(sp)
    802e:	490a                	lw	s2,128(sp)
    8030:	59f6                	lw	s3,124(sp)
    8032:	5a66                	lw	s4,120(sp)
    8034:	5ad6                	lw	s5,116(sp)
    8036:	5b46                	lw	s6,112(sp)
    8038:	5bb6                	lw	s7,108(sp)
    803a:	5c26                	lw	s8,104(sp)
    803c:	5c96                	lw	s9,100(sp)
    803e:	5d06                	lw	s10,96(sp)
    8040:	4df6                	lw	s11,92(sp)
    8042:	6149                	addi	sp,sp,144
    8044:	8082                	ret
    8046:	4601                	li	a2,0
    8048:	4681                	li	a3,0
    804a:	8522                	mv	a0,s0
    804c:	85e2                	mv	a1,s8
    804e:	ce22                	sw	s0,28(sp)
    8050:	d462                	sw	s8,40(sp)
    8052:	75f020ef          	jal	ra,afb0 <__eqdf2>
    8056:	e105                	bnez	a0,8076 <_dtoa_r+0x11c>
    8058:	5742                	lw	a4,48(sp)
    805a:	4785                	li	a5,1
    805c:	c31c                	sw	a5,0(a4)
    805e:	00005797          	auipc	a5,0x5
    8062:	e4278793          	addi	a5,a5,-446 # cea0 <__clz_tab+0x11c>
    8066:	c03e                	sw	a5,0(sp)
    8068:	47d2                	lw	a5,20(sp)
    806a:	dfd5                	beqz	a5,8026 <_dtoa_r+0xcc>
    806c:	00005797          	auipc	a5,0x5
    8070:	e3578793          	addi	a5,a5,-459 # cea1 <__clz_tab+0x11d>
    8074:	b77d                	j	8022 <_dtoa_r+0xc8>
    8076:	00b8                	addi	a4,sp,72
    8078:	00f4                	addi	a3,sp,76
    807a:	8662                	mv	a2,s8
    807c:	85a2                	mv	a1,s0
    807e:	8526                	mv	a0,s1
    8080:	014c5913          	srli	s2,s8,0x14
    8084:	56b010ef          	jal	ra,9dee <__d2b>
    8088:	7ff97913          	andi	s2,s2,2047
    808c:	89aa                	mv	s3,a0
    808e:	4aa6                	lw	s5,72(sp)
    8090:	10090d63          	beqz	s2,81aa <_dtoa_r+0x250>
    8094:	57a2                	lw	a5,40(sp)
    8096:	4572                	lw	a0,28(sp)
    8098:	c0190913          	addi	s2,s2,-1023
    809c:	00c79593          	slli	a1,a5,0xc
    80a0:	81b1                	srli	a1,a1,0xc
    80a2:	3ff007b7          	lui	a5,0x3ff00
    80a6:	8ddd                	or	a1,a1,a5
    80a8:	dc02                	sw	zero,56(sp)
    80aa:	00005797          	auipc	a5,0x5
    80ae:	ede78793          	addi	a5,a5,-290 # cf88 <tinytens+0x28>
    80b2:	4390                	lw	a2,0(a5)
    80b4:	43d4                	lw	a3,4(a5)
    80b6:	89bfc0ef          	jal	ra,4950 <__subdf3>
    80ba:	00005797          	auipc	a5,0x5
    80be:	ed678793          	addi	a5,a5,-298 # cf90 <tinytens+0x30>
    80c2:	4390                	lw	a2,0(a5)
    80c4:	43d4                	lw	a3,4(a5)
    80c6:	bd2fc0ef          	jal	ra,4498 <__muldf3>
    80ca:	00005797          	auipc	a5,0x5
    80ce:	ece78793          	addi	a5,a5,-306 # cf98 <tinytens+0x38>
    80d2:	4390                	lw	a2,0(a5)
    80d4:	43d4                	lw	a3,4(a5)
    80d6:	e28fb0ef          	jal	ra,36fe <__adddf3>
    80da:	8b2a                	mv	s6,a0
    80dc:	854a                	mv	a0,s2
    80de:	8bae                	mv	s7,a1
    80e0:	febfc0ef          	jal	ra,50ca <__floatsidf>
    80e4:	00005797          	auipc	a5,0x5
    80e8:	ebc78793          	addi	a5,a5,-324 # cfa0 <tinytens+0x40>
    80ec:	4390                	lw	a2,0(a5)
    80ee:	43d4                	lw	a3,4(a5)
    80f0:	ba8fc0ef          	jal	ra,4498 <__muldf3>
    80f4:	862a                	mv	a2,a0
    80f6:	86ae                	mv	a3,a1
    80f8:	855a                	mv	a0,s6
    80fa:	85de                	mv	a1,s7
    80fc:	e02fb0ef          	jal	ra,36fe <__adddf3>
    8100:	8b2a                	mv	s6,a0
    8102:	8bae                	mv	s7,a1
    8104:	7c5020ef          	jal	ra,b0c8 <__fixdfsi>
    8108:	842a                	mv	s0,a0
    810a:	4601                	li	a2,0
    810c:	4681                	li	a3,0
    810e:	855a                	mv	a0,s6
    8110:	85de                	mv	a1,s7
    8112:	ad0fc0ef          	jal	ra,43e2 <__ledf2>
    8116:	00055b63          	bgez	a0,812c <_dtoa_r+0x1d2>
    811a:	8522                	mv	a0,s0
    811c:	faffc0ef          	jal	ra,50ca <__floatsidf>
    8120:	865a                	mv	a2,s6
    8122:	86de                	mv	a3,s7
    8124:	68d020ef          	jal	ra,afb0 <__eqdf2>
    8128:	c111                	beqz	a0,812c <_dtoa_r+0x1d2>
    812a:	147d                	addi	s0,s0,-1
    812c:	4705                	li	a4,1
    812e:	47d9                	li	a5,22
    8130:	d63a                	sw	a4,44(sp)
    8132:	0287e363          	bltu	a5,s0,8158 <_dtoa_r+0x1fe>
    8136:	00341713          	slli	a4,s0,0x3
    813a:	00005797          	auipc	a5,0x5
    813e:	f2e78793          	addi	a5,a5,-210 # d068 <__mprec_tens>
    8142:	97ba                	add	a5,a5,a4
    8144:	4390                	lw	a2,0(a5)
    8146:	43d4                	lw	a3,4(a5)
    8148:	4572                	lw	a0,28(sp)
    814a:	55a2                	lw	a1,40(sp)
    814c:	a96fc0ef          	jal	ra,43e2 <__ledf2>
    8150:	00055363          	bgez	a0,8156 <_dtoa_r+0x1fc>
    8154:	147d                	addi	s0,s0,-1
    8156:	d602                	sw	zero,44(sp)
    8158:	412a8933          	sub	s2,s5,s2
    815c:	fff90b93          	addi	s7,s2,-1
    8160:	4b01                	li	s6,0
    8162:	000bd663          	bgez	s7,816e <_dtoa_r+0x214>
    8166:	4b05                	li	s6,1
    8168:	412b0b33          	sub	s6,s6,s2
    816c:	4b81                	li	s7,0
    816e:	06044e63          	bltz	s0,81ea <_dtoa_r+0x290>
    8172:	9ba2                	add	s7,s7,s0
    8174:	cc22                	sw	s0,24(sp)
    8176:	4a81                	li	s5,0
    8178:	4712                	lw	a4,4(sp)
    817a:	47a5                	li	a5,9
    817c:	14e7e563          	bltu	a5,a4,82c6 <_dtoa_r+0x36c>
    8180:	4795                	li	a5,5
    8182:	4c85                	li	s9,1
    8184:	00e7d663          	bge	a5,a4,8190 <_dtoa_r+0x236>
    8188:	ffc70793          	addi	a5,a4,-4
    818c:	c23e                	sw	a5,4(sp)
    818e:	4c81                	li	s9,0
    8190:	4712                	lw	a4,4(sp)
    8192:	478d                	li	a5,3
    8194:	10f70e63          	beq	a4,a5,82b0 <_dtoa_r+0x356>
    8198:	04e7cf63          	blt	a5,a4,81f6 <_dtoa_r+0x29c>
    819c:	4789                	li	a5,2
    819e:	c802                	sw	zero,16(sp)
    81a0:	06f70d63          	beq	a4,a5,821a <_dtoa_r+0x2c0>
    81a4:	4785                	li	a5,1
    81a6:	c83e                	sw	a5,16(sp)
    81a8:	a08d                	j	820a <_dtoa_r+0x2b0>
    81aa:	4936                	lw	s2,76(sp)
    81ac:	02000793          	li	a5,32
    81b0:	9956                	add	s2,s2,s5
    81b2:	43290713          	addi	a4,s2,1074
    81b6:	02e7d563          	bge	a5,a4,81e0 <_dtoa_r+0x286>
    81ba:	04000513          	li	a0,64
    81be:	8d19                	sub	a0,a0,a4
    81c0:	41290793          	addi	a5,s2,1042
    81c4:	00ac1533          	sll	a0,s8,a0
    81c8:	00f45433          	srl	s0,s0,a5
    81cc:	8d41                	or	a0,a0,s0
    81ce:	f6ffc0ef          	jal	ra,513c <__floatunsidf>
    81d2:	fe1007b7          	lui	a5,0xfe100
    81d6:	95be                	add	a1,a1,a5
    81d8:	4785                	li	a5,1
    81da:	197d                	addi	s2,s2,-1
    81dc:	dc3e                	sw	a5,56(sp)
    81de:	b5f1                	j	80aa <_dtoa_r+0x150>
    81e0:	40e78533          	sub	a0,a5,a4
    81e4:	00a41533          	sll	a0,s0,a0
    81e8:	b7dd                	j	81ce <_dtoa_r+0x274>
    81ea:	408b0b33          	sub	s6,s6,s0
    81ee:	40800ab3          	neg	s5,s0
    81f2:	cc02                	sw	zero,24(sp)
    81f4:	b751                	j	8178 <_dtoa_r+0x21e>
    81f6:	4712                	lw	a4,4(sp)
    81f8:	4791                	li	a5,4
    81fa:	00f70e63          	beq	a4,a5,8216 <_dtoa_r+0x2bc>
    81fe:	4705                	li	a4,1
    8200:	c83a                	sw	a4,16(sp)
    8202:	4712                	lw	a4,4(sp)
    8204:	4795                	li	a5,5
    8206:	0af70663          	beq	a4,a5,82b2 <_dtoa_r+0x358>
    820a:	57fd                	li	a5,-1
    820c:	c43e                	sw	a5,8(sp)
    820e:	5dfd                	li	s11,-1
    8210:	47c9                	li	a5,18
    8212:	c602                	sw	zero,12(sp)
    8214:	a819                	j	822a <_dtoa_r+0x2d0>
    8216:	4785                	li	a5,1
    8218:	c83e                	sw	a5,16(sp)
    821a:	47b2                	lw	a5,12(sp)
    821c:	0af04863          	bgtz	a5,82cc <_dtoa_r+0x372>
    8220:	4785                	li	a5,1
    8222:	4705                	li	a4,1
    8224:	c43e                	sw	a5,8(sp)
    8226:	4d85                	li	s11,1
    8228:	c63a                	sw	a4,12(sp)
    822a:	0244a903          	lw	s2,36(s1)
    822e:	4711                	li	a4,4
    8230:	00092223          	sw	zero,4(s2)
    8234:	01470693          	addi	a3,a4,20
    8238:	00492583          	lw	a1,4(s2)
    823c:	08d7fc63          	bgeu	a5,a3,82d4 <_dtoa_r+0x37a>
    8240:	8526                	mv	a0,s1
    8242:	3e4010ef          	jal	ra,9626 <_Balloc>
    8246:	50dc                	lw	a5,36(s1)
    8248:	00a92023          	sw	a0,0(s2)
    824c:	439c                	lw	a5,0(a5)
    824e:	c03e                	sw	a5,0(sp)
    8250:	47b9                	li	a5,14
    8252:	1db7e663          	bltu	a5,s11,841e <_dtoa_r+0x4c4>
    8256:	1c0c8463          	beqz	s9,841e <_dtoa_r+0x4c4>
    825a:	0a805e63          	blez	s0,8316 <_dtoa_r+0x3bc>
    825e:	00f47793          	andi	a5,s0,15
    8262:	00379713          	slli	a4,a5,0x3
    8266:	40445c93          	srai	s9,s0,0x4
    826a:	00005797          	auipc	a5,0x5
    826e:	dfe78793          	addi	a5,a5,-514 # d068 <__mprec_tens>
    8272:	97ba                	add	a5,a5,a4
    8274:	010cf693          	andi	a3,s9,16
    8278:	4398                	lw	a4,0(a5)
    827a:	4909                	li	s2,2
    827c:	43dc                	lw	a5,4(a5)
    827e:	c685                	beqz	a3,82a6 <_dtoa_r+0x34c>
    8280:	00005697          	auipc	a3,0x5
    8284:	dc068693          	addi	a3,a3,-576 # d040 <__mprec_bigtens>
    8288:	5290                	lw	a2,32(a3)
    828a:	4572                	lw	a0,28(sp)
    828c:	52d4                	lw	a3,36(a3)
    828e:	55a2                	lw	a1,40(sp)
    8290:	d03a                	sw	a4,32(sp)
    8292:	d23e                	sw	a5,36(sp)
    8294:	b9bfb0ef          	jal	ra,3e2e <__divdf3>
    8298:	5702                	lw	a4,32(sp)
    829a:	5792                	lw	a5,36(sp)
    829c:	00fcfc93          	andi	s9,s9,15
    82a0:	8a2a                	mv	s4,a0
    82a2:	8c2e                	mv	s8,a1
    82a4:	490d                	li	s2,3
    82a6:	00005d17          	auipc	s10,0x5
    82aa:	d9ad0d13          	addi	s10,s10,-614 # d040 <__mprec_bigtens>
    82ae:	a889                	j	8300 <_dtoa_r+0x3a6>
    82b0:	c802                	sw	zero,16(sp)
    82b2:	47b2                	lw	a5,12(sp)
    82b4:	97a2                	add	a5,a5,s0
    82b6:	c43e                	sw	a5,8(sp)
    82b8:	00178d93          	addi	s11,a5,1
    82bc:	87ee                	mv	a5,s11
    82be:	f7b046e3          	bgtz	s11,822a <_dtoa_r+0x2d0>
    82c2:	4785                	li	a5,1
    82c4:	b79d                	j	822a <_dtoa_r+0x2d0>
    82c6:	4c85                	li	s9,1
    82c8:	c202                	sw	zero,4(sp)
    82ca:	bde9                	j	81a4 <_dtoa_r+0x24a>
    82cc:	47b2                	lw	a5,12(sp)
    82ce:	c43e                	sw	a5,8(sp)
    82d0:	8dbe                	mv	s11,a5
    82d2:	bfa1                	j	822a <_dtoa_r+0x2d0>
    82d4:	0585                	addi	a1,a1,1
    82d6:	00b92223          	sw	a1,4(s2)
    82da:	0706                	slli	a4,a4,0x1
    82dc:	bfa1                	j	8234 <_dtoa_r+0x2da>
    82de:	001cf693          	andi	a3,s9,1
    82e2:	ce81                	beqz	a3,82fa <_dtoa_r+0x3a0>
    82e4:	000d2603          	lw	a2,0(s10)
    82e8:	004d2683          	lw	a3,4(s10)
    82ec:	853a                	mv	a0,a4
    82ee:	85be                	mv	a1,a5
    82f0:	9a8fc0ef          	jal	ra,4498 <__muldf3>
    82f4:	0905                	addi	s2,s2,1
    82f6:	872a                	mv	a4,a0
    82f8:	87ae                	mv	a5,a1
    82fa:	401cdc93          	srai	s9,s9,0x1
    82fe:	0d21                	addi	s10,s10,8
    8300:	fc0c9fe3          	bnez	s9,82de <_dtoa_r+0x384>
    8304:	863a                	mv	a2,a4
    8306:	86be                	mv	a3,a5
    8308:	8552                	mv	a0,s4
    830a:	85e2                	mv	a1,s8
    830c:	b23fb0ef          	jal	ra,3e2e <__divdf3>
    8310:	8a2a                	mv	s4,a0
    8312:	8c2e                	mv	s8,a1
    8314:	a081                	j	8354 <_dtoa_r+0x3fa>
    8316:	4909                	li	s2,2
    8318:	cc15                	beqz	s0,8354 <_dtoa_r+0x3fa>
    831a:	40800cb3          	neg	s9,s0
    831e:	00fcf793          	andi	a5,s9,15
    8322:	00379713          	slli	a4,a5,0x3
    8326:	00005797          	auipc	a5,0x5
    832a:	d4278793          	addi	a5,a5,-702 # d068 <__mprec_tens>
    832e:	97ba                	add	a5,a5,a4
    8330:	4390                	lw	a2,0(a5)
    8332:	43d4                	lw	a3,4(a5)
    8334:	4572                	lw	a0,28(sp)
    8336:	55a2                	lw	a1,40(sp)
    8338:	404cdc93          	srai	s9,s9,0x4
    833c:	00005d17          	auipc	s10,0x5
    8340:	d04d0d13          	addi	s10,s10,-764 # d040 <__mprec_bigtens>
    8344:	954fc0ef          	jal	ra,4498 <__muldf3>
    8348:	8a2a                	mv	s4,a0
    834a:	8c2e                	mv	s8,a1
    834c:	4781                	li	a5,0
    834e:	120c9c63          	bnez	s9,8486 <_dtoa_r+0x52c>
    8352:	ffdd                	bnez	a5,8310 <_dtoa_r+0x3b6>
    8354:	57b2                	lw	a5,44(sp)
    8356:	14078763          	beqz	a5,84a4 <_dtoa_r+0x54a>
    835a:	00005717          	auipc	a4,0x5
    835e:	b9e70713          	addi	a4,a4,-1122 # cef8 <__clz_tab+0x174>
    8362:	4310                	lw	a2,0(a4)
    8364:	4354                	lw	a3,4(a4)
    8366:	8552                	mv	a0,s4
    8368:	85e2                	mv	a1,s8
    836a:	d052                	sw	s4,32(sp)
    836c:	876fc0ef          	jal	ra,43e2 <__ledf2>
    8370:	12055a63          	bgez	a0,84a4 <_dtoa_r+0x54a>
    8374:	120d8b63          	beqz	s11,84aa <_dtoa_r+0x550>
    8378:	47a2                	lw	a5,8(sp)
    837a:	0af05063          	blez	a5,841a <_dtoa_r+0x4c0>
    837e:	00005717          	auipc	a4,0x5
    8382:	c2a70713          	addi	a4,a4,-982 # cfa8 <tinytens+0x48>
    8386:	5782                	lw	a5,32(sp)
    8388:	4310                	lw	a2,0(a4)
    838a:	4354                	lw	a3,4(a4)
    838c:	853e                	mv	a0,a5
    838e:	85e2                	mv	a1,s8
    8390:	908fc0ef          	jal	ra,4498 <__muldf3>
    8394:	47a2                	lw	a5,8(sp)
    8396:	fff40d13          	addi	s10,s0,-1 # 34fffff <_data_lma+0x34f2dab>
    839a:	8a2a                	mv	s4,a0
    839c:	8c2e                	mv	s8,a1
    839e:	0905                	addi	s2,s2,1
    83a0:	8762                	mv	a4,s8
    83a2:	854a                	mv	a0,s2
    83a4:	de3e                	sw	a5,60(sp)
    83a6:	da52                	sw	s4,52(sp)
    83a8:	8cba                	mv	s9,a4
    83aa:	d03a                	sw	a4,32(sp)
    83ac:	d1ffc0ef          	jal	ra,50ca <__floatsidf>
    83b0:	5852                	lw	a6,52(sp)
    83b2:	5702                	lw	a4,32(sp)
    83b4:	fcc00937          	lui	s2,0xfcc00
    83b8:	8642                	mv	a2,a6
    83ba:	86ba                	mv	a3,a4
    83bc:	8dcfc0ef          	jal	ra,4498 <__muldf3>
    83c0:	00005697          	auipc	a3,0x5
    83c4:	bf068693          	addi	a3,a3,-1040 # cfb0 <tinytens+0x50>
    83c8:	4290                	lw	a2,0(a3)
    83ca:	42d4                	lw	a3,4(a3)
    83cc:	8c52                	mv	s8,s4
    83ce:	b30fb0ef          	jal	ra,36fe <__adddf3>
    83d2:	57f2                	lw	a5,60(sp)
    83d4:	8a2a                	mv	s4,a0
    83d6:	992e                	add	s2,s2,a1
    83d8:	efe1                	bnez	a5,84b0 <_dtoa_r+0x556>
    83da:	00005797          	auipc	a5,0x5
    83de:	bde78793          	addi	a5,a5,-1058 # cfb8 <tinytens+0x58>
    83e2:	5852                	lw	a6,52(sp)
    83e4:	5702                	lw	a4,32(sp)
    83e6:	4390                	lw	a2,0(a5)
    83e8:	43d4                	lw	a3,4(a5)
    83ea:	8542                	mv	a0,a6
    83ec:	85ba                	mv	a1,a4
    83ee:	d62fc0ef          	jal	ra,4950 <__subdf3>
    83f2:	8652                	mv	a2,s4
    83f4:	86ca                	mv	a3,s2
    83f6:	8c2a                	mv	s8,a0
    83f8:	8cae                	mv	s9,a1
    83fa:	421020ef          	jal	ra,b01a <__gedf2>
    83fe:	54a04a63          	bgtz	a0,8952 <_dtoa_r+0x9f8>
    8402:	800007b7          	lui	a5,0x80000
    8406:	0127c7b3          	xor	a5,a5,s2
    840a:	8652                	mv	a2,s4
    840c:	86be                	mv	a3,a5
    840e:	8562                	mv	a0,s8
    8410:	85e6                	mv	a1,s9
    8412:	fd1fb0ef          	jal	ra,43e2 <__ledf2>
    8416:	52054b63          	bltz	a0,894c <_dtoa_r+0x9f2>
    841a:	4a72                	lw	s4,28(sp)
    841c:	5c22                	lw	s8,40(sp)
    841e:	47b6                	lw	a5,76(sp)
    8420:	3007c763          	bltz	a5,872e <_dtoa_r+0x7d4>
    8424:	4739                	li	a4,14
    8426:	30874463          	blt	a4,s0,872e <_dtoa_r+0x7d4>
    842a:	00341713          	slli	a4,s0,0x3
    842e:	00005797          	auipc	a5,0x5
    8432:	c3a78793          	addi	a5,a5,-966 # d068 <__mprec_tens>
    8436:	97ba                	add	a5,a5,a4
    8438:	0007ab03          	lw	s6,0(a5)
    843c:	0047ab83          	lw	s7,4(a5)
    8440:	47b2                	lw	a5,12(sp)
    8442:	2007d263          	bgez	a5,8646 <_dtoa_r+0x6ec>
    8446:	21b04063          	bgtz	s11,8646 <_dtoa_r+0x6ec>
    844a:	500d9163          	bnez	s11,894c <_dtoa_r+0x9f2>
    844e:	00005797          	auipc	a5,0x5
    8452:	b6a78793          	addi	a5,a5,-1174 # cfb8 <tinytens+0x58>
    8456:	4390                	lw	a2,0(a5)
    8458:	43d4                	lw	a3,4(a5)
    845a:	855a                	mv	a0,s6
    845c:	85de                	mv	a1,s7
    845e:	83afc0ef          	jal	ra,4498 <__muldf3>
    8462:	8652                	mv	a2,s4
    8464:	86e2                	mv	a3,s8
    8466:	3b5020ef          	jal	ra,b01a <__gedf2>
    846a:	4a81                	li	s5,0
    846c:	4901                	li	s2,0
    846e:	4a055763          	bgez	a0,891c <_dtoa_r+0x9c2>
    8472:	4782                	lw	a5,0(sp)
    8474:	4702                	lw	a4,0(sp)
    8476:	0405                	addi	s0,s0,1
    8478:	00178a13          	addi	s4,a5,1
    847c:	03100793          	li	a5,49
    8480:	00f70023          	sb	a5,0(a4)
    8484:	a145                	j	8924 <_dtoa_r+0x9ca>
    8486:	001cf713          	andi	a4,s9,1
    848a:	cb09                	beqz	a4,849c <_dtoa_r+0x542>
    848c:	000d2603          	lw	a2,0(s10)
    8490:	004d2683          	lw	a3,4(s10)
    8494:	0905                	addi	s2,s2,1
    8496:	802fc0ef          	jal	ra,4498 <__muldf3>
    849a:	4785                	li	a5,1
    849c:	401cdc93          	srai	s9,s9,0x1
    84a0:	0d21                	addi	s10,s10,8
    84a2:	b575                	j	834e <_dtoa_r+0x3f4>
    84a4:	8d22                	mv	s10,s0
    84a6:	87ee                	mv	a5,s11
    84a8:	bde5                	j	83a0 <_dtoa_r+0x446>
    84aa:	8d22                	mv	s10,s0
    84ac:	4781                	li	a5,0
    84ae:	bdcd                	j	83a0 <_dtoa_r+0x446>
    84b0:	fff78693          	addi	a3,a5,-1
    84b4:	00369613          	slli	a2,a3,0x3
    84b8:	00005697          	auipc	a3,0x5
    84bc:	bb068693          	addi	a3,a3,-1104 # d068 <__mprec_tens>
    84c0:	96b2                	add	a3,a3,a2
    84c2:	4288                	lw	a0,0(a3)
    84c4:	42cc                	lw	a1,4(a3)
    84c6:	4682                	lw	a3,0(sp)
    84c8:	97b6                	add	a5,a5,a3
    84ca:	da3e                	sw	a5,52(sp)
    84cc:	47c2                	lw	a5,16(sp)
    84ce:	c3e9                	beqz	a5,8590 <_dtoa_r+0x636>
    84d0:	00005797          	auipc	a5,0x5
    84d4:	a2078793          	addi	a5,a5,-1504 # cef0 <__clz_tab+0x16c>
    84d8:	862a                	mv	a2,a0
    84da:	86ae                	mv	a3,a1
    84dc:	4388                	lw	a0,0(a5)
    84de:	43cc                	lw	a1,4(a5)
    84e0:	de4a                	sw	s2,60(sp)
    84e2:	d052                	sw	s4,32(sp)
    84e4:	94bfb0ef          	jal	ra,3e2e <__divdf3>
    84e8:	5802                	lw	a6,32(sp)
    84ea:	5772                	lw	a4,60(sp)
    84ec:	00005917          	auipc	s2,0x5
    84f0:	abc90913          	addi	s2,s2,-1348 # cfa8 <tinytens+0x48>
    84f4:	8642                	mv	a2,a6
    84f6:	86ba                	mv	a3,a4
    84f8:	c58fc0ef          	jal	ra,4950 <__subdf3>
    84fc:	4a02                	lw	s4,0(sp)
    84fe:	d02a                	sw	a0,32(sp)
    8500:	d22e                	sw	a1,36(sp)
    8502:	85e6                	mv	a1,s9
    8504:	8562                	mv	a0,s8
    8506:	3c3020ef          	jal	ra,b0c8 <__fixdfsi>
    850a:	de2a                	sw	a0,60(sp)
    850c:	bbffc0ef          	jal	ra,50ca <__floatsidf>
    8510:	862a                	mv	a2,a0
    8512:	86ae                	mv	a3,a1
    8514:	8562                	mv	a0,s8
    8516:	85e6                	mv	a1,s9
    8518:	c38fc0ef          	jal	ra,4950 <__subdf3>
    851c:	57f2                	lw	a5,60(sp)
    851e:	8c2a                	mv	s8,a0
    8520:	8cae                	mv	s9,a1
    8522:	862a                	mv	a2,a0
    8524:	86ae                	mv	a3,a1
    8526:	5502                	lw	a0,32(sp)
    8528:	5592                	lw	a1,36(sp)
    852a:	0a05                	addi	s4,s4,1
    852c:	03078793          	addi	a5,a5,48
    8530:	fefa0fa3          	sb	a5,-1(s4)
    8534:	2e7020ef          	jal	ra,b01a <__gedf2>
    8538:	0ea04863          	bgtz	a0,8628 <_dtoa_r+0x6ce>
    853c:	00005797          	auipc	a5,0x5
    8540:	9bc78793          	addi	a5,a5,-1604 # cef8 <__clz_tab+0x174>
    8544:	4388                	lw	a0,0(a5)
    8546:	43cc                	lw	a1,4(a5)
    8548:	8662                	mv	a2,s8
    854a:	86e6                	mv	a3,s9
    854c:	c04fc0ef          	jal	ra,4950 <__subdf3>
    8550:	862a                	mv	a2,a0
    8552:	86ae                	mv	a3,a1
    8554:	5502                	lw	a0,32(sp)
    8556:	5592                	lw	a1,36(sp)
    8558:	2c3020ef          	jal	ra,b01a <__gedf2>
    855c:	18a04263          	bgtz	a0,86e0 <_dtoa_r+0x786>
    8560:	57d2                	lw	a5,52(sp)
    8562:	eafa0ce3          	beq	s4,a5,841a <_dtoa_r+0x4c0>
    8566:	00092603          	lw	a2,0(s2)
    856a:	00492683          	lw	a3,4(s2)
    856e:	5502                	lw	a0,32(sp)
    8570:	5592                	lw	a1,36(sp)
    8572:	f27fb0ef          	jal	ra,4498 <__muldf3>
    8576:	00092603          	lw	a2,0(s2)
    857a:	00492683          	lw	a3,4(s2)
    857e:	d02a                	sw	a0,32(sp)
    8580:	d22e                	sw	a1,36(sp)
    8582:	8562                	mv	a0,s8
    8584:	85e6                	mv	a1,s9
    8586:	f13fb0ef          	jal	ra,4498 <__muldf3>
    858a:	8c2a                	mv	s8,a0
    858c:	8cae                	mv	s9,a1
    858e:	bf95                	j	8502 <_dtoa_r+0x5a8>
    8590:	8652                	mv	a2,s4
    8592:	86ca                	mv	a3,s2
    8594:	f05fb0ef          	jal	ra,4498 <__muldf3>
    8598:	5a52                	lw	s4,52(sp)
    859a:	4902                	lw	s2,0(sp)
    859c:	d02a                	sw	a0,32(sp)
    859e:	d22e                	sw	a1,36(sp)
    85a0:	85e6                	mv	a1,s9
    85a2:	8562                	mv	a0,s8
    85a4:	325020ef          	jal	ra,b0c8 <__fixdfsi>
    85a8:	de2a                	sw	a0,60(sp)
    85aa:	b21fc0ef          	jal	ra,50ca <__floatsidf>
    85ae:	862a                	mv	a2,a0
    85b0:	86ae                	mv	a3,a1
    85b2:	8562                	mv	a0,s8
    85b4:	85e6                	mv	a1,s9
    85b6:	b9afc0ef          	jal	ra,4950 <__subdf3>
    85ba:	5772                	lw	a4,60(sp)
    85bc:	57d2                	lw	a5,52(sp)
    85be:	0905                	addi	s2,s2,1
    85c0:	03070713          	addi	a4,a4,48
    85c4:	fee90fa3          	sb	a4,-1(s2)
    85c8:	8c2a                	mv	s8,a0
    85ca:	8cae                	mv	s9,a1
    85cc:	06f91263          	bne	s2,a5,8630 <_dtoa_r+0x6d6>
    85d0:	00005917          	auipc	s2,0x5
    85d4:	92090913          	addi	s2,s2,-1760 # cef0 <__clz_tab+0x16c>
    85d8:	00092603          	lw	a2,0(s2)
    85dc:	00492683          	lw	a3,4(s2)
    85e0:	5502                	lw	a0,32(sp)
    85e2:	5592                	lw	a1,36(sp)
    85e4:	91afb0ef          	jal	ra,36fe <__adddf3>
    85e8:	862a                	mv	a2,a0
    85ea:	86ae                	mv	a3,a1
    85ec:	8562                	mv	a0,s8
    85ee:	85e6                	mv	a1,s9
    85f0:	22b020ef          	jal	ra,b01a <__gedf2>
    85f4:	0ea04663          	bgtz	a0,86e0 <_dtoa_r+0x786>
    85f8:	5602                	lw	a2,32(sp)
    85fa:	5692                	lw	a3,36(sp)
    85fc:	00092503          	lw	a0,0(s2)
    8600:	00492583          	lw	a1,4(s2)
    8604:	b4cfc0ef          	jal	ra,4950 <__subdf3>
    8608:	862a                	mv	a2,a0
    860a:	86ae                	mv	a3,a1
    860c:	8562                	mv	a0,s8
    860e:	85e6                	mv	a1,s9
    8610:	dd3fb0ef          	jal	ra,43e2 <__ledf2>
    8614:	03000793          	li	a5,48
    8618:	e00551e3          	bgez	a0,841a <_dtoa_r+0x4c0>
    861c:	fffa4703          	lbu	a4,-1(s4)
    8620:	fffa0693          	addi	a3,s4,-1
    8624:	00f70463          	beq	a4,a5,862c <_dtoa_r+0x6d2>
    8628:	846a                	mv	s0,s10
    862a:	a859                	j	86c0 <_dtoa_r+0x766>
    862c:	8a36                	mv	s4,a3
    862e:	b7fd                	j	861c <_dtoa_r+0x6c2>
    8630:	00005797          	auipc	a5,0x5
    8634:	97878793          	addi	a5,a5,-1672 # cfa8 <tinytens+0x48>
    8638:	4390                	lw	a2,0(a5)
    863a:	43d4                	lw	a3,4(a5)
    863c:	e5dfb0ef          	jal	ra,4498 <__muldf3>
    8640:	8c2a                	mv	s8,a0
    8642:	8cae                	mv	s9,a1
    8644:	bfb1                	j	85a0 <_dtoa_r+0x646>
    8646:	87e2                	mv	a5,s8
    8648:	8cbe                	mv	s9,a5
    864a:	4782                	lw	a5,0(sp)
    864c:	8c52                	mv	s8,s4
    864e:	00005a97          	auipc	s5,0x5
    8652:	95aa8a93          	addi	s5,s5,-1702 # cfa8 <tinytens+0x48>
    8656:	00178913          	addi	s2,a5,1
    865a:	9dbe                	add	s11,s11,a5
    865c:	865a                	mv	a2,s6
    865e:	86de                	mv	a3,s7
    8660:	8562                	mv	a0,s8
    8662:	85e6                	mv	a1,s9
    8664:	fcafb0ef          	jal	ra,3e2e <__divdf3>
    8668:	261020ef          	jal	ra,b0c8 <__fixdfsi>
    866c:	8d2a                	mv	s10,a0
    866e:	a5dfc0ef          	jal	ra,50ca <__floatsidf>
    8672:	865a                	mv	a2,s6
    8674:	86de                	mv	a3,s7
    8676:	e23fb0ef          	jal	ra,4498 <__muldf3>
    867a:	862a                	mv	a2,a0
    867c:	86ae                	mv	a3,a1
    867e:	8562                	mv	a0,s8
    8680:	85e6                	mv	a1,s9
    8682:	acefc0ef          	jal	ra,4950 <__subdf3>
    8686:	030d0793          	addi	a5,s10,48
    868a:	fef90fa3          	sb	a5,-1(s2)
    868e:	862a                	mv	a2,a0
    8690:	86ae                	mv	a3,a1
    8692:	8a4a                	mv	s4,s2
    8694:	072d9e63          	bne	s11,s2,8710 <_dtoa_r+0x7b6>
    8698:	866fb0ef          	jal	ra,36fe <__adddf3>
    869c:	865a                	mv	a2,s6
    869e:	86de                	mv	a3,s7
    86a0:	8c2a                	mv	s8,a0
    86a2:	8cae                	mv	s9,a1
    86a4:	177020ef          	jal	ra,b01a <__gedf2>
    86a8:	02a04b63          	bgtz	a0,86de <_dtoa_r+0x784>
    86ac:	865a                	mv	a2,s6
    86ae:	86de                	mv	a3,s7
    86b0:	8562                	mv	a0,s8
    86b2:	85e6                	mv	a1,s9
    86b4:	0fd020ef          	jal	ra,afb0 <__eqdf2>
    86b8:	e501                	bnez	a0,86c0 <_dtoa_r+0x766>
    86ba:	001d7793          	andi	a5,s10,1
    86be:	e385                	bnez	a5,86de <_dtoa_r+0x784>
    86c0:	85ce                	mv	a1,s3
    86c2:	8526                	mv	a0,s1
    86c4:	7ef000ef          	jal	ra,96b2 <_Bfree>
    86c8:	57c2                	lw	a5,48(sp)
    86ca:	000a0023          	sb	zero,0(s4)
    86ce:	0405                	addi	s0,s0,1
    86d0:	c380                	sw	s0,0(a5)
    86d2:	47d2                	lw	a5,20(sp)
    86d4:	940789e3          	beqz	a5,8026 <_dtoa_r+0xcc>
    86d8:	0147a023          	sw	s4,0(a5)
    86dc:	b2a9                	j	8026 <_dtoa_r+0xcc>
    86de:	8d22                	mv	s10,s0
    86e0:	03900713          	li	a4,57
    86e4:	fffa4683          	lbu	a3,-1(s4)
    86e8:	fffa0793          	addi	a5,s4,-1
    86ec:	00e69a63          	bne	a3,a4,8700 <_dtoa_r+0x7a6>
    86f0:	4682                	lw	a3,0(sp)
    86f2:	00f69d63          	bne	a3,a5,870c <_dtoa_r+0x7b2>
    86f6:	03000713          	li	a4,48
    86fa:	0d05                	addi	s10,s10,1
    86fc:	00e68023          	sb	a4,0(a3)
    8700:	0007c703          	lbu	a4,0(a5)
    8704:	0705                	addi	a4,a4,1
    8706:	00e78023          	sb	a4,0(a5)
    870a:	bf39                	j	8628 <_dtoa_r+0x6ce>
    870c:	8a3e                	mv	s4,a5
    870e:	bfd9                	j	86e4 <_dtoa_r+0x78a>
    8710:	000aa603          	lw	a2,0(s5)
    8714:	004aa683          	lw	a3,4(s5)
    8718:	0905                	addi	s2,s2,1
    871a:	d7ffb0ef          	jal	ra,4498 <__muldf3>
    871e:	4601                	li	a2,0
    8720:	4681                	li	a3,0
    8722:	8c2a                	mv	s8,a0
    8724:	8cae                	mv	s9,a1
    8726:	08b020ef          	jal	ra,afb0 <__eqdf2>
    872a:	f90d                	bnez	a0,865c <_dtoa_r+0x702>
    872c:	bf51                	j	86c0 <_dtoa_r+0x766>
    872e:	4742                	lw	a4,16(sp)
    8730:	10070063          	beqz	a4,8830 <_dtoa_r+0x8d6>
    8734:	4692                	lw	a3,4(sp)
    8736:	4705                	li	a4,1
    8738:	0cd74563          	blt	a4,a3,8802 <_dtoa_r+0x8a8>
    873c:	5762                	lw	a4,56(sp)
    873e:	43378793          	addi	a5,a5,1075
    8742:	e709                	bnez	a4,874c <_dtoa_r+0x7f2>
    8744:	4726                	lw	a4,72(sp)
    8746:	03600793          	li	a5,54
    874a:	8f99                	sub	a5,a5,a4
    874c:	8d56                	mv	s10,s5
    874e:	8cda                	mv	s9,s6
    8750:	4585                	li	a1,1
    8752:	8526                	mv	a0,s1
    8754:	9b3e                	add	s6,s6,a5
    8756:	9bbe                	add	s7,s7,a5
    8758:	18c010ef          	jal	ra,98e4 <__i2b>
    875c:	892a                	mv	s2,a0
    875e:	01905e63          	blez	s9,877a <_dtoa_r+0x820>
    8762:	01705c63          	blez	s7,877a <_dtoa_r+0x820>
    8766:	87e6                	mv	a5,s9
    8768:	019bd363          	bge	s7,s9,876e <_dtoa_r+0x814>
    876c:	87de                	mv	a5,s7
    876e:	40fb0b33          	sub	s6,s6,a5
    8772:	40fc8cb3          	sub	s9,s9,a5
    8776:	40fb8bb3          	sub	s7,s7,a5
    877a:	040a8063          	beqz	s5,87ba <_dtoa_r+0x860>
    877e:	47c2                	lw	a5,16(sp)
    8780:	cfc5                	beqz	a5,8838 <_dtoa_r+0x8de>
    8782:	03a05463          	blez	s10,87aa <_dtoa_r+0x850>
    8786:	85ca                	mv	a1,s2
    8788:	866a                	mv	a2,s10
    878a:	8526                	mv	a0,s1
    878c:	2b8010ef          	jal	ra,9a44 <__pow5mult>
    8790:	864e                	mv	a2,s3
    8792:	85aa                	mv	a1,a0
    8794:	892a                	mv	s2,a0
    8796:	8526                	mv	a0,s1
    8798:	168010ef          	jal	ra,9900 <__multiply>
    879c:	ce2a                	sw	a0,28(sp)
    879e:	85ce                	mv	a1,s3
    87a0:	8526                	mv	a0,s1
    87a2:	711000ef          	jal	ra,96b2 <_Bfree>
    87a6:	47f2                	lw	a5,28(sp)
    87a8:	89be                	mv	s3,a5
    87aa:	41aa8633          	sub	a2,s5,s10
    87ae:	c611                	beqz	a2,87ba <_dtoa_r+0x860>
    87b0:	85ce                	mv	a1,s3
    87b2:	8526                	mv	a0,s1
    87b4:	290010ef          	jal	ra,9a44 <__pow5mult>
    87b8:	89aa                	mv	s3,a0
    87ba:	4585                	li	a1,1
    87bc:	8526                	mv	a0,s1
    87be:	126010ef          	jal	ra,98e4 <__i2b>
    87c2:	47e2                	lw	a5,24(sp)
    87c4:	8aaa                	mv	s5,a0
    87c6:	06f05b63          	blez	a5,883c <_dtoa_r+0x8e2>
    87ca:	863e                	mv	a2,a5
    87cc:	85aa                	mv	a1,a0
    87ce:	8526                	mv	a0,s1
    87d0:	274010ef          	jal	ra,9a44 <__pow5mult>
    87d4:	4712                	lw	a4,4(sp)
    87d6:	4785                	li	a5,1
    87d8:	8aaa                	mv	s5,a0
    87da:	4d01                	li	s10,0
    87dc:	06e7c863          	blt	a5,a4,884c <_dtoa_r+0x8f2>
    87e0:	4d01                	li	s10,0
    87e2:	060a1263          	bnez	s4,8846 <_dtoa_r+0x8ec>
    87e6:	00cc1793          	slli	a5,s8,0xc
    87ea:	8d52                	mv	s10,s4
    87ec:	efa9                	bnez	a5,8846 <_dtoa_r+0x8ec>
    87ee:	7ff005b7          	lui	a1,0x7ff00
    87f2:	00bc7c33          	and	s8,s8,a1
    87f6:	040c0863          	beqz	s8,8846 <_dtoa_r+0x8ec>
    87fa:	0b05                	addi	s6,s6,1
    87fc:	0b85                	addi	s7,s7,1
    87fe:	4d05                	li	s10,1
    8800:	a099                	j	8846 <_dtoa_r+0x8ec>
    8802:	fffd8d13          	addi	s10,s11,-1
    8806:	01aaca63          	blt	s5,s10,881a <_dtoa_r+0x8c0>
    880a:	41aa8d33          	sub	s10,s5,s10
    880e:	000dde63          	bgez	s11,882a <_dtoa_r+0x8d0>
    8812:	41bb0cb3          	sub	s9,s6,s11
    8816:	4781                	li	a5,0
    8818:	bf25                	j	8750 <_dtoa_r+0x7f6>
    881a:	47e2                	lw	a5,24(sp)
    881c:	415d0ab3          	sub	s5,s10,s5
    8820:	97d6                	add	a5,a5,s5
    8822:	cc3e                	sw	a5,24(sp)
    8824:	8aea                	mv	s5,s10
    8826:	4d01                	li	s10,0
    8828:	b7dd                	j	880e <_dtoa_r+0x8b4>
    882a:	8cda                	mv	s9,s6
    882c:	87ee                	mv	a5,s11
    882e:	b70d                	j	8750 <_dtoa_r+0x7f6>
    8830:	8d56                	mv	s10,s5
    8832:	8cda                	mv	s9,s6
    8834:	4901                	li	s2,0
    8836:	b725                	j	875e <_dtoa_r+0x804>
    8838:	8656                	mv	a2,s5
    883a:	bf9d                	j	87b0 <_dtoa_r+0x856>
    883c:	4712                	lw	a4,4(sp)
    883e:	4785                	li	a5,1
    8840:	4d01                	li	s10,0
    8842:	f8e7dfe3          	bge	a5,a4,87e0 <_dtoa_r+0x886>
    8846:	47e2                	lw	a5,24(sp)
    8848:	4505                	li	a0,1
    884a:	cf89                	beqz	a5,8864 <_dtoa_r+0x90a>
    884c:	010aa783          	lw	a5,16(s5)
    8850:	078d                	addi	a5,a5,3
    8852:	078a                	slli	a5,a5,0x2
    8854:	97d6                	add	a5,a5,s5
    8856:	43c8                	lw	a0,4(a5)
    8858:	7dd000ef          	jal	ra,9834 <__hi0bits>
    885c:	02000793          	li	a5,32
    8860:	40a78533          	sub	a0,a5,a0
    8864:	955e                	add	a0,a0,s7
    8866:	897d                	andi	a0,a0,31
    8868:	c151                	beqz	a0,88ec <_dtoa_r+0x992>
    886a:	02000793          	li	a5,32
    886e:	8f89                	sub	a5,a5,a0
    8870:	4711                	li	a4,4
    8872:	06f75a63          	bge	a4,a5,88e6 <_dtoa_r+0x98c>
    8876:	47f1                	li	a5,28
    8878:	40a78533          	sub	a0,a5,a0
    887c:	9b2a                	add	s6,s6,a0
    887e:	9caa                	add	s9,s9,a0
    8880:	9baa                	add	s7,s7,a0
    8882:	01605863          	blez	s6,8892 <_dtoa_r+0x938>
    8886:	85ce                	mv	a1,s3
    8888:	865a                	mv	a2,s6
    888a:	8526                	mv	a0,s1
    888c:	276010ef          	jal	ra,9b02 <__lshift>
    8890:	89aa                	mv	s3,a0
    8892:	01705863          	blez	s7,88a2 <_dtoa_r+0x948>
    8896:	85d6                	mv	a1,s5
    8898:	865e                	mv	a2,s7
    889a:	8526                	mv	a0,s1
    889c:	266010ef          	jal	ra,9b02 <__lshift>
    88a0:	8aaa                	mv	s5,a0
    88a2:	57b2                	lw	a5,44(sp)
    88a4:	c7b1                	beqz	a5,88f0 <_dtoa_r+0x996>
    88a6:	85d6                	mv	a1,s5
    88a8:	854e                	mv	a0,s3
    88aa:	326010ef          	jal	ra,9bd0 <__mcmp>
    88ae:	04055163          	bgez	a0,88f0 <_dtoa_r+0x996>
    88b2:	85ce                	mv	a1,s3
    88b4:	4681                	li	a3,0
    88b6:	4629                	li	a2,10
    88b8:	8526                	mv	a0,s1
    88ba:	63d000ef          	jal	ra,96f6 <__multadd>
    88be:	47c2                	lw	a5,16(sp)
    88c0:	147d                	addi	s0,s0,-1
    88c2:	89aa                	mv	s3,a0
    88c4:	26078c63          	beqz	a5,8b3c <_dtoa_r+0xbe2>
    88c8:	85ca                	mv	a1,s2
    88ca:	4681                	li	a3,0
    88cc:	4629                	li	a2,10
    88ce:	8526                	mv	a0,s1
    88d0:	627000ef          	jal	ra,96f6 <__multadd>
    88d4:	47a2                	lw	a5,8(sp)
    88d6:	892a                	mv	s2,a0
    88d8:	08f04563          	bgtz	a5,8962 <_dtoa_r+0xa08>
    88dc:	4712                	lw	a4,4(sp)
    88de:	4789                	li	a5,2
    88e0:	08e7d163          	bge	a5,a4,8962 <_dtoa_r+0xa08>
    88e4:	a829                	j	88fe <_dtoa_r+0x9a4>
    88e6:	f8e78ee3          	beq	a5,a4,8882 <_dtoa_r+0x928>
    88ea:	853e                	mv	a0,a5
    88ec:	0571                	addi	a0,a0,28
    88ee:	b779                	j	887c <_dtoa_r+0x922>
    88f0:	07b04563          	bgtz	s11,895a <_dtoa_r+0xa00>
    88f4:	4712                	lw	a4,4(sp)
    88f6:	4789                	li	a5,2
    88f8:	06e7d163          	bge	a5,a4,895a <_dtoa_r+0xa00>
    88fc:	c46e                	sw	s11,8(sp)
    88fe:	47a2                	lw	a5,8(sp)
    8900:	ef91                	bnez	a5,891c <_dtoa_r+0x9c2>
    8902:	85d6                	mv	a1,s5
    8904:	4681                	li	a3,0
    8906:	4615                	li	a2,5
    8908:	8526                	mv	a0,s1
    890a:	5ed000ef          	jal	ra,96f6 <__multadd>
    890e:	8aaa                	mv	s5,a0
    8910:	85aa                	mv	a1,a0
    8912:	854e                	mv	a0,s3
    8914:	2bc010ef          	jal	ra,9bd0 <__mcmp>
    8918:	b4a04de3          	bgtz	a0,8472 <_dtoa_r+0x518>
    891c:	47b2                	lw	a5,12(sp)
    891e:	4a02                	lw	s4,0(sp)
    8920:	fff7c413          	not	s0,a5
    8924:	4b01                	li	s6,0
    8926:	85d6                	mv	a1,s5
    8928:	8526                	mv	a0,s1
    892a:	589000ef          	jal	ra,96b2 <_Bfree>
    892e:	d80909e3          	beqz	s2,86c0 <_dtoa_r+0x766>
    8932:	000b0863          	beqz	s6,8942 <_dtoa_r+0x9e8>
    8936:	012b0663          	beq	s6,s2,8942 <_dtoa_r+0x9e8>
    893a:	85da                	mv	a1,s6
    893c:	8526                	mv	a0,s1
    893e:	575000ef          	jal	ra,96b2 <_Bfree>
    8942:	85ca                	mv	a1,s2
    8944:	8526                	mv	a0,s1
    8946:	56d000ef          	jal	ra,96b2 <_Bfree>
    894a:	bb9d                	j	86c0 <_dtoa_r+0x766>
    894c:	4a81                	li	s5,0
    894e:	4901                	li	s2,0
    8950:	b7f1                	j	891c <_dtoa_r+0x9c2>
    8952:	846a                	mv	s0,s10
    8954:	4a81                	li	s5,0
    8956:	4901                	li	s2,0
    8958:	be29                	j	8472 <_dtoa_r+0x518>
    895a:	47c2                	lw	a5,16(sp)
    895c:	c46e                	sw	s11,8(sp)
    895e:	1e078663          	beqz	a5,8b4a <_dtoa_r+0xbf0>
    8962:	01905863          	blez	s9,8972 <_dtoa_r+0xa18>
    8966:	85ca                	mv	a1,s2
    8968:	8666                	mv	a2,s9
    896a:	8526                	mv	a0,s1
    896c:	196010ef          	jal	ra,9b02 <__lshift>
    8970:	892a                	mv	s2,a0
    8972:	854a                	mv	a0,s2
    8974:	020d0663          	beqz	s10,89a0 <_dtoa_r+0xa46>
    8978:	00492583          	lw	a1,4(s2)
    897c:	8526                	mv	a0,s1
    897e:	4a9000ef          	jal	ra,9626 <_Balloc>
    8982:	01092603          	lw	a2,16(s2)
    8986:	8b2a                	mv	s6,a0
    8988:	00c90593          	addi	a1,s2,12
    898c:	0609                	addi	a2,a2,2
    898e:	060a                	slli	a2,a2,0x2
    8990:	0531                	addi	a0,a0,12
    8992:	3df000ef          	jal	ra,9570 <memcpy>
    8996:	4605                	li	a2,1
    8998:	85da                	mv	a1,s6
    899a:	8526                	mv	a0,s1
    899c:	166010ef          	jal	ra,9b02 <__lshift>
    89a0:	4782                	lw	a5,0(sp)
    89a2:	4722                	lw	a4,8(sp)
    89a4:	8b4a                	mv	s6,s2
    89a6:	00178c13          	addi	s8,a5,1
    89aa:	97ba                	add	a5,a5,a4
    89ac:	c63e                	sw	a5,12(sp)
    89ae:	001a7793          	andi	a5,s4,1
    89b2:	892a                	mv	s2,a0
    89b4:	c43e                	sw	a5,8(sp)
    89b6:	85d6                	mv	a1,s5
    89b8:	854e                	mv	a0,s3
    89ba:	c66ff0ef          	jal	ra,7e20 <quorem>
    89be:	85da                	mv	a1,s6
    89c0:	8d2a                	mv	s10,a0
    89c2:	03050d93          	addi	s11,a0,48
    89c6:	854e                	mv	a0,s3
    89c8:	208010ef          	jal	ra,9bd0 <__mcmp>
    89cc:	864a                	mv	a2,s2
    89ce:	8baa                	mv	s7,a0
    89d0:	85d6                	mv	a1,s5
    89d2:	8526                	mv	a0,s1
    89d4:	22e010ef          	jal	ra,9c02 <__mdiff>
    89d8:	4550                	lw	a2,12(a0)
    89da:	fffc0c93          	addi	s9,s8,-1
    89de:	8a2a                	mv	s4,a0
    89e0:	4705                	li	a4,1
    89e2:	e611                	bnez	a2,89ee <_dtoa_r+0xa94>
    89e4:	85aa                	mv	a1,a0
    89e6:	854e                	mv	a0,s3
    89e8:	1e8010ef          	jal	ra,9bd0 <__mcmp>
    89ec:	872a                	mv	a4,a0
    89ee:	85d2                	mv	a1,s4
    89f0:	8526                	mv	a0,s1
    89f2:	c83a                	sw	a4,16(sp)
    89f4:	4bf000ef          	jal	ra,96b2 <_Bfree>
    89f8:	4792                	lw	a5,4(sp)
    89fa:	4742                	lw	a4,16(sp)
    89fc:	8a62                	mv	s4,s8
    89fe:	00e7e6b3          	or	a3,a5,a4
    8a02:	47a2                	lw	a5,8(sp)
    8a04:	8edd                	or	a3,a3,a5
    8a06:	ee81                	bnez	a3,8a1e <_dtoa_r+0xac4>
    8a08:	03900713          	li	a4,57
    8a0c:	04ed8863          	beq	s11,a4,8a5c <_dtoa_r+0xb02>
    8a10:	01705463          	blez	s7,8a18 <_dtoa_r+0xabe>
    8a14:	031d0d93          	addi	s11,s10,49
    8a18:	01bc8023          	sb	s11,0(s9)
    8a1c:	b729                	j	8926 <_dtoa_r+0x9cc>
    8a1e:	000bca63          	bltz	s7,8a32 <_dtoa_r+0xad8>
    8a22:	4792                	lw	a5,4(sp)
    8a24:	0177ebb3          	or	s7,a5,s7
    8a28:	47a2                	lw	a5,8(sp)
    8a2a:	00fbebb3          	or	s7,s7,a5
    8a2e:	040b9563          	bnez	s7,8a78 <_dtoa_r+0xb1e>
    8a32:	fee053e3          	blez	a4,8a18 <_dtoa_r+0xabe>
    8a36:	85ce                	mv	a1,s3
    8a38:	4605                	li	a2,1
    8a3a:	8526                	mv	a0,s1
    8a3c:	0c6010ef          	jal	ra,9b02 <__lshift>
    8a40:	85d6                	mv	a1,s5
    8a42:	89aa                	mv	s3,a0
    8a44:	18c010ef          	jal	ra,9bd0 <__mcmp>
    8a48:	00a04663          	bgtz	a0,8a54 <_dtoa_r+0xafa>
    8a4c:	f571                	bnez	a0,8a18 <_dtoa_r+0xabe>
    8a4e:	001df713          	andi	a4,s11,1
    8a52:	d379                	beqz	a4,8a18 <_dtoa_r+0xabe>
    8a54:	03900713          	li	a4,57
    8a58:	faed9ee3          	bne	s11,a4,8a14 <_dtoa_r+0xaba>
    8a5c:	03900793          	li	a5,57
    8a60:	00fc8023          	sb	a5,0(s9)
    8a64:	03900693          	li	a3,57
    8a68:	fffa4783          	lbu	a5,-1(s4)
    8a6c:	fffa0713          	addi	a4,s4,-1
    8a70:	08d78c63          	beq	a5,a3,8b08 <_dtoa_r+0xbae>
    8a74:	0785                	addi	a5,a5,1
    8a76:	a045                	j	8b16 <_dtoa_r+0xbbc>
    8a78:	00e05b63          	blez	a4,8a8e <_dtoa_r+0xb34>
    8a7c:	03900713          	li	a4,57
    8a80:	fced8ee3          	beq	s11,a4,8a5c <_dtoa_r+0xb02>
    8a84:	001d8793          	addi	a5,s11,1
    8a88:	00fc8023          	sb	a5,0(s9)
    8a8c:	bd69                	j	8926 <_dtoa_r+0x9cc>
    8a8e:	47b2                	lw	a5,12(sp)
    8a90:	ffbc0fa3          	sb	s11,-1(s8)
    8a94:	05878163          	beq	a5,s8,8ad6 <_dtoa_r+0xb7c>
    8a98:	85ce                	mv	a1,s3
    8a9a:	4681                	li	a3,0
    8a9c:	4629                	li	a2,10
    8a9e:	8526                	mv	a0,s1
    8aa0:	457000ef          	jal	ra,96f6 <__multadd>
    8aa4:	89aa                	mv	s3,a0
    8aa6:	4681                	li	a3,0
    8aa8:	4629                	li	a2,10
    8aaa:	85da                	mv	a1,s6
    8aac:	8526                	mv	a0,s1
    8aae:	012b1863          	bne	s6,s2,8abe <_dtoa_r+0xb64>
    8ab2:	445000ef          	jal	ra,96f6 <__multadd>
    8ab6:	8b2a                	mv	s6,a0
    8ab8:	892a                	mv	s2,a0
    8aba:	0c05                	addi	s8,s8,1
    8abc:	bded                	j	89b6 <_dtoa_r+0xa5c>
    8abe:	439000ef          	jal	ra,96f6 <__multadd>
    8ac2:	85ca                	mv	a1,s2
    8ac4:	8b2a                	mv	s6,a0
    8ac6:	4681                	li	a3,0
    8ac8:	4629                	li	a2,10
    8aca:	8526                	mv	a0,s1
    8acc:	42b000ef          	jal	ra,96f6 <__multadd>
    8ad0:	892a                	mv	s2,a0
    8ad2:	b7e5                	j	8aba <_dtoa_r+0xb60>
    8ad4:	4b01                	li	s6,0
    8ad6:	85ce                	mv	a1,s3
    8ad8:	4605                	li	a2,1
    8ada:	8526                	mv	a0,s1
    8adc:	026010ef          	jal	ra,9b02 <__lshift>
    8ae0:	85d6                	mv	a1,s5
    8ae2:	89aa                	mv	s3,a0
    8ae4:	0ec010ef          	jal	ra,9bd0 <__mcmp>
    8ae8:	f6a04ee3          	bgtz	a0,8a64 <_dtoa_r+0xb0a>
    8aec:	e501                	bnez	a0,8af4 <_dtoa_r+0xb9a>
    8aee:	001df793          	andi	a5,s11,1
    8af2:	fbad                	bnez	a5,8a64 <_dtoa_r+0xb0a>
    8af4:	03000793          	li	a5,48
    8af8:	fffa4703          	lbu	a4,-1(s4)
    8afc:	fffa0693          	addi	a3,s4,-1
    8b00:	e2f713e3          	bne	a4,a5,8926 <_dtoa_r+0x9cc>
    8b04:	8a36                	mv	s4,a3
    8b06:	bfcd                	j	8af8 <_dtoa_r+0xb9e>
    8b08:	4782                	lw	a5,0(sp)
    8b0a:	00e79963          	bne	a5,a4,8b1c <_dtoa_r+0xbc2>
    8b0e:	4702                	lw	a4,0(sp)
    8b10:	0405                	addi	s0,s0,1
    8b12:	03100793          	li	a5,49
    8b16:	00f70023          	sb	a5,0(a4)
    8b1a:	b531                	j	8926 <_dtoa_r+0x9cc>
    8b1c:	8a3a                	mv	s4,a4
    8b1e:	b7a9                	j	8a68 <_dtoa_r+0xb0e>
    8b20:	4752                	lw	a4,20(sp)
    8b22:	00004797          	auipc	a5,0x4
    8b26:	49e78793          	addi	a5,a5,1182 # cfc0 <tinytens+0x60>
    8b2a:	c03e                	sw	a5,0(sp)
    8b2c:	00004797          	auipc	a5,0x4
    8b30:	49c78793          	addi	a5,a5,1180 # cfc8 <tinytens+0x68>
    8b34:	ce071763          	bnez	a4,8022 <_dtoa_r+0xc8>
    8b38:	ceeff06f          	j	8026 <_dtoa_r+0xcc>
    8b3c:	47a2                	lw	a5,8(sp)
    8b3e:	00f04663          	bgtz	a5,8b4a <_dtoa_r+0xbf0>
    8b42:	4712                	lw	a4,4(sp)
    8b44:	4789                	li	a5,2
    8b46:	dae7cce3          	blt	a5,a4,88fe <_dtoa_r+0x9a4>
    8b4a:	4a02                	lw	s4,0(sp)
    8b4c:	85d6                	mv	a1,s5
    8b4e:	854e                	mv	a0,s3
    8b50:	ad0ff0ef          	jal	ra,7e20 <quorem>
    8b54:	4782                	lw	a5,0(sp)
    8b56:	0a05                	addi	s4,s4,1
    8b58:	03050d93          	addi	s11,a0,48
    8b5c:	40fa0733          	sub	a4,s4,a5
    8b60:	47a2                	lw	a5,8(sp)
    8b62:	ffba0fa3          	sb	s11,-1(s4)
    8b66:	f6f757e3          	bge	a4,a5,8ad4 <_dtoa_r+0xb7a>
    8b6a:	85ce                	mv	a1,s3
    8b6c:	4681                	li	a3,0
    8b6e:	4629                	li	a2,10
    8b70:	8526                	mv	a0,s1
    8b72:	385000ef          	jal	ra,96f6 <__multadd>
    8b76:	89aa                	mv	s3,a0
    8b78:	bfd1                	j	8b4c <_dtoa_r+0xbf2>

00008b7a <std>:
    8b7a:	1141                	addi	sp,sp,-16
    8b7c:	c422                	sw	s0,8(sp)
    8b7e:	c606                	sw	ra,12(sp)
    8b80:	842a                	mv	s0,a0
    8b82:	00b51623          	sh	a1,12(a0)
    8b86:	00c51723          	sh	a2,14(a0)
    8b8a:	00052023          	sw	zero,0(a0)
    8b8e:	00052223          	sw	zero,4(a0)
    8b92:	00052423          	sw	zero,8(a0)
    8b96:	06052223          	sw	zero,100(a0)
    8b9a:	00052823          	sw	zero,16(a0)
    8b9e:	00052a23          	sw	zero,20(a0)
    8ba2:	00052c23          	sw	zero,24(a0)
    8ba6:	4621                	li	a2,8
    8ba8:	4581                	li	a1,0
    8baa:	05c50513          	addi	a0,a0,92
    8bae:	e52f70ef          	jal	ra,200 <memset>
    8bb2:	00002797          	auipc	a5,0x2
    8bb6:	cca78793          	addi	a5,a5,-822 # a87c <__sread>
    8bba:	d05c                	sw	a5,36(s0)
    8bbc:	00002797          	auipc	a5,0x2
    8bc0:	cf078793          	addi	a5,a5,-784 # a8ac <__swrite>
    8bc4:	d41c                	sw	a5,40(s0)
    8bc6:	00002797          	auipc	a5,0x2
    8bca:	d3478793          	addi	a5,a5,-716 # a8fa <__sseek>
    8bce:	d45c                	sw	a5,44(s0)
    8bd0:	00002797          	auipc	a5,0x2
    8bd4:	d6078793          	addi	a5,a5,-672 # a930 <__sclose>
    8bd8:	d000                	sw	s0,32(s0)
    8bda:	d81c                	sw	a5,48(s0)
    8bdc:	40b2                	lw	ra,12(sp)
    8bde:	4422                	lw	s0,8(sp)
    8be0:	0141                	addi	sp,sp,16
    8be2:	8082                	ret

00008be4 <_cleanup_r>:
    8be4:	00002597          	auipc	a1,0x2
    8be8:	10658593          	addi	a1,a1,262 # acea <_fflush_r>
    8bec:	aa99                	j	8d42 <_fwalk_reent>

00008bee <__sfmoreglue>:
    8bee:	1141                	addi	sp,sp,-16
    8bf0:	c226                	sw	s1,4(sp)
    8bf2:	06800613          	li	a2,104
    8bf6:	fff58493          	addi	s1,a1,-1
    8bfa:	02c484b3          	mul	s1,s1,a2
    8bfe:	c04a                	sw	s2,0(sp)
    8c00:	892e                	mv	s2,a1
    8c02:	c422                	sw	s0,8(sp)
    8c04:	c606                	sw	ra,12(sp)
    8c06:	07448593          	addi	a1,s1,116
    8c0a:	476010ef          	jal	ra,a080 <_malloc_r>
    8c0e:	842a                	mv	s0,a0
    8c10:	cd01                	beqz	a0,8c28 <__sfmoreglue+0x3a>
    8c12:	00052023          	sw	zero,0(a0)
    8c16:	01252223          	sw	s2,4(a0)
    8c1a:	0531                	addi	a0,a0,12
    8c1c:	c408                	sw	a0,8(s0)
    8c1e:	06848613          	addi	a2,s1,104
    8c22:	4581                	li	a1,0
    8c24:	ddcf70ef          	jal	ra,200 <memset>
    8c28:	8522                	mv	a0,s0
    8c2a:	40b2                	lw	ra,12(sp)
    8c2c:	4422                	lw	s0,8(sp)
    8c2e:	4492                	lw	s1,4(sp)
    8c30:	4902                	lw	s2,0(sp)
    8c32:	0141                	addi	sp,sp,16
    8c34:	8082                	ret

00008c36 <__sinit>:
    8c36:	4d1c                	lw	a5,24(a0)
    8c38:	e7a5                	bnez	a5,8ca0 <__sinit+0x6a>
    8c3a:	1141                	addi	sp,sp,-16
    8c3c:	c606                	sw	ra,12(sp)
    8c3e:	c422                	sw	s0,8(sp)
    8c40:	00000797          	auipc	a5,0x0
    8c44:	fa478793          	addi	a5,a5,-92 # 8be4 <_cleanup_r>
    8c48:	d51c                	sw	a5,40(a0)
    8c4a:	83418793          	addi	a5,gp,-1996 # 20000214 <_global_impure_ptr>
    8c4e:	439c                	lw	a5,0(a5)
    8c50:	04052423          	sw	zero,72(a0)
    8c54:	04052623          	sw	zero,76(a0)
    8c58:	04052823          	sw	zero,80(a0)
    8c5c:	00f51463          	bne	a0,a5,8c64 <__sinit+0x2e>
    8c60:	4785                	li	a5,1
    8c62:	cd1c                	sw	a5,24(a0)
    8c64:	842a                	mv	s0,a0
    8c66:	2835                	jal	8ca2 <__sfp>
    8c68:	c048                	sw	a0,4(s0)
    8c6a:	8522                	mv	a0,s0
    8c6c:	281d                	jal	8ca2 <__sfp>
    8c6e:	c408                	sw	a0,8(s0)
    8c70:	8522                	mv	a0,s0
    8c72:	2805                	jal	8ca2 <__sfp>
    8c74:	c448                	sw	a0,12(s0)
    8c76:	4048                	lw	a0,4(s0)
    8c78:	4601                	li	a2,0
    8c7a:	4591                	li	a1,4
    8c7c:	effff0ef          	jal	ra,8b7a <std>
    8c80:	4408                	lw	a0,8(s0)
    8c82:	4605                	li	a2,1
    8c84:	45a5                	li	a1,9
    8c86:	ef5ff0ef          	jal	ra,8b7a <std>
    8c8a:	4448                	lw	a0,12(s0)
    8c8c:	4609                	li	a2,2
    8c8e:	45c9                	li	a1,18
    8c90:	eebff0ef          	jal	ra,8b7a <std>
    8c94:	4785                	li	a5,1
    8c96:	cc1c                	sw	a5,24(s0)
    8c98:	40b2                	lw	ra,12(sp)
    8c9a:	4422                	lw	s0,8(sp)
    8c9c:	0141                	addi	sp,sp,16
    8c9e:	8082                	ret
    8ca0:	8082                	ret

00008ca2 <__sfp>:
    8ca2:	1141                	addi	sp,sp,-16
    8ca4:	83418793          	addi	a5,gp,-1996 # 20000214 <_global_impure_ptr>
    8ca8:	c226                	sw	s1,4(sp)
    8caa:	4384                	lw	s1,0(a5)
    8cac:	c04a                	sw	s2,0(sp)
    8cae:	c606                	sw	ra,12(sp)
    8cb0:	4c9c                	lw	a5,24(s1)
    8cb2:	c422                	sw	s0,8(sp)
    8cb4:	892a                	mv	s2,a0
    8cb6:	e781                	bnez	a5,8cbe <__sfp+0x1c>
    8cb8:	8526                	mv	a0,s1
    8cba:	f7dff0ef          	jal	ra,8c36 <__sinit>
    8cbe:	04848493          	addi	s1,s1,72
    8cc2:	4480                	lw	s0,8(s1)
    8cc4:	40dc                	lw	a5,4(s1)
    8cc6:	17fd                	addi	a5,a5,-1
    8cc8:	0007d663          	bgez	a5,8cd4 <__sfp+0x32>
    8ccc:	409c                	lw	a5,0(s1)
    8cce:	cfb9                	beqz	a5,8d2c <__sfp+0x8a>
    8cd0:	4084                	lw	s1,0(s1)
    8cd2:	bfc5                	j	8cc2 <__sfp+0x20>
    8cd4:	00c41703          	lh	a4,12(s0)
    8cd8:	e739                	bnez	a4,8d26 <__sfp+0x84>
    8cda:	77c1                	lui	a5,0xffff0
    8cdc:	0785                	addi	a5,a5,1
    8cde:	06042223          	sw	zero,100(s0)
    8ce2:	00042023          	sw	zero,0(s0)
    8ce6:	00042223          	sw	zero,4(s0)
    8cea:	00042423          	sw	zero,8(s0)
    8cee:	c45c                	sw	a5,12(s0)
    8cf0:	00042823          	sw	zero,16(s0)
    8cf4:	00042a23          	sw	zero,20(s0)
    8cf8:	00042c23          	sw	zero,24(s0)
    8cfc:	4621                	li	a2,8
    8cfe:	4581                	li	a1,0
    8d00:	05c40513          	addi	a0,s0,92
    8d04:	cfcf70ef          	jal	ra,200 <memset>
    8d08:	02042a23          	sw	zero,52(s0)
    8d0c:	02042c23          	sw	zero,56(s0)
    8d10:	04042423          	sw	zero,72(s0)
    8d14:	04042623          	sw	zero,76(s0)
    8d18:	8522                	mv	a0,s0
    8d1a:	40b2                	lw	ra,12(sp)
    8d1c:	4422                	lw	s0,8(sp)
    8d1e:	4492                	lw	s1,4(sp)
    8d20:	4902                	lw	s2,0(sp)
    8d22:	0141                	addi	sp,sp,16
    8d24:	8082                	ret
    8d26:	06840413          	addi	s0,s0,104
    8d2a:	bf71                	j	8cc6 <__sfp+0x24>
    8d2c:	4591                	li	a1,4
    8d2e:	854a                	mv	a0,s2
    8d30:	ebfff0ef          	jal	ra,8bee <__sfmoreglue>
    8d34:	c088                	sw	a0,0(s1)
    8d36:	fd49                	bnez	a0,8cd0 <__sfp+0x2e>
    8d38:	47b1                	li	a5,12
    8d3a:	00f92023          	sw	a5,0(s2)
    8d3e:	4401                	li	s0,0
    8d40:	bfe1                	j	8d18 <__sfp+0x76>

00008d42 <_fwalk_reent>:
    8d42:	7179                	addi	sp,sp,-48
    8d44:	d422                	sw	s0,40(sp)
    8d46:	d04a                	sw	s2,32(sp)
    8d48:	cc52                	sw	s4,24(sp)
    8d4a:	ca56                	sw	s5,20(sp)
    8d4c:	c85a                	sw	s6,16(sp)
    8d4e:	c65e                	sw	s7,12(sp)
    8d50:	d606                	sw	ra,44(sp)
    8d52:	d226                	sw	s1,36(sp)
    8d54:	ce4e                	sw	s3,28(sp)
    8d56:	8a2a                	mv	s4,a0
    8d58:	8aae                	mv	s5,a1
    8d5a:	04850413          	addi	s0,a0,72
    8d5e:	4901                	li	s2,0
    8d60:	4b05                	li	s6,1
    8d62:	5bfd                	li	s7,-1
    8d64:	ec09                	bnez	s0,8d7e <_fwalk_reent+0x3c>
    8d66:	50b2                	lw	ra,44(sp)
    8d68:	5422                	lw	s0,40(sp)
    8d6a:	854a                	mv	a0,s2
    8d6c:	5492                	lw	s1,36(sp)
    8d6e:	5902                	lw	s2,32(sp)
    8d70:	49f2                	lw	s3,28(sp)
    8d72:	4a62                	lw	s4,24(sp)
    8d74:	4ad2                	lw	s5,20(sp)
    8d76:	4b42                	lw	s6,16(sp)
    8d78:	4bb2                	lw	s7,12(sp)
    8d7a:	6145                	addi	sp,sp,48
    8d7c:	8082                	ret
    8d7e:	4404                	lw	s1,8(s0)
    8d80:	00442983          	lw	s3,4(s0)
    8d84:	19fd                	addi	s3,s3,-1
    8d86:	0009d463          	bgez	s3,8d8e <_fwalk_reent+0x4c>
    8d8a:	4000                	lw	s0,0(s0)
    8d8c:	bfe1                	j	8d64 <_fwalk_reent+0x22>
    8d8e:	00c4d783          	lhu	a5,12(s1)
    8d92:	00fb7b63          	bgeu	s6,a5,8da8 <_fwalk_reent+0x66>
    8d96:	00e49783          	lh	a5,14(s1)
    8d9a:	01778763          	beq	a5,s7,8da8 <_fwalk_reent+0x66>
    8d9e:	85a6                	mv	a1,s1
    8da0:	8552                	mv	a0,s4
    8da2:	9a82                	jalr	s5
    8da4:	00a96933          	or	s2,s2,a0
    8da8:	06848493          	addi	s1,s1,104
    8dac:	bfe1                	j	8d84 <_fwalk_reent+0x42>

00008dae <rshift>:
    8dae:	4910                	lw	a2,16(a0)
    8db0:	01450693          	addi	a3,a0,20
    8db4:	4055d713          	srai	a4,a1,0x5
    8db8:	87b6                	mv	a5,a3
    8dba:	02c75663          	bge	a4,a2,8de6 <rshift+0x38>
    8dbe:	060a                	slli	a2,a2,0x2
    8dc0:	070a                	slli	a4,a4,0x2
    8dc2:	89fd                	andi	a1,a1,31
    8dc4:	9636                	add	a2,a2,a3
    8dc6:	9736                	add	a4,a4,a3
    8dc8:	c9b9                	beqz	a1,8e1e <rshift+0x70>
    8dca:	00470813          	addi	a6,a4,4
    8dce:	4318                	lw	a4,0(a4)
    8dd0:	02000313          	li	t1,32
    8dd4:	40b30333          	sub	t1,t1,a1
    8dd8:	00b75733          	srl	a4,a4,a1
    8ddc:	00c86e63          	bltu	a6,a2,8df8 <rshift+0x4a>
    8de0:	c398                	sw	a4,0(a5)
    8de2:	c311                	beqz	a4,8de6 <rshift+0x38>
    8de4:	0791                	addi	a5,a5,4
    8de6:	40d78733          	sub	a4,a5,a3
    8dea:	8709                	srai	a4,a4,0x2
    8dec:	c918                	sw	a4,16(a0)
    8dee:	00d79463          	bne	a5,a3,8df6 <rshift+0x48>
    8df2:	00052a23          	sw	zero,20(a0)
    8df6:	8082                	ret
    8df8:	00082883          	lw	a7,0(a6)
    8dfc:	0791                	addi	a5,a5,4
    8dfe:	0811                	addi	a6,a6,4
    8e00:	006898b3          	sll	a7,a7,t1
    8e04:	00e8e733          	or	a4,a7,a4
    8e08:	fee7ae23          	sw	a4,-4(a5) # fffefffc <_eusrstack+0xdffe7ffc>
    8e0c:	ffc82703          	lw	a4,-4(a6)
    8e10:	b7e1                	j	8dd8 <rshift+0x2a>
    8e12:	0711                	addi	a4,a4,4
    8e14:	ffc72583          	lw	a1,-4(a4)
    8e18:	0791                	addi	a5,a5,4
    8e1a:	feb7ae23          	sw	a1,-4(a5)
    8e1e:	fec76ae3          	bltu	a4,a2,8e12 <rshift+0x64>
    8e22:	b7d1                	j	8de6 <rshift+0x38>

00008e24 <__hexdig_fun>:
    8e24:	fd050793          	addi	a5,a0,-48
    8e28:	0ff7f793          	andi	a5,a5,255
    8e2c:	4725                	li	a4,9
    8e2e:	00f76763          	bltu	a4,a5,8e3c <__hexdig_fun+0x18>
    8e32:	1501                	addi	a0,a0,-32
    8e34:	0ff57793          	andi	a5,a0,255
    8e38:	853e                	mv	a0,a5
    8e3a:	8082                	ret
    8e3c:	f9f50793          	addi	a5,a0,-97
    8e40:	0ff7f793          	andi	a5,a5,255
    8e44:	4695                	li	a3,5
    8e46:	00f6e563          	bltu	a3,a5,8e50 <__hexdig_fun+0x2c>
    8e4a:	fb950513          	addi	a0,a0,-71
    8e4e:	b7dd                	j	8e34 <__hexdig_fun+0x10>
    8e50:	fbf50713          	addi	a4,a0,-65
    8e54:	0ff77713          	andi	a4,a4,255
    8e58:	4781                	li	a5,0
    8e5a:	fce6efe3          	bltu	a3,a4,8e38 <__hexdig_fun+0x14>
    8e5e:	fd950513          	addi	a0,a0,-39
    8e62:	bfc9                	j	8e34 <__hexdig_fun+0x10>

00008e64 <__gethex>:
    8e64:	711d                	addi	sp,sp,-96
    8e66:	c2d6                	sw	s5,68(sp)
    8e68:	8aaa                	mv	s5,a0
    8e6a:	8542                	mv	a0,a6
    8e6c:	c636                	sw	a3,12(sp)
    8e6e:	c23a                	sw	a4,4(sp)
    8e70:	ce86                	sw	ra,92(sp)
    8e72:	c8ca                	sw	s2,80(sp)
    8e74:	c4d2                	sw	s4,72(sp)
    8e76:	c0da                	sw	s6,64(sp)
    8e78:	de5e                	sw	s7,60(sp)
    8e7a:	8b3e                	mv	s6,a5
    8e7c:	d66e                	sw	s11,44(sp)
    8e7e:	8932                	mv	s2,a2
    8e80:	8dae                	mv	s11,a1
    8e82:	cca2                	sw	s0,88(sp)
    8e84:	caa6                	sw	s1,84(sp)
    8e86:	c6ce                	sw	s3,76(sp)
    8e88:	dc62                	sw	s8,56(sp)
    8e8a:	da66                	sw	s9,52(sp)
    8e8c:	d86a                	sw	s10,48(sp)
    8e8e:	2595                	jal	94f2 <__localeconv_l>
    8e90:	00052b83          	lw	s7,0(a0)
    8e94:	855e                	mv	a0,s7
    8e96:	93cfe0ef          	jal	ra,6fd2 <strlen>
    8e9a:	00ab87b3          	add	a5,s7,a0
    8e9e:	000da683          	lw	a3,0(s11)
    8ea2:	fff7c783          	lbu	a5,-1(a5)
    8ea6:	5779                	li	a4,-2
    8ea8:	8f15                	sub	a4,a4,a3
    8eaa:	c83e                	sw	a5,16(sp)
    8eac:	8a2a                	mv	s4,a0
    8eae:	00268793          	addi	a5,a3,2
    8eb2:	03000693          	li	a3,48
    8eb6:	00f70633          	add	a2,a4,a5
    8eba:	84be                	mv	s1,a5
    8ebc:	0785                	addi	a5,a5,1
    8ebe:	fff7c503          	lbu	a0,-1(a5)
    8ec2:	c432                	sw	a2,8(sp)
    8ec4:	fed509e3          	beq	a0,a3,8eb6 <__gethex+0x52>
    8ec8:	f5dff0ef          	jal	ra,8e24 <__hexdig_fun>
    8ecc:	10051f63          	bnez	a0,8fea <__gethex+0x186>
    8ed0:	8652                	mv	a2,s4
    8ed2:	85de                	mv	a1,s7
    8ed4:	8526                	mv	a0,s1
    8ed6:	261010ef          	jal	ra,a936 <strncmp>
    8eda:	10051d63          	bnez	a0,8ff4 <__gethex+0x190>
    8ede:	01448c33          	add	s8,s1,s4
    8ee2:	000c4503          	lbu	a0,0(s8)
    8ee6:	f3fff0ef          	jal	ra,8e24 <__hexdig_fun>
    8eea:	10050663          	beqz	a0,8ff6 <__gethex+0x192>
    8eee:	84e2                	mv	s1,s8
    8ef0:	03000793          	li	a5,48
    8ef4:	0004c503          	lbu	a0,0(s1)
    8ef8:	00f50b63          	beq	a0,a5,8f0e <__gethex+0xaa>
    8efc:	f29ff0ef          	jal	ra,8e24 <__hexdig_fun>
    8f00:	4785                	li	a5,1
    8f02:	00153993          	seqz	s3,a0
    8f06:	8ce2                	mv	s9,s8
    8f08:	c43e                	sw	a5,8(sp)
    8f0a:	8c26                	mv	s8,s1
    8f0c:	a021                	j	8f14 <__gethex+0xb0>
    8f0e:	0485                	addi	s1,s1,1
    8f10:	b7d5                	j	8ef4 <__gethex+0x90>
    8f12:	0c05                	addi	s8,s8,1
    8f14:	000c4503          	lbu	a0,0(s8)
    8f18:	f0dff0ef          	jal	ra,8e24 <__hexdig_fun>
    8f1c:	f97d                	bnez	a0,8f12 <__gethex+0xae>
    8f1e:	8652                	mv	a2,s4
    8f20:	85de                	mv	a1,s7
    8f22:	8562                	mv	a0,s8
    8f24:	213010ef          	jal	ra,a936 <strncmp>
    8f28:	e911                	bnez	a0,8f3c <__gethex+0xd8>
    8f2a:	000c9c63          	bnez	s9,8f42 <__gethex+0xde>
    8f2e:	9c52                	add	s8,s8,s4
    8f30:	8ce2                	mv	s9,s8
    8f32:	000c4503          	lbu	a0,0(s8)
    8f36:	eefff0ef          	jal	ra,8e24 <__hexdig_fun>
    8f3a:	e95d                	bnez	a0,8ff0 <__gethex+0x18c>
    8f3c:	4401                	li	s0,0
    8f3e:	000c8563          	beqz	s9,8f48 <__gethex+0xe4>
    8f42:	418c8433          	sub	s0,s9,s8
    8f46:	040a                	slli	s0,s0,0x2
    8f48:	000c4783          	lbu	a5,0(s8)
    8f4c:	05000713          	li	a4,80
    8f50:	00e78763          	beq	a5,a4,8f5e <__gethex+0xfa>
    8f54:	07000613          	li	a2,112
    8f58:	8ce2                	mv	s9,s8
    8f5a:	06c79063          	bne	a5,a2,8fba <__gethex+0x156>
    8f5e:	001c4783          	lbu	a5,1(s8)
    8f62:	02b00713          	li	a4,43
    8f66:	08e78b63          	beq	a5,a4,8ffc <__gethex+0x198>
    8f6a:	02d00713          	li	a4,45
    8f6e:	08e78b63          	beq	a5,a4,9004 <__gethex+0x1a0>
    8f72:	001c0c93          	addi	s9,s8,1
    8f76:	4d01                	li	s10,0
    8f78:	000cc503          	lbu	a0,0(s9)
    8f7c:	ea9ff0ef          	jal	ra,8e24 <__hexdig_fun>
    8f80:	fff50793          	addi	a5,a0,-1
    8f84:	0ff7f793          	andi	a5,a5,255
    8f88:	45e1                	li	a1,24
    8f8a:	08f5e463          	bltu	a1,a5,9012 <__gethex+0x1ae>
    8f8e:	ff050793          	addi	a5,a0,-16
    8f92:	0c85                	addi	s9,s9,1
    8f94:	000cc503          	lbu	a0,0(s9)
    8f98:	ca3e                	sw	a5,20(sp)
    8f9a:	e8bff0ef          	jal	ra,8e24 <__hexdig_fun>
    8f9e:	fff50593          	addi	a1,a0,-1
    8fa2:	0ff5f593          	andi	a1,a1,255
    8fa6:	4861                	li	a6,24
    8fa8:	47d2                	lw	a5,20(sp)
    8faa:	48a9                	li	a7,10
    8fac:	04b87e63          	bgeu	a6,a1,9008 <__gethex+0x1a4>
    8fb0:	000d0463          	beqz	s10,8fb8 <__gethex+0x154>
    8fb4:	40f007b3          	neg	a5,a5
    8fb8:	943e                	add	s0,s0,a5
    8fba:	019da023          	sw	s9,0(s11)
    8fbe:	04098c63          	beqz	s3,9016 <__gethex+0x1b2>
    8fc2:	47a2                	lw	a5,8(sp)
    8fc4:	4481                	li	s1,0
    8fc6:	e391                	bnez	a5,8fca <__gethex+0x166>
    8fc8:	4499                	li	s1,6
    8fca:	40f6                	lw	ra,92(sp)
    8fcc:	4466                	lw	s0,88(sp)
    8fce:	8526                	mv	a0,s1
    8fd0:	4946                	lw	s2,80(sp)
    8fd2:	44d6                	lw	s1,84(sp)
    8fd4:	49b6                	lw	s3,76(sp)
    8fd6:	4a26                	lw	s4,72(sp)
    8fd8:	4a96                	lw	s5,68(sp)
    8fda:	4b06                	lw	s6,64(sp)
    8fdc:	5bf2                	lw	s7,60(sp)
    8fde:	5c62                	lw	s8,56(sp)
    8fe0:	5cd2                	lw	s9,52(sp)
    8fe2:	5d42                	lw	s10,48(sp)
    8fe4:	5db2                	lw	s11,44(sp)
    8fe6:	6125                	addi	sp,sp,96
    8fe8:	8082                	ret
    8fea:	4981                	li	s3,0
    8fec:	4c81                	li	s9,0
    8fee:	bf31                	j	8f0a <__gethex+0xa6>
    8ff0:	0c05                	addi	s8,s8,1
    8ff2:	b781                	j	8f32 <__gethex+0xce>
    8ff4:	8c26                	mv	s8,s1
    8ff6:	4401                	li	s0,0
    8ff8:	4985                	li	s3,1
    8ffa:	b7b9                	j	8f48 <__gethex+0xe4>
    8ffc:	4d01                	li	s10,0
    8ffe:	002c0c93          	addi	s9,s8,2
    9002:	bf9d                	j	8f78 <__gethex+0x114>
    9004:	4d05                	li	s10,1
    9006:	bfe5                	j	8ffe <__gethex+0x19a>
    9008:	031787b3          	mul	a5,a5,a7
    900c:	97aa                	add	a5,a5,a0
    900e:	17c1                	addi	a5,a5,-16
    9010:	b749                	j	8f92 <__gethex+0x12e>
    9012:	8ce2                	mv	s9,s8
    9014:	b75d                	j	8fba <__gethex+0x156>
    9016:	409c07b3          	sub	a5,s8,s1
    901a:	17fd                	addi	a5,a5,-1
    901c:	4581                	li	a1,0
    901e:	471d                	li	a4,7
    9020:	0af74463          	blt	a4,a5,90c8 <__gethex+0x264>
    9024:	8556                	mv	a0,s5
    9026:	2501                	jal	9626 <_Balloc>
    9028:	4605                	li	a2,1
    902a:	01450993          	addi	s3,a0,20
    902e:	414607b3          	sub	a5,a2,s4
    9032:	8daa                	mv	s11,a0
    9034:	8d4e                	mv	s10,s3
    9036:	4881                	li	a7,0
    9038:	4c81                	li	s9,0
    903a:	ca3e                	sw	a5,20(sp)
    903c:	0984e963          	bltu	s1,s8,90ce <__gethex+0x26a>
    9040:	004d0513          	addi	a0,s10,4
    9044:	41350533          	sub	a0,a0,s3
    9048:	8509                	srai	a0,a0,0x2
    904a:	019d2023          	sw	s9,0(s10)
    904e:	00ada823          	sw	a0,16(s11)
    9052:	00551493          	slli	s1,a0,0x5
    9056:	8566                	mv	a0,s9
    9058:	7dc000ef          	jal	ra,9834 <__hi0bits>
    905c:	00092b83          	lw	s7,0(s2)
    9060:	8c89                	sub	s1,s1,a0
    9062:	0c9bd863          	bge	s7,s1,9132 <__gethex+0x2ce>
    9066:	417484b3          	sub	s1,s1,s7
    906a:	85a6                	mv	a1,s1
    906c:	856e                	mv	a0,s11
    906e:	6ff000ef          	jal	ra,9f6c <__any_on>
    9072:	8a2a                	mv	s4,a0
    9074:	c905                	beqz	a0,90a4 <__gethex+0x240>
    9076:	fff48613          	addi	a2,s1,-1
    907a:	40565693          	srai	a3,a2,0x5
    907e:	068a                	slli	a3,a3,0x2
    9080:	96ce                	add	a3,a3,s3
    9082:	4294                	lw	a3,0(a3)
    9084:	4705                	li	a4,1
    9086:	00c71733          	sll	a4,a4,a2
    908a:	8f75                	and	a4,a4,a3
    908c:	4a05                	li	s4,1
    908e:	cb19                	beqz	a4,90a4 <__gethex+0x240>
    9090:	00ca5963          	bge	s4,a2,90a2 <__gethex+0x23e>
    9094:	ffe48593          	addi	a1,s1,-2
    9098:	856e                	mv	a0,s11
    909a:	6d3000ef          	jal	ra,9f6c <__any_on>
    909e:	4a0d                	li	s4,3
    90a0:	e111                	bnez	a0,90a4 <__gethex+0x240>
    90a2:	4a09                	li	s4,2
    90a4:	85a6                	mv	a1,s1
    90a6:	856e                	mv	a0,s11
    90a8:	d07ff0ef          	jal	ra,8dae <rshift>
    90ac:	9426                	add	s0,s0,s1
    90ae:	00892703          	lw	a4,8(s2)
    90b2:	08875f63          	bge	a4,s0,9150 <__gethex+0x2ec>
    90b6:	85ee                	mv	a1,s11
    90b8:	8556                	mv	a0,s5
    90ba:	2be5                	jal	96b2 <_Bfree>
    90bc:	4792                	lw	a5,4(sp)
    90be:	0a300493          	li	s1,163
    90c2:	0007a023          	sw	zero,0(a5)
    90c6:	b711                	j	8fca <__gethex+0x166>
    90c8:	0585                	addi	a1,a1,1
    90ca:	8785                	srai	a5,a5,0x1
    90cc:	bf91                	j	9020 <__gethex+0x1bc>
    90ce:	fffc0793          	addi	a5,s8,-1
    90d2:	c43e                	sw	a5,8(sp)
    90d4:	fffc4603          	lbu	a2,-1(s8)
    90d8:	47c2                	lw	a5,16(sp)
    90da:	02f60963          	beq	a2,a5,910c <__gethex+0x2a8>
    90de:	02000793          	li	a5,32
    90e2:	00f89763          	bne	a7,a5,90f0 <__gethex+0x28c>
    90e6:	019d2023          	sw	s9,0(s10)
    90ea:	4881                	li	a7,0
    90ec:	0d11                	addi	s10,s10,4
    90ee:	4c81                	li	s9,0
    90f0:	fffc4503          	lbu	a0,-1(s8)
    90f4:	cc46                	sw	a7,24(sp)
    90f6:	d2fff0ef          	jal	ra,8e24 <__hexdig_fun>
    90fa:	48e2                	lw	a7,24(sp)
    90fc:	893d                	andi	a0,a0,15
    90fe:	4322                	lw	t1,8(sp)
    9100:	01151533          	sll	a0,a0,a7
    9104:	00acecb3          	or	s9,s9,a0
    9108:	0891                	addi	a7,a7,4
    910a:	a015                	j	912e <__gethex+0x2ca>
    910c:	4752                	lw	a4,20(sp)
    910e:	fffc0793          	addi	a5,s8,-1
    9112:	00e78333          	add	t1,a5,a4
    9116:	fc9364e3          	bltu	t1,s1,90de <__gethex+0x27a>
    911a:	851a                	mv	a0,t1
    911c:	8652                	mv	a2,s4
    911e:	85de                	mv	a1,s7
    9120:	ce46                	sw	a7,28(sp)
    9122:	cc1a                	sw	t1,24(sp)
    9124:	013010ef          	jal	ra,a936 <strncmp>
    9128:	4362                	lw	t1,24(sp)
    912a:	48f2                	lw	a7,28(sp)
    912c:	f94d                	bnez	a0,90de <__gethex+0x27a>
    912e:	8c1a                	mv	s8,t1
    9130:	b731                	j	903c <__gethex+0x1d8>
    9132:	4a01                	li	s4,0
    9134:	f774dde3          	bge	s1,s7,90ae <__gethex+0x24a>
    9138:	409b84b3          	sub	s1,s7,s1
    913c:	85ee                	mv	a1,s11
    913e:	8626                	mv	a2,s1
    9140:	8556                	mv	a0,s5
    9142:	1c1000ef          	jal	ra,9b02 <__lshift>
    9146:	8daa                	mv	s11,a0
    9148:	8c05                	sub	s0,s0,s1
    914a:	01450993          	addi	s3,a0,20
    914e:	b785                	j	90ae <__gethex+0x24a>
    9150:	00492703          	lw	a4,4(s2)
    9154:	0ee45563          	bge	s0,a4,923e <__gethex+0x3da>
    9158:	40870433          	sub	s0,a4,s0
    915c:	07744563          	blt	s0,s7,91c6 <__gethex+0x362>
    9160:	00c92703          	lw	a4,12(s2)
    9164:	4689                	li	a3,2
    9166:	04d70a63          	beq	a4,a3,91ba <__gethex+0x356>
    916a:	468d                	li	a3,3
    916c:	04d70a63          	beq	a4,a3,91c0 <__gethex+0x35c>
    9170:	4685                	li	a3,1
    9172:	02d71b63          	bne	a4,a3,91a8 <__gethex+0x344>
    9176:	028b9963          	bne	s7,s0,91a8 <__gethex+0x344>
    917a:	02eb9163          	bne	s7,a4,919c <__gethex+0x338>
    917e:	00492703          	lw	a4,4(s2)
    9182:	47b2                	lw	a5,12(sp)
    9184:	06200493          	li	s1,98
    9188:	c398                	sw	a4,0(a5)
    918a:	4705                	li	a4,1
    918c:	4792                	lw	a5,4(sp)
    918e:	00eda823          	sw	a4,16(s11)
    9192:	00e9a023          	sw	a4,0(s3)
    9196:	01b7a023          	sw	s11,0(a5)
    919a:	bd05                	j	8fca <__gethex+0x166>
    919c:	fffb8593          	addi	a1,s7,-1
    91a0:	856e                	mv	a0,s11
    91a2:	5cb000ef          	jal	ra,9f6c <__any_on>
    91a6:	fd61                	bnez	a0,917e <__gethex+0x31a>
    91a8:	85ee                	mv	a1,s11
    91aa:	8556                	mv	a0,s5
    91ac:	2319                	jal	96b2 <_Bfree>
    91ae:	4792                	lw	a5,4(sp)
    91b0:	05000493          	li	s1,80
    91b4:	0007a023          	sw	zero,0(a5)
    91b8:	bd09                	j	8fca <__gethex+0x166>
    91ba:	fe0b17e3          	bnez	s6,91a8 <__gethex+0x344>
    91be:	b7c1                	j	917e <__gethex+0x31a>
    91c0:	fa0b1fe3          	bnez	s6,917e <__gethex+0x31a>
    91c4:	b7d5                	j	91a8 <__gethex+0x344>
    91c6:	fff40493          	addi	s1,s0,-1
    91ca:	060a1863          	bnez	s4,923a <__gethex+0x3d6>
    91ce:	c491                	beqz	s1,91da <__gethex+0x376>
    91d0:	85a6                	mv	a1,s1
    91d2:	856e                	mv	a0,s11
    91d4:	599000ef          	jal	ra,9f6c <__any_on>
    91d8:	8a2a                	mv	s4,a0
    91da:	4054d713          	srai	a4,s1,0x5
    91de:	070a                	slli	a4,a4,0x2
    91e0:	974e                	add	a4,a4,s3
    91e2:	4318                	lw	a4,0(a4)
    91e4:	4585                	li	a1,1
    91e6:	009595b3          	sll	a1,a1,s1
    91ea:	8df9                	and	a1,a1,a4
    91ec:	c199                	beqz	a1,91f2 <__gethex+0x38e>
    91ee:	002a6a13          	ori	s4,s4,2
    91f2:	85a2                	mv	a1,s0
    91f4:	856e                	mv	a0,s11
    91f6:	408b8bb3          	sub	s7,s7,s0
    91fa:	bb5ff0ef          	jal	ra,8dae <rshift>
    91fe:	00492403          	lw	s0,4(s2)
    9202:	4489                	li	s1,2
    9204:	080a0b63          	beqz	s4,929a <__gethex+0x436>
    9208:	00c92703          	lw	a4,12(s2)
    920c:	4689                	li	a3,2
    920e:	02d70a63          	beq	a4,a3,9242 <__gethex+0x3de>
    9212:	468d                	li	a3,3
    9214:	02d70a63          	beq	a4,a3,9248 <__gethex+0x3e4>
    9218:	4685                	li	a3,1
    921a:	00d71d63          	bne	a4,a3,9234 <__gethex+0x3d0>
    921e:	002a7713          	andi	a4,s4,2
    9222:	cb09                	beqz	a4,9234 <__gethex+0x3d0>
    9224:	0009a703          	lw	a4,0(s3)
    9228:	00ea6a33          	or	s4,s4,a4
    922c:	001a7a13          	andi	s4,s4,1
    9230:	000a1e63          	bnez	s4,924c <__gethex+0x3e8>
    9234:	0104e493          	ori	s1,s1,16
    9238:	a08d                	j	929a <__gethex+0x436>
    923a:	4a05                	li	s4,1
    923c:	bf79                	j	91da <__gethex+0x376>
    923e:	4485                	li	s1,1
    9240:	b7d1                	j	9204 <__gethex+0x3a0>
    9242:	4705                	li	a4,1
    9244:	41670b33          	sub	s6,a4,s6
    9248:	fe0b06e3          	beqz	s6,9234 <__gethex+0x3d0>
    924c:	010da983          	lw	s3,16(s11)
    9250:	014d8713          	addi	a4,s11,20
    9254:	55fd                	li	a1,-1
    9256:	00299a13          	slli	s4,s3,0x2
    925a:	01470633          	add	a2,a4,s4
    925e:	4314                	lw	a3,0(a4)
    9260:	04b68363          	beq	a3,a1,92a6 <__gethex+0x442>
    9264:	0685                	addi	a3,a3,1
    9266:	c314                	sw	a3,0(a4)
    9268:	4689                	li	a3,2
    926a:	014d8713          	addi	a4,s11,20
    926e:	08d49363          	bne	s1,a3,92f4 <__gethex+0x490>
    9272:	00092683          	lw	a3,0(s2)
    9276:	16fd                	addi	a3,a3,-1
    9278:	01769f63          	bne	a3,s7,9296 <__gethex+0x432>
    927c:	405bd693          	srai	a3,s7,0x5
    9280:	068a                	slli	a3,a3,0x2
    9282:	9736                	add	a4,a4,a3
    9284:	4318                	lw	a4,0(a4)
    9286:	4685                	li	a3,1
    9288:	01769bb3          	sll	s7,a3,s7
    928c:	00ebfbb3          	and	s7,s7,a4
    9290:	000b8363          	beqz	s7,9296 <__gethex+0x432>
    9294:	4485                	li	s1,1
    9296:	0204e493          	ori	s1,s1,32
    929a:	4792                	lw	a5,4(sp)
    929c:	01b7a023          	sw	s11,0(a5)
    92a0:	47b2                	lw	a5,12(sp)
    92a2:	c380                	sw	s0,0(a5)
    92a4:	b31d                	j	8fca <__gethex+0x166>
    92a6:	0711                	addi	a4,a4,4
    92a8:	fe072e23          	sw	zero,-4(a4)
    92ac:	fac769e3          	bltu	a4,a2,925e <__gethex+0x3fa>
    92b0:	008da703          	lw	a4,8(s11)
    92b4:	02e9c463          	blt	s3,a4,92dc <__gethex+0x478>
    92b8:	004da583          	lw	a1,4(s11)
    92bc:	8556                	mv	a0,s5
    92be:	0585                	addi	a1,a1,1
    92c0:	269d                	jal	9626 <_Balloc>
    92c2:	010da603          	lw	a2,16(s11)
    92c6:	00cd8593          	addi	a1,s11,12
    92ca:	8b2a                	mv	s6,a0
    92cc:	0609                	addi	a2,a2,2
    92ce:	060a                	slli	a2,a2,0x2
    92d0:	0531                	addi	a0,a0,12
    92d2:	2c79                	jal	9570 <memcpy>
    92d4:	85ee                	mv	a1,s11
    92d6:	8556                	mv	a0,s5
    92d8:	2ee9                	jal	96b2 <_Bfree>
    92da:	8dda                	mv	s11,s6
    92dc:	010da703          	lw	a4,16(s11)
    92e0:	00170693          	addi	a3,a4,1
    92e4:	0711                	addi	a4,a4,4
    92e6:	070a                	slli	a4,a4,0x2
    92e8:	00dda823          	sw	a3,16(s11)
    92ec:	976e                	add	a4,a4,s11
    92ee:	4685                	li	a3,1
    92f0:	c354                	sw	a3,4(a4)
    92f2:	bf9d                	j	9268 <__gethex+0x404>
    92f4:	010da683          	lw	a3,16(s11)
    92f8:	00d9dc63          	bge	s3,a3,9310 <__gethex+0x4ac>
    92fc:	4585                	li	a1,1
    92fe:	856e                	mv	a0,s11
    9300:	aafff0ef          	jal	ra,8dae <rshift>
    9304:	00892703          	lw	a4,8(s2)
    9308:	0405                	addi	s0,s0,1
    930a:	f88755e3          	bge	a4,s0,9294 <__gethex+0x430>
    930e:	b365                	j	90b6 <__gethex+0x252>
    9310:	01fbfb93          	andi	s7,s7,31
    9314:	4485                	li	s1,1
    9316:	f80b80e3          	beqz	s7,9296 <__gethex+0x432>
    931a:	9752                	add	a4,a4,s4
    931c:	ffc72503          	lw	a0,-4(a4)
    9320:	2b11                	jal	9834 <__hi0bits>
    9322:	02000713          	li	a4,32
    9326:	41770bb3          	sub	s7,a4,s7
    932a:	fd7549e3          	blt	a0,s7,92fc <__gethex+0x498>
    932e:	b7a5                	j	9296 <__gethex+0x432>

00009330 <L_shift>:
    9330:	47a1                	li	a5,8
    9332:	40c78633          	sub	a2,a5,a2
    9336:	060a                	slli	a2,a2,0x2
    9338:	02000693          	li	a3,32
    933c:	8e91                	sub	a3,a3,a2
    933e:	415c                	lw	a5,4(a0)
    9340:	4118                	lw	a4,0(a0)
    9342:	0511                	addi	a0,a0,4
    9344:	00d79833          	sll	a6,a5,a3
    9348:	01076733          	or	a4,a4,a6
    934c:	00c7d7b3          	srl	a5,a5,a2
    9350:	fee52e23          	sw	a4,-4(a0)
    9354:	c11c                	sw	a5,0(a0)
    9356:	feb564e3          	bltu	a0,a1,933e <L_shift+0xe>
    935a:	8082                	ret

0000935c <__match>:
    935c:	411c                	lw	a5,0(a0)
    935e:	4865                	li	a6,25
    9360:	0585                	addi	a1,a1,1
    9362:	fff5c603          	lbu	a2,-1(a1)
    9366:	0785                	addi	a5,a5,1
    9368:	e601                	bnez	a2,9370 <__match+0x14>
    936a:	c11c                	sw	a5,0(a0)
    936c:	4505                	li	a0,1
    936e:	8082                	ret
    9370:	0007c703          	lbu	a4,0(a5)
    9374:	fbf70693          	addi	a3,a4,-65
    9378:	0ff6f693          	andi	a3,a3,255
    937c:	00d86463          	bltu	a6,a3,9384 <__match+0x28>
    9380:	02070713          	addi	a4,a4,32
    9384:	fcc70ee3          	beq	a4,a2,9360 <__match+0x4>
    9388:	4501                	li	a0,0
    938a:	8082                	ret

0000938c <__hexnan>:
    938c:	715d                	addi	sp,sp,-80
    938e:	dc52                	sw	s4,56(sp)
    9390:	0005aa03          	lw	s4,0(a1)
    9394:	c2a6                	sw	s1,68(sp)
    9396:	de4e                	sw	s3,60(sp)
    9398:	405a5493          	srai	s1,s4,0x5
    939c:	d85a                	sw	s6,48(sp)
    939e:	048a                	slli	s1,s1,0x2
    93a0:	c686                	sw	ra,76(sp)
    93a2:	c4a2                	sw	s0,72(sp)
    93a4:	c0ca                	sw	s2,64(sp)
    93a6:	da56                	sw	s5,52(sp)
    93a8:	d65e                	sw	s7,44(sp)
    93aa:	d462                	sw	s8,40(sp)
    93ac:	d266                	sw	s9,36(sp)
    93ae:	d06a                	sw	s10,32(sp)
    93b0:	ce6e                	sw	s11,28(sp)
    93b2:	01fa7a13          	andi	s4,s4,31
    93b6:	8b2a                	mv	s6,a0
    93b8:	89b2                	mv	s3,a2
    93ba:	94b2                	add	s1,s1,a2
    93bc:	000a0363          	beqz	s4,93c2 <__hexnan+0x36>
    93c0:	0491                	addi	s1,s1,4
    93c2:	000b2783          	lw	a5,0(s6)
    93c6:	ffc48913          	addi	s2,s1,-4
    93ca:	fe04ae23          	sw	zero,-4(s1)
    93ce:	8dca                	mv	s11,s2
    93d0:	844a                	mv	s0,s2
    93d2:	4601                	li	a2,0
    93d4:	4a81                	li	s5,0
    93d6:	4b81                	li	s7,0
    93d8:	4c21                	li	s8,8
    93da:	02000c93          	li	s9,32
    93de:	4d1d                	li	s10,7
    93e0:	0017c683          	lbu	a3,1(a5)
    93e4:	00178713          	addi	a4,a5,1
    93e8:	c03a                	sw	a4,0(sp)
    93ea:	cab1                	beqz	a3,943e <__hexnan+0xb2>
    93ec:	8536                	mv	a0,a3
    93ee:	c632                	sw	a2,12(sp)
    93f0:	c43e                	sw	a5,8(sp)
    93f2:	c236                	sw	a3,4(sp)
    93f4:	a31ff0ef          	jal	ra,8e24 <__hexdig_fun>
    93f8:	4632                	lw	a2,12(sp)
    93fa:	e559                	bnez	a0,9488 <__hexnan+0xfc>
    93fc:	4692                	lw	a3,4(sp)
    93fe:	47a2                	lw	a5,8(sp)
    9400:	02dce863          	bltu	s9,a3,9430 <__hexnan+0xa4>
    9404:	037ad463          	bge	s5,s7,942c <__hexnan+0xa0>
    9408:	01b47863          	bgeu	s0,s11,9418 <__hexnan+0x8c>
    940c:	00cd4663          	blt	s10,a2,9418 <__hexnan+0x8c>
    9410:	85ee                	mv	a1,s11
    9412:	8522                	mv	a0,s0
    9414:	f1dff0ef          	jal	ra,9330 <L_shift>
    9418:	4621                	li	a2,8
    941a:	0089f963          	bgeu	s3,s0,942c <__hexnan+0xa0>
    941e:	ffc40d93          	addi	s11,s0,-4
    9422:	fe042e23          	sw	zero,-4(s0)
    9426:	8ade                	mv	s5,s7
    9428:	846e                	mv	s0,s11
    942a:	4601                	li	a2,0
    942c:	4782                	lw	a5,0(sp)
    942e:	bf4d                	j	93e0 <__hexnan+0x54>
    9430:	02900593          	li	a1,41
    9434:	08b69c63          	bne	a3,a1,94cc <__hexnan+0x140>
    9438:	0789                	addi	a5,a5,2
    943a:	00fb2023          	sw	a5,0(s6)
    943e:	080b8763          	beqz	s7,94cc <__hexnan+0x140>
    9442:	01b47963          	bgeu	s0,s11,9454 <__hexnan+0xc8>
    9446:	479d                	li	a5,7
    9448:	00c7c663          	blt	a5,a2,9454 <__hexnan+0xc8>
    944c:	85ee                	mv	a1,s11
    944e:	8522                	mv	a0,s0
    9450:	ee1ff0ef          	jal	ra,9330 <L_shift>
    9454:	0489fa63          	bgeu	s3,s0,94a8 <__hexnan+0x11c>
    9458:	87ce                	mv	a5,s3
    945a:	0411                	addi	s0,s0,4
    945c:	ffc42703          	lw	a4,-4(s0)
    9460:	0791                	addi	a5,a5,4
    9462:	fee7ae23          	sw	a4,-4(a5)
    9466:	fe897ae3          	bgeu	s2,s0,945a <__hexnan+0xce>
    946a:	0791                	addi	a5,a5,4
    946c:	fe07ae23          	sw	zero,-4(a5)
    9470:	fef97de3          	bgeu	s2,a5,946a <__hexnan+0xde>
    9474:	00092783          	lw	a5,0(s2)
    9478:	e791                	bnez	a5,9484 <__hexnan+0xf8>
    947a:	05391763          	bne	s2,s3,94c8 <__hexnan+0x13c>
    947e:	4785                	li	a5,1
    9480:	00f92023          	sw	a5,0(s2)
    9484:	4515                	li	a0,5
    9486:	a0a1                	j	94ce <__hexnan+0x142>
    9488:	0605                	addi	a2,a2,1
    948a:	0b85                	addi	s7,s7,1
    948c:	00cc5863          	bge	s8,a2,949c <__hexnan+0x110>
    9490:	f889fee3          	bgeu	s3,s0,942c <__hexnan+0xa0>
    9494:	fe042e23          	sw	zero,-4(s0)
    9498:	4605                	li	a2,1
    949a:	1471                	addi	s0,s0,-4
    949c:	401c                	lw	a5,0(s0)
    949e:	893d                	andi	a0,a0,15
    94a0:	0792                	slli	a5,a5,0x4
    94a2:	8fc9                	or	a5,a5,a0
    94a4:	c01c                	sw	a5,0(s0)
    94a6:	b759                	j	942c <__hexnan+0xa0>
    94a8:	fc0a06e3          	beqz	s4,9474 <__hexnan+0xe8>
    94ac:	02000793          	li	a5,32
    94b0:	414787b3          	sub	a5,a5,s4
    94b4:	5a7d                	li	s4,-1
    94b6:	00fa57b3          	srl	a5,s4,a5
    94ba:	ffc4aa03          	lw	s4,-4(s1)
    94be:	00fa7a33          	and	s4,s4,a5
    94c2:	ff44ae23          	sw	s4,-4(s1)
    94c6:	b77d                	j	9474 <__hexnan+0xe8>
    94c8:	1971                	addi	s2,s2,-4
    94ca:	b76d                	j	9474 <__hexnan+0xe8>
    94cc:	4511                	li	a0,4
    94ce:	40b6                	lw	ra,76(sp)
    94d0:	4426                	lw	s0,72(sp)
    94d2:	4496                	lw	s1,68(sp)
    94d4:	4906                	lw	s2,64(sp)
    94d6:	59f2                	lw	s3,60(sp)
    94d8:	5a62                	lw	s4,56(sp)
    94da:	5ad2                	lw	s5,52(sp)
    94dc:	5b42                	lw	s6,48(sp)
    94de:	5bb2                	lw	s7,44(sp)
    94e0:	5c22                	lw	s8,40(sp)
    94e2:	5c92                	lw	s9,36(sp)
    94e4:	5d02                	lw	s10,32(sp)
    94e6:	4df2                	lw	s11,28(sp)
    94e8:	6161                	addi	sp,sp,80
    94ea:	8082                	ret

000094ec <__locale_ctype_ptr_l>:
    94ec:	0ec52503          	lw	a0,236(a0)
    94f0:	8082                	ret

000094f2 <__localeconv_l>:
    94f2:	0f050513          	addi	a0,a0,240
    94f6:	8082                	ret

000094f8 <_localeconv_r>:
    94f8:	81018793          	addi	a5,gp,-2032 # 200001f0 <_impure_ptr>
    94fc:	439c                	lw	a5,0(a5)
    94fe:	5388                	lw	a0,32(a5)
    9500:	e509                	bnez	a0,950a <_localeconv_r+0x12>
    9502:	1fff7517          	auipc	a0,0x1fff7
    9506:	b6e50513          	addi	a0,a0,-1170 # 20000070 <__global_locale>
    950a:	0f050513          	addi	a0,a0,240
    950e:	8082                	ret

00009510 <malloc>:
    9510:	81018793          	addi	a5,gp,-2032 # 200001f0 <_impure_ptr>
    9514:	85aa                	mv	a1,a0
    9516:	4388                	lw	a0,0(a5)
    9518:	3690006f          	j	a080 <_malloc_r>

0000951c <__ascii_mbtowc>:
    951c:	e185                	bnez	a1,953c <__ascii_mbtowc+0x20>
    951e:	1141                	addi	sp,sp,-16
    9520:	006c                	addi	a1,sp,12
    9522:	4501                	li	a0,0
    9524:	ca11                	beqz	a2,9538 <__ascii_mbtowc+0x1c>
    9526:	5579                	li	a0,-2
    9528:	ca81                	beqz	a3,9538 <__ascii_mbtowc+0x1c>
    952a:	00064783          	lbu	a5,0(a2) # 10000 <_data_lma+0x2dac>
    952e:	c19c                	sw	a5,0(a1)
    9530:	00064503          	lbu	a0,0(a2)
    9534:	00a03533          	snez	a0,a0
    9538:	0141                	addi	sp,sp,16
    953a:	8082                	ret
    953c:	4501                	li	a0,0
    953e:	ca19                	beqz	a2,9554 <__ascii_mbtowc+0x38>
    9540:	5579                	li	a0,-2
    9542:	ca89                	beqz	a3,9554 <__ascii_mbtowc+0x38>
    9544:	00064783          	lbu	a5,0(a2)
    9548:	c19c                	sw	a5,0(a1)
    954a:	00064503          	lbu	a0,0(a2)
    954e:	00a03533          	snez	a0,a0
    9552:	8082                	ret
    9554:	8082                	ret

00009556 <memchr>:
    9556:	0ff5f593          	andi	a1,a1,255
    955a:	962a                	add	a2,a2,a0
    955c:	00c51463          	bne	a0,a2,9564 <memchr+0xe>
    9560:	4501                	li	a0,0
    9562:	8082                	ret
    9564:	00054783          	lbu	a5,0(a0)
    9568:	feb78de3          	beq	a5,a1,9562 <memchr+0xc>
    956c:	0505                	addi	a0,a0,1
    956e:	b7fd                	j	955c <memchr+0x6>

00009570 <memcpy>:
    9570:	00a5c7b3          	xor	a5,a1,a0
    9574:	8b8d                	andi	a5,a5,3
    9576:	00c50733          	add	a4,a0,a2
    957a:	e781                	bnez	a5,9582 <memcpy+0x12>
    957c:	478d                	li	a5,3
    957e:	00c7ee63          	bltu	a5,a2,959a <memcpy+0x2a>
    9582:	87aa                	mv	a5,a0
    9584:	0ae57063          	bgeu	a0,a4,9624 <memcpy+0xb4>
    9588:	0005c683          	lbu	a3,0(a1)
    958c:	0785                	addi	a5,a5,1
    958e:	0585                	addi	a1,a1,1
    9590:	fed78fa3          	sb	a3,-1(a5)
    9594:	fee7eae3          	bltu	a5,a4,9588 <memcpy+0x18>
    9598:	8082                	ret
    959a:	00357693          	andi	a3,a0,3
    959e:	87aa                	mv	a5,a0
    95a0:	ca91                	beqz	a3,95b4 <memcpy+0x44>
    95a2:	0005c683          	lbu	a3,0(a1)
    95a6:	0785                	addi	a5,a5,1
    95a8:	0585                	addi	a1,a1,1
    95aa:	fed78fa3          	sb	a3,-1(a5)
    95ae:	0037f693          	andi	a3,a5,3
    95b2:	b7fd                	j	95a0 <memcpy+0x30>
    95b4:	ffc77693          	andi	a3,a4,-4
    95b8:	fe068613          	addi	a2,a3,-32
    95bc:	06c7f063          	bgeu	a5,a2,961c <memcpy+0xac>
    95c0:	0005a383          	lw	t2,0(a1)
    95c4:	0045a283          	lw	t0,4(a1)
    95c8:	0085af83          	lw	t6,8(a1)
    95cc:	00c5af03          	lw	t5,12(a1)
    95d0:	0105ae83          	lw	t4,16(a1)
    95d4:	0145ae03          	lw	t3,20(a1)
    95d8:	0185a303          	lw	t1,24(a1)
    95dc:	01c5a883          	lw	a7,28(a1)
    95e0:	02458593          	addi	a1,a1,36
    95e4:	0077a023          	sw	t2,0(a5)
    95e8:	ffc5a803          	lw	a6,-4(a1)
    95ec:	0057a223          	sw	t0,4(a5)
    95f0:	01f7a423          	sw	t6,8(a5)
    95f4:	01e7a623          	sw	t5,12(a5)
    95f8:	01d7a823          	sw	t4,16(a5)
    95fc:	01c7aa23          	sw	t3,20(a5)
    9600:	0067ac23          	sw	t1,24(a5)
    9604:	0117ae23          	sw	a7,28(a5)
    9608:	02478793          	addi	a5,a5,36
    960c:	ff07ae23          	sw	a6,-4(a5)
    9610:	b775                	j	95bc <memcpy+0x4c>
    9612:	4190                	lw	a2,0(a1)
    9614:	0791                	addi	a5,a5,4
    9616:	0591                	addi	a1,a1,4
    9618:	fec7ae23          	sw	a2,-4(a5)
    961c:	fed7ebe3          	bltu	a5,a3,9612 <memcpy+0xa2>
    9620:	f6e7e4e3          	bltu	a5,a4,9588 <memcpy+0x18>
    9624:	8082                	ret

00009626 <_Balloc>:
    9626:	515c                	lw	a5,36(a0)
    9628:	1141                	addi	sp,sp,-16
    962a:	c422                	sw	s0,8(sp)
    962c:	c04a                	sw	s2,0(sp)
    962e:	c606                	sw	ra,12(sp)
    9630:	c226                	sw	s1,4(sp)
    9632:	842a                	mv	s0,a0
    9634:	892e                	mv	s2,a1
    9636:	ef89                	bnez	a5,9650 <_Balloc+0x2a>
    9638:	4541                	li	a0,16
    963a:	ed7ff0ef          	jal	ra,9510 <malloc>
    963e:	d048                	sw	a0,36(s0)
    9640:	00052223          	sw	zero,4(a0)
    9644:	00052423          	sw	zero,8(a0)
    9648:	00052023          	sw	zero,0(a0)
    964c:	00052623          	sw	zero,12(a0)
    9650:	5044                	lw	s1,36(s0)
    9652:	44dc                	lw	a5,12(s1)
    9654:	c79d                	beqz	a5,9682 <_Balloc+0x5c>
    9656:	5058                	lw	a4,36(s0)
    9658:	00291793          	slli	a5,s2,0x2
    965c:	4758                	lw	a4,12(a4)
    965e:	97ba                	add	a5,a5,a4
    9660:	4388                	lw	a0,0(a5)
    9662:	e129                	bnez	a0,96a4 <_Balloc+0x7e>
    9664:	4485                	li	s1,1
    9666:	012494b3          	sll	s1,s1,s2
    966a:	00548613          	addi	a2,s1,5
    966e:	060a                	slli	a2,a2,0x2
    9670:	4585                	li	a1,1
    9672:	8522                	mv	a0,s0
    9674:	13f000ef          	jal	ra,9fb2 <_calloc_r>
    9678:	cd19                	beqz	a0,9696 <_Balloc+0x70>
    967a:	01252223          	sw	s2,4(a0)
    967e:	c504                	sw	s1,8(a0)
    9680:	a025                	j	96a8 <_Balloc+0x82>
    9682:	02100613          	li	a2,33
    9686:	4591                	li	a1,4
    9688:	8522                	mv	a0,s0
    968a:	129000ef          	jal	ra,9fb2 <_calloc_r>
    968e:	505c                	lw	a5,36(s0)
    9690:	c4c8                	sw	a0,12(s1)
    9692:	47dc                	lw	a5,12(a5)
    9694:	f3e9                	bnez	a5,9656 <_Balloc+0x30>
    9696:	4501                	li	a0,0
    9698:	40b2                	lw	ra,12(sp)
    969a:	4422                	lw	s0,8(sp)
    969c:	4492                	lw	s1,4(sp)
    969e:	4902                	lw	s2,0(sp)
    96a0:	0141                	addi	sp,sp,16
    96a2:	8082                	ret
    96a4:	4118                	lw	a4,0(a0)
    96a6:	c398                	sw	a4,0(a5)
    96a8:	00052823          	sw	zero,16(a0)
    96ac:	00052623          	sw	zero,12(a0)
    96b0:	b7e5                	j	9698 <_Balloc+0x72>

000096b2 <_Bfree>:
    96b2:	515c                	lw	a5,36(a0)
    96b4:	1101                	addi	sp,sp,-32
    96b6:	cc22                	sw	s0,24(sp)
    96b8:	ce06                	sw	ra,28(sp)
    96ba:	842a                	mv	s0,a0
    96bc:	ef99                	bnez	a5,96da <_Bfree+0x28>
    96be:	4541                	li	a0,16
    96c0:	c62e                	sw	a1,12(sp)
    96c2:	e4fff0ef          	jal	ra,9510 <malloc>
    96c6:	45b2                	lw	a1,12(sp)
    96c8:	d048                	sw	a0,36(s0)
    96ca:	00052223          	sw	zero,4(a0)
    96ce:	00052423          	sw	zero,8(a0)
    96d2:	00052023          	sw	zero,0(a0)
    96d6:	00052623          	sw	zero,12(a0)
    96da:	c991                	beqz	a1,96ee <_Bfree+0x3c>
    96dc:	5054                	lw	a3,36(s0)
    96de:	41dc                	lw	a5,4(a1)
    96e0:	00279713          	slli	a4,a5,0x2
    96e4:	46dc                	lw	a5,12(a3)
    96e6:	97ba                	add	a5,a5,a4
    96e8:	4398                	lw	a4,0(a5)
    96ea:	c198                	sw	a4,0(a1)
    96ec:	c38c                	sw	a1,0(a5)
    96ee:	40f2                	lw	ra,28(sp)
    96f0:	4462                	lw	s0,24(sp)
    96f2:	6105                	addi	sp,sp,32
    96f4:	8082                	ret

000096f6 <__multadd>:
    96f6:	7179                	addi	sp,sp,-48
    96f8:	ce4e                	sw	s3,28(sp)
    96fa:	89aa                	mv	s3,a0
    96fc:	6541                	lui	a0,0x10
    96fe:	d422                	sw	s0,40(sp)
    9700:	d226                	sw	s1,36(sp)
    9702:	842e                	mv	s0,a1
    9704:	4984                	lw	s1,16(a1)
    9706:	d606                	sw	ra,44(sp)
    9708:	d04a                	sw	s2,32(sp)
    970a:	05d1                	addi	a1,a1,20
    970c:	4801                	li	a6,0
    970e:	157d                	addi	a0,a0,-1
    9710:	419c                	lw	a5,0(a1)
    9712:	0591                	addi	a1,a1,4
    9714:	0805                	addi	a6,a6,1
    9716:	00a7f733          	and	a4,a5,a0
    971a:	02c70733          	mul	a4,a4,a2
    971e:	83c1                	srli	a5,a5,0x10
    9720:	02c787b3          	mul	a5,a5,a2
    9724:	9736                	add	a4,a4,a3
    9726:	01075693          	srli	a3,a4,0x10
    972a:	8f69                	and	a4,a4,a0
    972c:	97b6                	add	a5,a5,a3
    972e:	0107d693          	srli	a3,a5,0x10
    9732:	07c2                	slli	a5,a5,0x10
    9734:	97ba                	add	a5,a5,a4
    9736:	fef5ae23          	sw	a5,-4(a1)
    973a:	fc984be3          	blt	a6,s1,9710 <__multadd+0x1a>
    973e:	c2a1                	beqz	a3,977e <__multadd+0x88>
    9740:	441c                	lw	a5,8(s0)
    9742:	02f4c763          	blt	s1,a5,9770 <__multadd+0x7a>
    9746:	404c                	lw	a1,4(s0)
    9748:	854e                	mv	a0,s3
    974a:	c636                	sw	a3,12(sp)
    974c:	0585                	addi	a1,a1,1
    974e:	ed9ff0ef          	jal	ra,9626 <_Balloc>
    9752:	4810                	lw	a2,16(s0)
    9754:	00c40593          	addi	a1,s0,12
    9758:	892a                	mv	s2,a0
    975a:	0609                	addi	a2,a2,2
    975c:	060a                	slli	a2,a2,0x2
    975e:	0531                	addi	a0,a0,12
    9760:	e11ff0ef          	jal	ra,9570 <memcpy>
    9764:	85a2                	mv	a1,s0
    9766:	854e                	mv	a0,s3
    9768:	f4bff0ef          	jal	ra,96b2 <_Bfree>
    976c:	46b2                	lw	a3,12(sp)
    976e:	844a                	mv	s0,s2
    9770:	00448793          	addi	a5,s1,4
    9774:	078a                	slli	a5,a5,0x2
    9776:	97a2                	add	a5,a5,s0
    9778:	c3d4                	sw	a3,4(a5)
    977a:	0485                	addi	s1,s1,1
    977c:	c804                	sw	s1,16(s0)
    977e:	8522                	mv	a0,s0
    9780:	50b2                	lw	ra,44(sp)
    9782:	5422                	lw	s0,40(sp)
    9784:	5492                	lw	s1,36(sp)
    9786:	5902                	lw	s2,32(sp)
    9788:	49f2                	lw	s3,28(sp)
    978a:	6145                	addi	sp,sp,48
    978c:	8082                	ret

0000978e <__s2b>:
    978e:	7179                	addi	sp,sp,-48
    9790:	00868793          	addi	a5,a3,8
    9794:	cc52                	sw	s4,24(sp)
    9796:	8a36                	mv	s4,a3
    9798:	46a5                	li	a3,9
    979a:	d422                	sw	s0,40(sp)
    979c:	d226                	sw	s1,36(sp)
    979e:	ce4e                	sw	s3,28(sp)
    97a0:	842e                	mv	s0,a1
    97a2:	02d7c7b3          	div	a5,a5,a3
    97a6:	d606                	sw	ra,44(sp)
    97a8:	d04a                	sw	s2,32(sp)
    97aa:	ca56                	sw	s5,20(sp)
    97ac:	89aa                	mv	s3,a0
    97ae:	84b2                	mv	s1,a2
    97b0:	4685                	li	a3,1
    97b2:	4581                	li	a1,0
    97b4:	04f6cc63          	blt	a3,a5,980c <__s2b+0x7e>
    97b8:	854e                	mv	a0,s3
    97ba:	c63a                	sw	a4,12(sp)
    97bc:	e6bff0ef          	jal	ra,9626 <_Balloc>
    97c0:	4732                	lw	a4,12(sp)
    97c2:	4785                	li	a5,1
    97c4:	c91c                	sw	a5,16(a0)
    97c6:	c958                	sw	a4,20(a0)
    97c8:	47a5                	li	a5,9
    97ca:	0497d463          	bge	a5,s1,9812 <__s2b+0x84>
    97ce:	00940a93          	addi	s5,s0,9
    97d2:	8956                	mv	s2,s5
    97d4:	9426                	add	s0,s0,s1
    97d6:	0905                	addi	s2,s2,1
    97d8:	fff94683          	lbu	a3,-1(s2)
    97dc:	85aa                	mv	a1,a0
    97de:	4629                	li	a2,10
    97e0:	fd068693          	addi	a3,a3,-48
    97e4:	854e                	mv	a0,s3
    97e6:	f11ff0ef          	jal	ra,96f6 <__multadd>
    97ea:	fe8916e3          	bne	s2,s0,97d6 <__s2b+0x48>
    97ee:	ff848413          	addi	s0,s1,-8
    97f2:	9456                	add	s0,s0,s5
    97f4:	8926                	mv	s2,s1
    97f6:	03494163          	blt	s2,s4,9818 <__s2b+0x8a>
    97fa:	50b2                	lw	ra,44(sp)
    97fc:	5422                	lw	s0,40(sp)
    97fe:	5492                	lw	s1,36(sp)
    9800:	5902                	lw	s2,32(sp)
    9802:	49f2                	lw	s3,28(sp)
    9804:	4a62                	lw	s4,24(sp)
    9806:	4ad2                	lw	s5,20(sp)
    9808:	6145                	addi	sp,sp,48
    980a:	8082                	ret
    980c:	0686                	slli	a3,a3,0x1
    980e:	0585                	addi	a1,a1,1
    9810:	b755                	j	97b4 <__s2b+0x26>
    9812:	0429                	addi	s0,s0,10
    9814:	44a5                	li	s1,9
    9816:	bff9                	j	97f4 <__s2b+0x66>
    9818:	409907b3          	sub	a5,s2,s1
    981c:	97a2                	add	a5,a5,s0
    981e:	0007c683          	lbu	a3,0(a5)
    9822:	85aa                	mv	a1,a0
    9824:	4629                	li	a2,10
    9826:	fd068693          	addi	a3,a3,-48
    982a:	854e                	mv	a0,s3
    982c:	ecbff0ef          	jal	ra,96f6 <__multadd>
    9830:	0905                	addi	s2,s2,1
    9832:	b7d1                	j	97f6 <__s2b+0x68>

00009834 <__hi0bits>:
    9834:	7741                	lui	a4,0xffff0
    9836:	8f69                	and	a4,a4,a0
    9838:	87aa                	mv	a5,a0
    983a:	4501                	li	a0,0
    983c:	e319                	bnez	a4,9842 <__hi0bits+0xe>
    983e:	07c2                	slli	a5,a5,0x10
    9840:	4541                	li	a0,16
    9842:	ff000737          	lui	a4,0xff000
    9846:	8f7d                	and	a4,a4,a5
    9848:	e319                	bnez	a4,984e <__hi0bits+0x1a>
    984a:	0521                	addi	a0,a0,8
    984c:	07a2                	slli	a5,a5,0x8
    984e:	f0000737          	lui	a4,0xf0000
    9852:	8f7d                	and	a4,a4,a5
    9854:	e319                	bnez	a4,985a <__hi0bits+0x26>
    9856:	0511                	addi	a0,a0,4
    9858:	0792                	slli	a5,a5,0x4
    985a:	c0000737          	lui	a4,0xc0000
    985e:	8f7d                	and	a4,a4,a5
    9860:	e319                	bnez	a4,9866 <__hi0bits+0x32>
    9862:	0509                	addi	a0,a0,2
    9864:	078a                	slli	a5,a5,0x2
    9866:	0007c963          	bltz	a5,9878 <__hi0bits+0x44>
    986a:	00179713          	slli	a4,a5,0x1
    986e:	0505                	addi	a0,a0,1
    9870:	00074463          	bltz	a4,9878 <__hi0bits+0x44>
    9874:	02000513          	li	a0,32
    9878:	8082                	ret

0000987a <__lo0bits>:
    987a:	411c                	lw	a5,0(a0)
    987c:	0077f713          	andi	a4,a5,7
    9880:	c30d                	beqz	a4,98a2 <__lo0bits+0x28>
    9882:	0017f693          	andi	a3,a5,1
    9886:	4701                	li	a4,0
    9888:	e699                	bnez	a3,9896 <__lo0bits+0x1c>
    988a:	0027f713          	andi	a4,a5,2
    988e:	c711                	beqz	a4,989a <__lo0bits+0x20>
    9890:	8385                	srli	a5,a5,0x1
    9892:	c11c                	sw	a5,0(a0)
    9894:	4705                	li	a4,1
    9896:	853a                	mv	a0,a4
    9898:	8082                	ret
    989a:	8389                	srli	a5,a5,0x2
    989c:	c11c                	sw	a5,0(a0)
    989e:	4709                	li	a4,2
    98a0:	bfdd                	j	9896 <__lo0bits+0x1c>
    98a2:	01079693          	slli	a3,a5,0x10
    98a6:	82c1                	srli	a3,a3,0x10
    98a8:	4701                	li	a4,0
    98aa:	e299                	bnez	a3,98b0 <__lo0bits+0x36>
    98ac:	83c1                	srli	a5,a5,0x10
    98ae:	4741                	li	a4,16
    98b0:	0ff7f693          	andi	a3,a5,255
    98b4:	e299                	bnez	a3,98ba <__lo0bits+0x40>
    98b6:	0721                	addi	a4,a4,8
    98b8:	83a1                	srli	a5,a5,0x8
    98ba:	00f7f693          	andi	a3,a5,15
    98be:	e299                	bnez	a3,98c4 <__lo0bits+0x4a>
    98c0:	0711                	addi	a4,a4,4
    98c2:	8391                	srli	a5,a5,0x4
    98c4:	0037f693          	andi	a3,a5,3
    98c8:	e299                	bnez	a3,98ce <__lo0bits+0x54>
    98ca:	0709                	addi	a4,a4,2
    98cc:	8389                	srli	a5,a5,0x2
    98ce:	0017f693          	andi	a3,a5,1
    98d2:	e681                	bnez	a3,98da <__lo0bits+0x60>
    98d4:	8385                	srli	a5,a5,0x1
    98d6:	0705                	addi	a4,a4,1
    98d8:	c399                	beqz	a5,98de <__lo0bits+0x64>
    98da:	c11c                	sw	a5,0(a0)
    98dc:	bf6d                	j	9896 <__lo0bits+0x1c>
    98de:	02000713          	li	a4,32
    98e2:	bf55                	j	9896 <__lo0bits+0x1c>

000098e4 <__i2b>:
    98e4:	1141                	addi	sp,sp,-16
    98e6:	c422                	sw	s0,8(sp)
    98e8:	842e                	mv	s0,a1
    98ea:	4585                	li	a1,1
    98ec:	c606                	sw	ra,12(sp)
    98ee:	d39ff0ef          	jal	ra,9626 <_Balloc>
    98f2:	c940                	sw	s0,20(a0)
    98f4:	40b2                	lw	ra,12(sp)
    98f6:	4422                	lw	s0,8(sp)
    98f8:	4705                	li	a4,1
    98fa:	c918                	sw	a4,16(a0)
    98fc:	0141                	addi	sp,sp,16
    98fe:	8082                	ret

00009900 <__multiply>:
    9900:	4998                	lw	a4,16(a1)
    9902:	4a1c                	lw	a5,16(a2)
    9904:	7179                	addi	sp,sp,-48
    9906:	d226                	sw	s1,36(sp)
    9908:	d606                	sw	ra,44(sp)
    990a:	d422                	sw	s0,40(sp)
    990c:	d04a                	sw	s2,32(sp)
    990e:	ce4e                	sw	s3,28(sp)
    9910:	84ae                	mv	s1,a1
    9912:	00f75463          	bge	a4,a5,991a <__multiply+0x1a>
    9916:	84b2                	mv	s1,a2
    9918:	862e                	mv	a2,a1
    991a:	0104a983          	lw	s3,16(s1)
    991e:	01062903          	lw	s2,16(a2)
    9922:	449c                	lw	a5,8(s1)
    9924:	40cc                	lw	a1,4(s1)
    9926:	01298433          	add	s0,s3,s2
    992a:	0087d363          	bge	a5,s0,9930 <__multiply+0x30>
    992e:	0585                	addi	a1,a1,1
    9930:	c632                	sw	a2,12(sp)
    9932:	cf5ff0ef          	jal	ra,9626 <_Balloc>
    9936:	4632                	lw	a2,12(sp)
    9938:	01450813          	addi	a6,a0,20 # 10014 <_data_lma+0x2dc0>
    993c:	00241313          	slli	t1,s0,0x2
    9940:	9342                	add	t1,t1,a6
    9942:	87c2                	mv	a5,a6
    9944:	0267ed63          	bltu	a5,t1,997e <__multiply+0x7e>
    9948:	01448593          	addi	a1,s1,20
    994c:	00299893          	slli	a7,s3,0x2
    9950:	0651                	addi	a2,a2,20
    9952:	00291e13          	slli	t3,s2,0x2
    9956:	66c1                	lui	a3,0x10
    9958:	98ae                	add	a7,a7,a1
    995a:	9e32                	add	t3,t3,a2
    995c:	16fd                	addi	a3,a3,-1
    995e:	03c66463          	bltu	a2,t3,9986 <__multiply+0x86>
    9962:	00805663          	blez	s0,996e <__multiply+0x6e>
    9966:	1371                	addi	t1,t1,-4
    9968:	00032783          	lw	a5,0(t1)
    996c:	cbf1                	beqz	a5,9a40 <__multiply+0x140>
    996e:	c900                	sw	s0,16(a0)
    9970:	50b2                	lw	ra,44(sp)
    9972:	5422                	lw	s0,40(sp)
    9974:	5492                	lw	s1,36(sp)
    9976:	5902                	lw	s2,32(sp)
    9978:	49f2                	lw	s3,28(sp)
    997a:	6145                	addi	sp,sp,48
    997c:	8082                	ret
    997e:	0007a023          	sw	zero,0(a5)
    9982:	0791                	addi	a5,a5,4
    9984:	b7c1                	j	9944 <__multiply+0x44>
    9986:	00062f83          	lw	t6,0(a2)
    998a:	00dfffb3          	and	t6,t6,a3
    998e:	040f8a63          	beqz	t6,99e2 <__multiply+0xe2>
    9992:	8f42                	mv	t5,a6
    9994:	82ae                	mv	t0,a1
    9996:	4481                	li	s1,0
    9998:	0002a703          	lw	a4,0(t0)
    999c:	000f2383          	lw	t2,0(t5)
    99a0:	0f11                	addi	t5,t5,4
    99a2:	00d77eb3          	and	t4,a4,a3
    99a6:	03fe8eb3          	mul	t4,t4,t6
    99aa:	00d3f7b3          	and	a5,t2,a3
    99ae:	0103d393          	srli	t2,t2,0x10
    99b2:	0291                	addi	t0,t0,4
    99b4:	9ebe                	add	t4,t4,a5
    99b6:	01075793          	srli	a5,a4,0x10
    99ba:	03f787b3          	mul	a5,a5,t6
    99be:	9ea6                	add	t4,t4,s1
    99c0:	010ed713          	srli	a4,t4,0x10
    99c4:	00defeb3          	and	t4,t4,a3
    99c8:	979e                	add	a5,a5,t2
    99ca:	97ba                	add	a5,a5,a4
    99cc:	0107d493          	srli	s1,a5,0x10
    99d0:	07c2                	slli	a5,a5,0x10
    99d2:	01d7e7b3          	or	a5,a5,t4
    99d6:	feff2e23          	sw	a5,-4(t5)
    99da:	fb12efe3          	bltu	t0,a7,9998 <__multiply+0x98>
    99de:	009f2023          	sw	s1,0(t5)
    99e2:	00265283          	lhu	t0,2(a2)
    99e6:	04028a63          	beqz	t0,9a3a <__multiply+0x13a>
    99ea:	00082783          	lw	a5,0(a6)
    99ee:	8ec2                	mv	t4,a6
    99f0:	8f2e                	mv	t5,a1
    99f2:	4f81                	li	t6,0
    99f4:	000f2703          	lw	a4,0(t5)
    99f8:	002ed383          	lhu	t2,2(t4)
    99fc:	8ff5                	and	a5,a5,a3
    99fe:	8f75                	and	a4,a4,a3
    9a00:	02570733          	mul	a4,a4,t0
    9a04:	0e91                	addi	t4,t4,4
    9a06:	0f11                	addi	t5,t5,4
    9a08:	971e                	add	a4,a4,t2
    9a0a:	977e                	add	a4,a4,t6
    9a0c:	01071f93          	slli	t6,a4,0x10
    9a10:	00ffe7b3          	or	a5,t6,a5
    9a14:	fefeae23          	sw	a5,-4(t4)
    9a18:	ffef5783          	lhu	a5,-2(t5)
    9a1c:	000eaf83          	lw	t6,0(t4)
    9a20:	8341                	srli	a4,a4,0x10
    9a22:	025787b3          	mul	a5,a5,t0
    9a26:	00dfffb3          	and	t6,t6,a3
    9a2a:	97fe                	add	a5,a5,t6
    9a2c:	97ba                	add	a5,a5,a4
    9a2e:	0107df93          	srli	t6,a5,0x10
    9a32:	fd1f61e3          	bltu	t5,a7,99f4 <__multiply+0xf4>
    9a36:	00fea023          	sw	a5,0(t4)
    9a3a:	0611                	addi	a2,a2,4
    9a3c:	0811                	addi	a6,a6,4
    9a3e:	b705                	j	995e <__multiply+0x5e>
    9a40:	147d                	addi	s0,s0,-1
    9a42:	b705                	j	9962 <__multiply+0x62>

00009a44 <__pow5mult>:
    9a44:	1101                	addi	sp,sp,-32
    9a46:	ca26                	sw	s1,20(sp)
    9a48:	c84a                	sw	s2,16(sp)
    9a4a:	c64e                	sw	s3,12(sp)
    9a4c:	ce06                	sw	ra,28(sp)
    9a4e:	cc22                	sw	s0,24(sp)
    9a50:	c452                	sw	s4,8(sp)
    9a52:	00367793          	andi	a5,a2,3
    9a56:	892a                	mv	s2,a0
    9a58:	84b2                	mv	s1,a2
    9a5a:	89ae                	mv	s3,a1
    9a5c:	cf89                	beqz	a5,9a76 <__pow5mult+0x32>
    9a5e:	17fd                	addi	a5,a5,-1
    9a60:	00003717          	auipc	a4,0x3
    9a64:	6d070713          	addi	a4,a4,1744 # d130 <p05.3319>
    9a68:	078a                	slli	a5,a5,0x2
    9a6a:	97ba                	add	a5,a5,a4
    9a6c:	4390                	lw	a2,0(a5)
    9a6e:	4681                	li	a3,0
    9a70:	c87ff0ef          	jal	ra,96f6 <__multadd>
    9a74:	89aa                	mv	s3,a0
    9a76:	8489                	srai	s1,s1,0x2
    9a78:	cca5                	beqz	s1,9af0 <__pow5mult+0xac>
    9a7a:	02492783          	lw	a5,36(s2)
    9a7e:	ef91                	bnez	a5,9a9a <__pow5mult+0x56>
    9a80:	4541                	li	a0,16
    9a82:	a8fff0ef          	jal	ra,9510 <malloc>
    9a86:	02a92223          	sw	a0,36(s2)
    9a8a:	00052223          	sw	zero,4(a0)
    9a8e:	00052423          	sw	zero,8(a0)
    9a92:	00052023          	sw	zero,0(a0)
    9a96:	00052623          	sw	zero,12(a0)
    9a9a:	02492a03          	lw	s4,36(s2)
    9a9e:	008a2403          	lw	s0,8(s4)
    9aa2:	e819                	bnez	s0,9ab8 <__pow5mult+0x74>
    9aa4:	27100593          	li	a1,625
    9aa8:	854a                	mv	a0,s2
    9aaa:	e3bff0ef          	jal	ra,98e4 <__i2b>
    9aae:	00aa2423          	sw	a0,8(s4)
    9ab2:	842a                	mv	s0,a0
    9ab4:	00052023          	sw	zero,0(a0)
    9ab8:	0014f793          	andi	a5,s1,1
    9abc:	cf81                	beqz	a5,9ad4 <__pow5mult+0x90>
    9abe:	85ce                	mv	a1,s3
    9ac0:	8622                	mv	a2,s0
    9ac2:	854a                	mv	a0,s2
    9ac4:	e3dff0ef          	jal	ra,9900 <__multiply>
    9ac8:	8a2a                	mv	s4,a0
    9aca:	85ce                	mv	a1,s3
    9acc:	854a                	mv	a0,s2
    9ace:	be5ff0ef          	jal	ra,96b2 <_Bfree>
    9ad2:	89d2                	mv	s3,s4
    9ad4:	8485                	srai	s1,s1,0x1
    9ad6:	cc89                	beqz	s1,9af0 <__pow5mult+0xac>
    9ad8:	4008                	lw	a0,0(s0)
    9ada:	e909                	bnez	a0,9aec <__pow5mult+0xa8>
    9adc:	8622                	mv	a2,s0
    9ade:	85a2                	mv	a1,s0
    9ae0:	854a                	mv	a0,s2
    9ae2:	e1fff0ef          	jal	ra,9900 <__multiply>
    9ae6:	c008                	sw	a0,0(s0)
    9ae8:	00052023          	sw	zero,0(a0)
    9aec:	842a                	mv	s0,a0
    9aee:	b7e9                	j	9ab8 <__pow5mult+0x74>
    9af0:	40f2                	lw	ra,28(sp)
    9af2:	4462                	lw	s0,24(sp)
    9af4:	854e                	mv	a0,s3
    9af6:	44d2                	lw	s1,20(sp)
    9af8:	4942                	lw	s2,16(sp)
    9afa:	49b2                	lw	s3,12(sp)
    9afc:	4a22                	lw	s4,8(sp)
    9afe:	6105                	addi	sp,sp,32
    9b00:	8082                	ret

00009b02 <__lshift>:
    9b02:	7179                	addi	sp,sp,-48
    9b04:	d226                	sw	s1,36(sp)
    9b06:	84ae                	mv	s1,a1
    9b08:	ce4e                	sw	s3,28(sp)
    9b0a:	0104a983          	lw	s3,16(s1)
    9b0e:	d422                	sw	s0,40(sp)
    9b10:	41cc                	lw	a1,4(a1)
    9b12:	40565413          	srai	s0,a2,0x5
    9b16:	449c                	lw	a5,8(s1)
    9b18:	99a2                	add	s3,s3,s0
    9b1a:	d04a                	sw	s2,32(sp)
    9b1c:	ca56                	sw	s5,20(sp)
    9b1e:	d606                	sw	ra,44(sp)
    9b20:	cc52                	sw	s4,24(sp)
    9b22:	8aaa                	mv	s5,a0
    9b24:	00198913          	addi	s2,s3,1
    9b28:	0927c463          	blt	a5,s2,9bb0 <__lshift+0xae>
    9b2c:	8556                	mv	a0,s5
    9b2e:	c632                	sw	a2,12(sp)
    9b30:	af7ff0ef          	jal	ra,9626 <_Balloc>
    9b34:	4632                	lw	a2,12(sp)
    9b36:	01450793          	addi	a5,a0,20
    9b3a:	8a2a                	mv	s4,a0
    9b3c:	86be                	mv	a3,a5
    9b3e:	4701                	li	a4,0
    9b40:	0691                	addi	a3,a3,4
    9b42:	06874a63          	blt	a4,s0,9bb6 <__lshift+0xb4>
    9b46:	00045363          	bgez	s0,9b4c <__lshift+0x4a>
    9b4a:	4401                	li	s0,0
    9b4c:	4894                	lw	a3,16(s1)
    9b4e:	040a                	slli	s0,s0,0x2
    9b50:	00878733          	add	a4,a5,s0
    9b54:	068a                	slli	a3,a3,0x2
    9b56:	01448793          	addi	a5,s1,20
    9b5a:	8a7d                	andi	a2,a2,31
    9b5c:	96be                	add	a3,a3,a5
    9b5e:	c225                	beqz	a2,9bbe <__lshift+0xbc>
    9b60:	02000813          	li	a6,32
    9b64:	40c80833          	sub	a6,a6,a2
    9b68:	4581                	li	a1,0
    9b6a:	4388                	lw	a0,0(a5)
    9b6c:	0711                	addi	a4,a4,4
    9b6e:	0791                	addi	a5,a5,4
    9b70:	00c51533          	sll	a0,a0,a2
    9b74:	8dc9                	or	a1,a1,a0
    9b76:	feb72e23          	sw	a1,-4(a4)
    9b7a:	ffc7a583          	lw	a1,-4(a5)
    9b7e:	0105d5b3          	srl	a1,a1,a6
    9b82:	fed7e4e3          	bltu	a5,a3,9b6a <__lshift+0x68>
    9b86:	c30c                	sw	a1,0(a4)
    9b88:	c199                	beqz	a1,9b8e <__lshift+0x8c>
    9b8a:	00298913          	addi	s2,s3,2
    9b8e:	197d                	addi	s2,s2,-1
    9b90:	012a2823          	sw	s2,16(s4)
    9b94:	8556                	mv	a0,s5
    9b96:	85a6                	mv	a1,s1
    9b98:	b1bff0ef          	jal	ra,96b2 <_Bfree>
    9b9c:	50b2                	lw	ra,44(sp)
    9b9e:	5422                	lw	s0,40(sp)
    9ba0:	8552                	mv	a0,s4
    9ba2:	5492                	lw	s1,36(sp)
    9ba4:	5902                	lw	s2,32(sp)
    9ba6:	49f2                	lw	s3,28(sp)
    9ba8:	4a62                	lw	s4,24(sp)
    9baa:	4ad2                	lw	s5,20(sp)
    9bac:	6145                	addi	sp,sp,48
    9bae:	8082                	ret
    9bb0:	0585                	addi	a1,a1,1
    9bb2:	0786                	slli	a5,a5,0x1
    9bb4:	bf95                	j	9b28 <__lshift+0x26>
    9bb6:	fe06ae23          	sw	zero,-4(a3) # fffc <_data_lma+0x2da8>
    9bba:	0705                	addi	a4,a4,1
    9bbc:	b751                	j	9b40 <__lshift+0x3e>
    9bbe:	0791                	addi	a5,a5,4
    9bc0:	ffc7a603          	lw	a2,-4(a5)
    9bc4:	0711                	addi	a4,a4,4
    9bc6:	fec72e23          	sw	a2,-4(a4)
    9bca:	fed7eae3          	bltu	a5,a3,9bbe <__lshift+0xbc>
    9bce:	b7c1                	j	9b8e <__lshift+0x8c>

00009bd0 <__mcmp>:
    9bd0:	491c                	lw	a5,16(a0)
    9bd2:	4998                	lw	a4,16(a1)
    9bd4:	8f99                	sub	a5,a5,a4
    9bd6:	e38d                	bnez	a5,9bf8 <__mcmp+0x28>
    9bd8:	070a                	slli	a4,a4,0x2
    9bda:	0551                	addi	a0,a0,20
    9bdc:	05d1                	addi	a1,a1,20
    9bde:	00e506b3          	add	a3,a0,a4
    9be2:	95ba                	add	a1,a1,a4
    9be4:	16f1                	addi	a3,a3,-4
    9be6:	15f1                	addi	a1,a1,-4
    9be8:	4290                	lw	a2,0(a3)
    9bea:	4198                	lw	a4,0(a1)
    9bec:	00e60863          	beq	a2,a4,9bfc <__mcmp+0x2c>
    9bf0:	57fd                	li	a5,-1
    9bf2:	00e66363          	bltu	a2,a4,9bf8 <__mcmp+0x28>
    9bf6:	4785                	li	a5,1
    9bf8:	853e                	mv	a0,a5
    9bfa:	8082                	ret
    9bfc:	fed564e3          	bltu	a0,a3,9be4 <__mcmp+0x14>
    9c00:	bfe5                	j	9bf8 <__mcmp+0x28>

00009c02 <__mdiff>:
    9c02:	1101                	addi	sp,sp,-32
    9c04:	ca26                	sw	s1,20(sp)
    9c06:	84ae                	mv	s1,a1
    9c08:	c64e                	sw	s3,12(sp)
    9c0a:	85b2                	mv	a1,a2
    9c0c:	89aa                	mv	s3,a0
    9c0e:	8526                	mv	a0,s1
    9c10:	cc22                	sw	s0,24(sp)
    9c12:	ce06                	sw	ra,28(sp)
    9c14:	c84a                	sw	s2,16(sp)
    9c16:	8432                	mv	s0,a2
    9c18:	fb9ff0ef          	jal	ra,9bd0 <__mcmp>
    9c1c:	e105                	bnez	a0,9c3c <__mdiff+0x3a>
    9c1e:	4581                	li	a1,0
    9c20:	854e                	mv	a0,s3
    9c22:	a05ff0ef          	jal	ra,9626 <_Balloc>
    9c26:	4785                	li	a5,1
    9c28:	c91c                	sw	a5,16(a0)
    9c2a:	00052a23          	sw	zero,20(a0)
    9c2e:	40f2                	lw	ra,28(sp)
    9c30:	4462                	lw	s0,24(sp)
    9c32:	44d2                	lw	s1,20(sp)
    9c34:	4942                	lw	s2,16(sp)
    9c36:	49b2                	lw	s3,12(sp)
    9c38:	6105                	addi	sp,sp,32
    9c3a:	8082                	ret
    9c3c:	4905                	li	s2,1
    9c3e:	00054663          	bltz	a0,9c4a <__mdiff+0x48>
    9c42:	87a2                	mv	a5,s0
    9c44:	4901                	li	s2,0
    9c46:	8426                	mv	s0,s1
    9c48:	84be                	mv	s1,a5
    9c4a:	404c                	lw	a1,4(s0)
    9c4c:	854e                	mv	a0,s3
    9c4e:	9d9ff0ef          	jal	ra,9626 <_Balloc>
    9c52:	01042303          	lw	t1,16(s0)
    9c56:	0104a883          	lw	a7,16(s1)
    9c5a:	01440613          	addi	a2,s0,20
    9c5e:	00231e13          	slli	t3,t1,0x2
    9c62:	01448813          	addi	a6,s1,20
    9c66:	088a                	slli	a7,a7,0x2
    9c68:	6ec1                	lui	t4,0x10
    9c6a:	01252623          	sw	s2,12(a0)
    9c6e:	9e32                	add	t3,t3,a2
    9c70:	98c2                	add	a7,a7,a6
    9c72:	01450693          	addi	a3,a0,20
    9c76:	4f01                	li	t5,0
    9c78:	1efd                	addi	t4,t4,-1
    9c7a:	4218                	lw	a4,0(a2)
    9c7c:	00082f83          	lw	t6,0(a6)
    9c80:	0691                	addi	a3,a3,4
    9c82:	01d775b3          	and	a1,a4,t4
    9c86:	01dff7b3          	and	a5,t6,t4
    9c8a:	95fa                	add	a1,a1,t5
    9c8c:	8d9d                	sub	a1,a1,a5
    9c8e:	010fdf93          	srli	t6,t6,0x10
    9c92:	01075793          	srli	a5,a4,0x10
    9c96:	41f787b3          	sub	a5,a5,t6
    9c9a:	4105d713          	srai	a4,a1,0x10
    9c9e:	97ba                	add	a5,a5,a4
    9ca0:	4107df13          	srai	t5,a5,0x10
    9ca4:	01d5f5b3          	and	a1,a1,t4
    9ca8:	07c2                	slli	a5,a5,0x10
    9caa:	8fcd                	or	a5,a5,a1
    9cac:	0811                	addi	a6,a6,4
    9cae:	fef6ae23          	sw	a5,-4(a3)
    9cb2:	0611                	addi	a2,a2,4
    9cb4:	fd1863e3          	bltu	a6,a7,9c7a <__mdiff+0x78>
    9cb8:	65c1                	lui	a1,0x10
    9cba:	15fd                	addi	a1,a1,-1
    9cbc:	01c66863          	bltu	a2,t3,9ccc <__mdiff+0xca>
    9cc0:	16f1                	addi	a3,a3,-4
    9cc2:	429c                	lw	a5,0(a3)
    9cc4:	c795                	beqz	a5,9cf0 <__mdiff+0xee>
    9cc6:	00652823          	sw	t1,16(a0)
    9cca:	b795                	j	9c2e <__mdiff+0x2c>
    9ccc:	421c                	lw	a5,0(a2)
    9cce:	0691                	addi	a3,a3,4
    9cd0:	0611                	addi	a2,a2,4
    9cd2:	00b7f733          	and	a4,a5,a1
    9cd6:	977a                	add	a4,a4,t5
    9cd8:	41075813          	srai	a6,a4,0x10
    9cdc:	83c1                	srli	a5,a5,0x10
    9cde:	97c2                	add	a5,a5,a6
    9ce0:	4107df13          	srai	t5,a5,0x10
    9ce4:	8f6d                	and	a4,a4,a1
    9ce6:	07c2                	slli	a5,a5,0x10
    9ce8:	8fd9                	or	a5,a5,a4
    9cea:	fef6ae23          	sw	a5,-4(a3)
    9cee:	b7f9                	j	9cbc <__mdiff+0xba>
    9cf0:	137d                	addi	t1,t1,-1
    9cf2:	b7f9                	j	9cc0 <__mdiff+0xbe>

00009cf4 <__ulp>:
    9cf4:	7ff007b7          	lui	a5,0x7ff00
    9cf8:	8dfd                	and	a1,a1,a5
    9cfa:	fcc007b7          	lui	a5,0xfcc00
    9cfe:	95be                	add	a1,a1,a5
    9d00:	00b05563          	blez	a1,9d0a <__ulp+0x16>
    9d04:	4781                	li	a5,0
    9d06:	853e                	mv	a0,a5
    9d08:	8082                	ret
    9d0a:	40b005b3          	neg	a1,a1
    9d0e:	4145d793          	srai	a5,a1,0x14
    9d12:	474d                	li	a4,19
    9d14:	00f74763          	blt	a4,a5,9d22 <__ulp+0x2e>
    9d18:	000805b7          	lui	a1,0x80
    9d1c:	40f5d5b3          	sra	a1,a1,a5
    9d20:	b7d5                	j	9d04 <__ulp+0x10>
    9d22:	fec78713          	addi	a4,a5,-20 # fcbfffec <_eusrstack+0xdcbf7fec>
    9d26:	46f9                	li	a3,30
    9d28:	4581                	li	a1,0
    9d2a:	4785                	li	a5,1
    9d2c:	fce6cde3          	blt	a3,a4,9d06 <__ulp+0x12>
    9d30:	800007b7          	lui	a5,0x80000
    9d34:	00e7d7b3          	srl	a5,a5,a4
    9d38:	b7f9                	j	9d06 <__ulp+0x12>

00009d3a <__b2d>:
    9d3a:	7179                	addi	sp,sp,-48
    9d3c:	d226                	sw	s1,36(sp)
    9d3e:	4904                	lw	s1,16(a0)
    9d40:	ce4e                	sw	s3,28(sp)
    9d42:	01450993          	addi	s3,a0,20
    9d46:	048a                	slli	s1,s1,0x2
    9d48:	94ce                	add	s1,s1,s3
    9d4a:	d422                	sw	s0,40(sp)
    9d4c:	ffc4a403          	lw	s0,-4(s1)
    9d50:	d04a                	sw	s2,32(sp)
    9d52:	c62e                	sw	a1,12(sp)
    9d54:	8522                	mv	a0,s0
    9d56:	d606                	sw	ra,44(sp)
    9d58:	addff0ef          	jal	ra,9834 <__hi0bits>
    9d5c:	45b2                	lw	a1,12(sp)
    9d5e:	02000793          	li	a5,32
    9d62:	8f89                	sub	a5,a5,a0
    9d64:	c19c                	sw	a5,0(a1)
    9d66:	47a9                	li	a5,10
    9d68:	ffc48913          	addi	s2,s1,-4
    9d6c:	02a7cd63          	blt	a5,a0,9da6 <__b2d+0x6c>
    9d70:	47ad                	li	a5,11
    9d72:	8f89                	sub	a5,a5,a0
    9d74:	3ff00737          	lui	a4,0x3ff00
    9d78:	00f456b3          	srl	a3,s0,a5
    9d7c:	8ed9                	or	a3,a3,a4
    9d7e:	4701                	li	a4,0
    9d80:	0129f463          	bgeu	s3,s2,9d88 <__b2d+0x4e>
    9d84:	ff84a703          	lw	a4,-8(s1)
    9d88:	0555                	addi	a0,a0,21
    9d8a:	00a41533          	sll	a0,s0,a0
    9d8e:	00f757b3          	srl	a5,a4,a5
    9d92:	8fc9                	or	a5,a5,a0
    9d94:	50b2                	lw	ra,44(sp)
    9d96:	5422                	lw	s0,40(sp)
    9d98:	5492                	lw	s1,36(sp)
    9d9a:	5902                	lw	s2,32(sp)
    9d9c:	49f2                	lw	s3,28(sp)
    9d9e:	853e                	mv	a0,a5
    9da0:	85b6                	mv	a1,a3
    9da2:	6145                	addi	sp,sp,48
    9da4:	8082                	ret
    9da6:	4781                	li	a5,0
    9da8:	0129f663          	bgeu	s3,s2,9db4 <__b2d+0x7a>
    9dac:	ff84a783          	lw	a5,-8(s1)
    9db0:	ff848913          	addi	s2,s1,-8
    9db4:	1555                	addi	a0,a0,-11
    9db6:	c905                	beqz	a0,9de6 <__b2d+0xac>
    9db8:	02000713          	li	a4,32
    9dbc:	40a70633          	sub	a2,a4,a0
    9dc0:	00c7d733          	srl	a4,a5,a2
    9dc4:	00a41433          	sll	s0,s0,a0
    9dc8:	8c59                	or	s0,s0,a4
    9dca:	3ff006b7          	lui	a3,0x3ff00
    9dce:	8ec1                	or	a3,a3,s0
    9dd0:	4701                	li	a4,0
    9dd2:	0129f463          	bgeu	s3,s2,9dda <__b2d+0xa0>
    9dd6:	ffc92703          	lw	a4,-4(s2)
    9dda:	00a797b3          	sll	a5,a5,a0
    9dde:	00c75733          	srl	a4,a4,a2
    9de2:	8fd9                	or	a5,a5,a4
    9de4:	bf45                	j	9d94 <__b2d+0x5a>
    9de6:	3ff006b7          	lui	a3,0x3ff00
    9dea:	8ec1                	or	a3,a3,s0
    9dec:	b765                	j	9d94 <__b2d+0x5a>

00009dee <__d2b>:
    9dee:	7179                	addi	sp,sp,-48
    9df0:	d422                	sw	s0,40(sp)
    9df2:	842e                	mv	s0,a1
    9df4:	4585                	li	a1,1
    9df6:	d226                	sw	s1,36(sp)
    9df8:	d04a                	sw	s2,32(sp)
    9dfa:	84b2                	mv	s1,a2
    9dfc:	ce4e                	sw	s3,28(sp)
    9dfe:	cc52                	sw	s4,24(sp)
    9e00:	893a                	mv	s2,a4
    9e02:	d606                	sw	ra,44(sp)
    9e04:	8a36                	mv	s4,a3
    9e06:	821ff0ef          	jal	ra,9626 <_Balloc>
    9e0a:	00100737          	lui	a4,0x100
    9e0e:	fff70793          	addi	a5,a4,-1 # fffff <_data_lma+0xf2dab>
    9e12:	8fe5                	and	a5,a5,s1
    9e14:	80d1                	srli	s1,s1,0x14
    9e16:	7ff4f493          	andi	s1,s1,2047
    9e1a:	89aa                	mv	s3,a0
    9e1c:	e0b5                	bnez	s1,9e80 <__d2b+0x92>
    9e1e:	c63e                	sw	a5,12(sp)
    9e20:	c42d                	beqz	s0,9e8a <__d2b+0x9c>
    9e22:	0028                	addi	a0,sp,8
    9e24:	c422                	sw	s0,8(sp)
    9e26:	a55ff0ef          	jal	ra,987a <__lo0bits>
    9e2a:	46a2                	lw	a3,8(sp)
    9e2c:	cd21                	beqz	a0,9e84 <__d2b+0x96>
    9e2e:	4732                	lw	a4,12(sp)
    9e30:	02000793          	li	a5,32
    9e34:	8f89                	sub	a5,a5,a0
    9e36:	00f717b3          	sll	a5,a4,a5
    9e3a:	8fd5                	or	a5,a5,a3
    9e3c:	00a75733          	srl	a4,a4,a0
    9e40:	00f9aa23          	sw	a5,20(s3)
    9e44:	c63a                	sw	a4,12(sp)
    9e46:	4432                	lw	s0,12(sp)
    9e48:	0089ac23          	sw	s0,24(s3)
    9e4c:	00803433          	snez	s0,s0
    9e50:	0405                	addi	s0,s0,1
    9e52:	0089a823          	sw	s0,16(s3)
    9e56:	c4b9                	beqz	s1,9ea4 <__d2b+0xb6>
    9e58:	bcd48493          	addi	s1,s1,-1075
    9e5c:	94aa                	add	s1,s1,a0
    9e5e:	03500793          	li	a5,53
    9e62:	009a2023          	sw	s1,0(s4)
    9e66:	40a78533          	sub	a0,a5,a0
    9e6a:	00a92023          	sw	a0,0(s2)
    9e6e:	50b2                	lw	ra,44(sp)
    9e70:	5422                	lw	s0,40(sp)
    9e72:	854e                	mv	a0,s3
    9e74:	5492                	lw	s1,36(sp)
    9e76:	5902                	lw	s2,32(sp)
    9e78:	49f2                	lw	s3,28(sp)
    9e7a:	4a62                	lw	s4,24(sp)
    9e7c:	6145                	addi	sp,sp,48
    9e7e:	8082                	ret
    9e80:	8fd9                	or	a5,a5,a4
    9e82:	bf71                	j	9e1e <__d2b+0x30>
    9e84:	00d9aa23          	sw	a3,20(s3)
    9e88:	bf7d                	j	9e46 <__d2b+0x58>
    9e8a:	0068                	addi	a0,sp,12
    9e8c:	9efff0ef          	jal	ra,987a <__lo0bits>
    9e90:	47b2                	lw	a5,12(sp)
    9e92:	02050513          	addi	a0,a0,32
    9e96:	4405                	li	s0,1
    9e98:	00f9aa23          	sw	a5,20(s3)
    9e9c:	4785                	li	a5,1
    9e9e:	00f9a823          	sw	a5,16(s3)
    9ea2:	bf55                	j	9e56 <__d2b+0x68>
    9ea4:	00241793          	slli	a5,s0,0x2
    9ea8:	bce50513          	addi	a0,a0,-1074
    9eac:	97ce                	add	a5,a5,s3
    9eae:	00aa2023          	sw	a0,0(s4)
    9eb2:	4b88                	lw	a0,16(a5)
    9eb4:	0416                	slli	s0,s0,0x5
    9eb6:	97fff0ef          	jal	ra,9834 <__hi0bits>
    9eba:	8c09                	sub	s0,s0,a0
    9ebc:	00892023          	sw	s0,0(s2)
    9ec0:	b77d                	j	9e6e <__d2b+0x80>

00009ec2 <__ratio>:
    9ec2:	7179                	addi	sp,sp,-48
    9ec4:	d04a                	sw	s2,32(sp)
    9ec6:	892e                	mv	s2,a1
    9ec8:	002c                	addi	a1,sp,8
    9eca:	d606                	sw	ra,44(sp)
    9ecc:	d422                	sw	s0,40(sp)
    9ece:	d226                	sw	s1,36(sp)
    9ed0:	ce4e                	sw	s3,28(sp)
    9ed2:	cc52                	sw	s4,24(sp)
    9ed4:	8a2a                	mv	s4,a0
    9ed6:	e65ff0ef          	jal	ra,9d3a <__b2d>
    9eda:	89aa                	mv	s3,a0
    9edc:	84ae                	mv	s1,a1
    9ede:	842e                	mv	s0,a1
    9ee0:	854a                	mv	a0,s2
    9ee2:	006c                	addi	a1,sp,12
    9ee4:	e57ff0ef          	jal	ra,9d3a <__b2d>
    9ee8:	01092783          	lw	a5,16(s2)
    9eec:	010a2703          	lw	a4,16(s4)
    9ef0:	46a2                	lw	a3,8(sp)
    9ef2:	8f1d                	sub	a4,a4,a5
    9ef4:	47b2                	lw	a5,12(sp)
    9ef6:	0716                	slli	a4,a4,0x5
    9ef8:	8e9d                	sub	a3,a3,a5
    9efa:	00d707b3          	add	a5,a4,a3
    9efe:	02f05563          	blez	a5,9f28 <__ratio+0x66>
    9f02:	07d2                	slli	a5,a5,0x14
    9f04:	862e                	mv	a2,a1
    9f06:	00978433          	add	s0,a5,s1
    9f0a:	8732                	mv	a4,a2
    9f0c:	85a2                	mv	a1,s0
    9f0e:	862a                	mv	a2,a0
    9f10:	86ba                	mv	a3,a4
    9f12:	854e                	mv	a0,s3
    9f14:	f1bf90ef          	jal	ra,3e2e <__divdf3>
    9f18:	50b2                	lw	ra,44(sp)
    9f1a:	5422                	lw	s0,40(sp)
    9f1c:	5492                	lw	s1,36(sp)
    9f1e:	5902                	lw	s2,32(sp)
    9f20:	49f2                	lw	s3,28(sp)
    9f22:	4a62                	lw	s4,24(sp)
    9f24:	6145                	addi	sp,sp,48
    9f26:	8082                	ret
    9f28:	fff00737          	lui	a4,0xfff00
    9f2c:	02e787b3          	mul	a5,a5,a4
    9f30:	00b78633          	add	a2,a5,a1
    9f34:	bfd9                	j	9f0a <__ratio+0x48>

00009f36 <__copybits>:
    9f36:	fff58793          	addi	a5,a1,-1 # 7ffff <_data_lma+0x72dab>
    9f3a:	4a18                	lw	a4,16(a2)
    9f3c:	8795                	srai	a5,a5,0x5
    9f3e:	0785                	addi	a5,a5,1
    9f40:	078a                	slli	a5,a5,0x2
    9f42:	01460693          	addi	a3,a2,20
    9f46:	070a                	slli	a4,a4,0x2
    9f48:	97aa                	add	a5,a5,a0
    9f4a:	9736                	add	a4,a4,a3
    9f4c:	00e6e563          	bltu	a3,a4,9f56 <__copybits+0x20>
    9f50:	00f56a63          	bltu	a0,a5,9f64 <__copybits+0x2e>
    9f54:	8082                	ret
    9f56:	0691                	addi	a3,a3,4
    9f58:	ffc6a603          	lw	a2,-4(a3) # 3feffffc <_eusrstack+0x1fef7ffc>
    9f5c:	0511                	addi	a0,a0,4
    9f5e:	fec52e23          	sw	a2,-4(a0)
    9f62:	b7ed                	j	9f4c <__copybits+0x16>
    9f64:	0511                	addi	a0,a0,4
    9f66:	fe052e23          	sw	zero,-4(a0)
    9f6a:	b7dd                	j	9f50 <__copybits+0x1a>

00009f6c <__any_on>:
    9f6c:	4914                	lw	a3,16(a0)
    9f6e:	4055d793          	srai	a5,a1,0x5
    9f72:	01450713          	addi	a4,a0,20
    9f76:	02f6c763          	blt	a3,a5,9fa4 <__any_on+0x38>
    9f7a:	00d7df63          	bge	a5,a3,9f98 <__any_on+0x2c>
    9f7e:	89fd                	andi	a1,a1,31
    9f80:	cd81                	beqz	a1,9f98 <__any_on+0x2c>
    9f82:	00279693          	slli	a3,a5,0x2
    9f86:	96ba                	add	a3,a3,a4
    9f88:	4290                	lw	a2,0(a3)
    9f8a:	4505                	li	a0,1
    9f8c:	00b656b3          	srl	a3,a2,a1
    9f90:	00b695b3          	sll	a1,a3,a1
    9f94:	00b61e63          	bne	a2,a1,9fb0 <__any_on+0x44>
    9f98:	078a                	slli	a5,a5,0x2
    9f9a:	97ba                	add	a5,a5,a4
    9f9c:	00f76663          	bltu	a4,a5,9fa8 <__any_on+0x3c>
    9fa0:	4501                	li	a0,0
    9fa2:	8082                	ret
    9fa4:	87b6                	mv	a5,a3
    9fa6:	bfcd                	j	9f98 <__any_on+0x2c>
    9fa8:	17f1                	addi	a5,a5,-4
    9faa:	4394                	lw	a3,0(a5)
    9fac:	dae5                	beqz	a3,9f9c <__any_on+0x30>
    9fae:	4505                	li	a0,1
    9fb0:	8082                	ret

00009fb2 <_calloc_r>:
    9fb2:	02c58633          	mul	a2,a1,a2
    9fb6:	1101                	addi	sp,sp,-32
    9fb8:	cc22                	sw	s0,24(sp)
    9fba:	ce06                	sw	ra,28(sp)
    9fbc:	85b2                	mv	a1,a2
    9fbe:	c632                	sw	a2,12(sp)
    9fc0:	20c1                	jal	a080 <_malloc_r>
    9fc2:	842a                	mv	s0,a0
    9fc4:	c509                	beqz	a0,9fce <_calloc_r+0x1c>
    9fc6:	4632                	lw	a2,12(sp)
    9fc8:	4581                	li	a1,0
    9fca:	a36f60ef          	jal	ra,200 <memset>
    9fce:	8522                	mv	a0,s0
    9fd0:	40f2                	lw	ra,28(sp)
    9fd2:	4462                	lw	s0,24(sp)
    9fd4:	6105                	addi	sp,sp,32
    9fd6:	8082                	ret

00009fd8 <_free_r>:
    9fd8:	c1dd                	beqz	a1,a07e <_free_r+0xa6>
    9fda:	ffc5a783          	lw	a5,-4(a1)
    9fde:	1141                	addi	sp,sp,-16
    9fe0:	c422                	sw	s0,8(sp)
    9fe2:	c606                	sw	ra,12(sp)
    9fe4:	c226                	sw	s1,4(sp)
    9fe6:	ffc58413          	addi	s0,a1,-4
    9fea:	0007d363          	bgez	a5,9ff0 <_free_r+0x18>
    9fee:	943e                	add	s0,s0,a5
    9ff0:	84aa                	mv	s1,a0
    9ff2:	6d1000ef          	jal	ra,aec2 <__malloc_lock>
    9ff6:	84818793          	addi	a5,gp,-1976 # 20000228 <__malloc_free_list>
    9ffa:	439c                	lw	a5,0(a5)
    9ffc:	ef81                	bnez	a5,a014 <_free_r+0x3c>
    9ffe:	00042223          	sw	zero,4(s0)
    a002:	8481a423          	sw	s0,-1976(gp) # 20000228 <__malloc_free_list>
    a006:	4422                	lw	s0,8(sp)
    a008:	40b2                	lw	ra,12(sp)
    a00a:	8526                	mv	a0,s1
    a00c:	4492                	lw	s1,4(sp)
    a00e:	0141                	addi	sp,sp,16
    a010:	6b50006f          	j	aec4 <__malloc_unlock>
    a014:	00f47e63          	bgeu	s0,a5,a030 <_free_r+0x58>
    a018:	4014                	lw	a3,0(s0)
    a01a:	00d40733          	add	a4,s0,a3
    a01e:	00e79663          	bne	a5,a4,a02a <_free_r+0x52>
    a022:	4398                	lw	a4,0(a5)
    a024:	43dc                	lw	a5,4(a5)
    a026:	9736                	add	a4,a4,a3
    a028:	c018                	sw	a4,0(s0)
    a02a:	c05c                	sw	a5,4(s0)
    a02c:	bfd9                	j	a002 <_free_r+0x2a>
    a02e:	87ba                	mv	a5,a4
    a030:	43d8                	lw	a4,4(a5)
    a032:	c319                	beqz	a4,a038 <_free_r+0x60>
    a034:	fee47de3          	bgeu	s0,a4,a02e <_free_r+0x56>
    a038:	4394                	lw	a3,0(a5)
    a03a:	00d78633          	add	a2,a5,a3
    a03e:	00861f63          	bne	a2,s0,a05c <_free_r+0x84>
    a042:	4010                	lw	a2,0(s0)
    a044:	96b2                	add	a3,a3,a2
    a046:	c394                	sw	a3,0(a5)
    a048:	00d78633          	add	a2,a5,a3
    a04c:	fac71de3          	bne	a4,a2,a006 <_free_r+0x2e>
    a050:	4310                	lw	a2,0(a4)
    a052:	4358                	lw	a4,4(a4)
    a054:	96b2                	add	a3,a3,a2
    a056:	c394                	sw	a3,0(a5)
    a058:	c3d8                	sw	a4,4(a5)
    a05a:	b775                	j	a006 <_free_r+0x2e>
    a05c:	00c47563          	bgeu	s0,a2,a066 <_free_r+0x8e>
    a060:	47b1                	li	a5,12
    a062:	c09c                	sw	a5,0(s1)
    a064:	b74d                	j	a006 <_free_r+0x2e>
    a066:	4010                	lw	a2,0(s0)
    a068:	00c406b3          	add	a3,s0,a2
    a06c:	00d71663          	bne	a4,a3,a078 <_free_r+0xa0>
    a070:	4314                	lw	a3,0(a4)
    a072:	4358                	lw	a4,4(a4)
    a074:	96b2                	add	a3,a3,a2
    a076:	c014                	sw	a3,0(s0)
    a078:	c058                	sw	a4,4(s0)
    a07a:	c3c0                	sw	s0,4(a5)
    a07c:	b769                	j	a006 <_free_r+0x2e>
    a07e:	8082                	ret

0000a080 <_malloc_r>:
    a080:	1101                	addi	sp,sp,-32
    a082:	ca26                	sw	s1,20(sp)
    a084:	00358493          	addi	s1,a1,3
    a088:	98f1                	andi	s1,s1,-4
    a08a:	ce06                	sw	ra,28(sp)
    a08c:	cc22                	sw	s0,24(sp)
    a08e:	c84a                	sw	s2,16(sp)
    a090:	c64e                	sw	s3,12(sp)
    a092:	04a1                	addi	s1,s1,8
    a094:	47b1                	li	a5,12
    a096:	04f4f563          	bgeu	s1,a5,a0e0 <_malloc_r+0x60>
    a09a:	44b1                	li	s1,12
    a09c:	04b4e463          	bltu	s1,a1,a0e4 <_malloc_r+0x64>
    a0a0:	892a                	mv	s2,a0
    a0a2:	621000ef          	jal	ra,aec2 <__malloc_lock>
    a0a6:	84818793          	addi	a5,gp,-1976 # 20000228 <__malloc_free_list>
    a0aa:	4398                	lw	a4,0(a5)
    a0ac:	843a                	mv	s0,a4
    a0ae:	e429                	bnez	s0,a0f8 <_malloc_r+0x78>
    a0b0:	84c18793          	addi	a5,gp,-1972 # 2000022c <__malloc_sbrk_start>
    a0b4:	439c                	lw	a5,0(a5)
    a0b6:	e799                	bnez	a5,a0c4 <_malloc_r+0x44>
    a0b8:	4581                	li	a1,0
    a0ba:	854a                	mv	a0,s2
    a0bc:	796000ef          	jal	ra,a852 <_sbrk_r>
    a0c0:	84a1a623          	sw	a0,-1972(gp) # 2000022c <__malloc_sbrk_start>
    a0c4:	85a6                	mv	a1,s1
    a0c6:	854a                	mv	a0,s2
    a0c8:	78a000ef          	jal	ra,a852 <_sbrk_r>
    a0cc:	59fd                	li	s3,-1
    a0ce:	07351963          	bne	a0,s3,a140 <_malloc_r+0xc0>
    a0d2:	47b1                	li	a5,12
    a0d4:	00f92023          	sw	a5,0(s2)
    a0d8:	854a                	mv	a0,s2
    a0da:	5eb000ef          	jal	ra,aec4 <__malloc_unlock>
    a0de:	a029                	j	a0e8 <_malloc_r+0x68>
    a0e0:	fa04dee3          	bgez	s1,a09c <_malloc_r+0x1c>
    a0e4:	47b1                	li	a5,12
    a0e6:	c11c                	sw	a5,0(a0)
    a0e8:	4501                	li	a0,0
    a0ea:	40f2                	lw	ra,28(sp)
    a0ec:	4462                	lw	s0,24(sp)
    a0ee:	44d2                	lw	s1,20(sp)
    a0f0:	4942                	lw	s2,16(sp)
    a0f2:	49b2                	lw	s3,12(sp)
    a0f4:	6105                	addi	sp,sp,32
    a0f6:	8082                	ret
    a0f8:	401c                	lw	a5,0(s0)
    a0fa:	8f85                	sub	a5,a5,s1
    a0fc:	0207cf63          	bltz	a5,a13a <_malloc_r+0xba>
    a100:	46ad                	li	a3,11
    a102:	00f6f663          	bgeu	a3,a5,a10e <_malloc_r+0x8e>
    a106:	c01c                	sw	a5,0(s0)
    a108:	943e                	add	s0,s0,a5
    a10a:	c004                	sw	s1,0(s0)
    a10c:	a031                	j	a118 <_malloc_r+0x98>
    a10e:	405c                	lw	a5,4(s0)
    a110:	02871363          	bne	a4,s0,a136 <_malloc_r+0xb6>
    a114:	84f1a423          	sw	a5,-1976(gp) # 20000228 <__malloc_free_list>
    a118:	854a                	mv	a0,s2
    a11a:	5ab000ef          	jal	ra,aec4 <__malloc_unlock>
    a11e:	00b40513          	addi	a0,s0,11
    a122:	00440793          	addi	a5,s0,4
    a126:	9961                	andi	a0,a0,-8
    a128:	40f50733          	sub	a4,a0,a5
    a12c:	df5d                	beqz	a4,a0ea <_malloc_r+0x6a>
    a12e:	943a                	add	s0,s0,a4
    a130:	8f89                	sub	a5,a5,a0
    a132:	c01c                	sw	a5,0(s0)
    a134:	bf5d                	j	a0ea <_malloc_r+0x6a>
    a136:	c35c                	sw	a5,4(a4)
    a138:	b7c5                	j	a118 <_malloc_r+0x98>
    a13a:	8722                	mv	a4,s0
    a13c:	4040                	lw	s0,4(s0)
    a13e:	bf85                	j	a0ae <_malloc_r+0x2e>
    a140:	00350413          	addi	s0,a0,3
    a144:	9871                	andi	s0,s0,-4
    a146:	fc8502e3          	beq	a0,s0,a10a <_malloc_r+0x8a>
    a14a:	40a405b3          	sub	a1,s0,a0
    a14e:	854a                	mv	a0,s2
    a150:	2709                	jal	a852 <_sbrk_r>
    a152:	fb351ce3          	bne	a0,s3,a10a <_malloc_r+0x8a>
    a156:	bfb5                	j	a0d2 <_malloc_r+0x52>

0000a158 <__ssputs_r>:
    a158:	1101                	addi	sp,sp,-32
    a15a:	c84a                	sw	s2,16(sp)
    a15c:	0085a903          	lw	s2,8(a1)
    a160:	cc22                	sw	s0,24(sp)
    a162:	c452                	sw	s4,8(sp)
    a164:	c05a                	sw	s6,0(sp)
    a166:	ce06                	sw	ra,28(sp)
    a168:	ca26                	sw	s1,20(sp)
    a16a:	c64e                	sw	s3,12(sp)
    a16c:	c256                	sw	s5,4(sp)
    a16e:	842e                	mv	s0,a1
    a170:	8b32                	mv	s6,a2
    a172:	8a36                	mv	s4,a3
    a174:	0926ee63          	bltu	a3,s2,a210 <__ssputs_r+0xb8>
    a178:	00c5d783          	lhu	a5,12(a1)
    a17c:	4807f713          	andi	a4,a5,1152
    a180:	c751                	beqz	a4,a20c <__ssputs_r+0xb4>
    a182:	4004                	lw	s1,0(s0)
    a184:	498c                	lw	a1,16(a1)
    a186:	4858                	lw	a4,20(s0)
    a188:	8aaa                	mv	s5,a0
    a18a:	40b489b3          	sub	s3,s1,a1
    a18e:	448d                	li	s1,3
    a190:	02e484b3          	mul	s1,s1,a4
    a194:	4709                	li	a4,2
    a196:	02e4c4b3          	div	s1,s1,a4
    a19a:	00168713          	addi	a4,a3,1
    a19e:	974e                	add	a4,a4,s3
    a1a0:	00e4f363          	bgeu	s1,a4,a1a6 <__ssputs_r+0x4e>
    a1a4:	84ba                	mv	s1,a4
    a1a6:	4007f793          	andi	a5,a5,1024
    a1aa:	c3d9                	beqz	a5,a230 <__ssputs_r+0xd8>
    a1ac:	85a6                	mv	a1,s1
    a1ae:	8556                	mv	a0,s5
    a1b0:	ed1ff0ef          	jal	ra,a080 <_malloc_r>
    a1b4:	892a                	mv	s2,a0
    a1b6:	e50d                	bnez	a0,a1e0 <__ssputs_r+0x88>
    a1b8:	47b1                	li	a5,12
    a1ba:	00faa023          	sw	a5,0(s5)
    a1be:	00c45783          	lhu	a5,12(s0)
    a1c2:	557d                	li	a0,-1
    a1c4:	0407e793          	ori	a5,a5,64
    a1c8:	00f41623          	sh	a5,12(s0)
    a1cc:	40f2                	lw	ra,28(sp)
    a1ce:	4462                	lw	s0,24(sp)
    a1d0:	44d2                	lw	s1,20(sp)
    a1d2:	4942                	lw	s2,16(sp)
    a1d4:	49b2                	lw	s3,12(sp)
    a1d6:	4a22                	lw	s4,8(sp)
    a1d8:	4a92                	lw	s5,4(sp)
    a1da:	4b02                	lw	s6,0(sp)
    a1dc:	6105                	addi	sp,sp,32
    a1de:	8082                	ret
    a1e0:	480c                	lw	a1,16(s0)
    a1e2:	864e                	mv	a2,s3
    a1e4:	b8cff0ef          	jal	ra,9570 <memcpy>
    a1e8:	00c45783          	lhu	a5,12(s0)
    a1ec:	b7f7f793          	andi	a5,a5,-1153
    a1f0:	0807e793          	ori	a5,a5,128
    a1f4:	00f41623          	sh	a5,12(s0)
    a1f8:	01242823          	sw	s2,16(s0)
    a1fc:	c844                	sw	s1,20(s0)
    a1fe:	994e                	add	s2,s2,s3
    a200:	413484b3          	sub	s1,s1,s3
    a204:	01242023          	sw	s2,0(s0)
    a208:	c404                	sw	s1,8(s0)
    a20a:	8952                	mv	s2,s4
    a20c:	012a7363          	bgeu	s4,s2,a212 <__ssputs_r+0xba>
    a210:	8952                	mv	s2,s4
    a212:	4008                	lw	a0,0(s0)
    a214:	864a                	mv	a2,s2
    a216:	85da                	mv	a1,s6
    a218:	461000ef          	jal	ra,ae78 <memmove>
    a21c:	441c                	lw	a5,8(s0)
    a21e:	4501                	li	a0,0
    a220:	412787b3          	sub	a5,a5,s2
    a224:	c41c                	sw	a5,8(s0)
    a226:	401c                	lw	a5,0(s0)
    a228:	993e                	add	s2,s2,a5
    a22a:	01242023          	sw	s2,0(s0)
    a22e:	bf79                	j	a1cc <__ssputs_r+0x74>
    a230:	8626                	mv	a2,s1
    a232:	8556                	mv	a0,s5
    a234:	493000ef          	jal	ra,aec6 <_realloc_r>
    a238:	892a                	mv	s2,a0
    a23a:	fd5d                	bnez	a0,a1f8 <__ssputs_r+0xa0>
    a23c:	480c                	lw	a1,16(s0)
    a23e:	8556                	mv	a0,s5
    a240:	d99ff0ef          	jal	ra,9fd8 <_free_r>
    a244:	bf95                	j	a1b8 <__ssputs_r+0x60>

0000a246 <_svfiprintf_r>:
    a246:	00c5d783          	lhu	a5,12(a1)
    a24a:	7171                	addi	sp,sp,-176
    a24c:	d326                	sw	s1,164(sp)
    a24e:	d14a                	sw	s2,160(sp)
    a250:	cf4e                	sw	s3,156(sp)
    a252:	d706                	sw	ra,172(sp)
    a254:	d522                	sw	s0,168(sp)
    a256:	cd52                	sw	s4,152(sp)
    a258:	cb56                	sw	s5,148(sp)
    a25a:	c95a                	sw	s6,144(sp)
    a25c:	c75e                	sw	s7,140(sp)
    a25e:	c562                	sw	s8,136(sp)
    a260:	c366                	sw	s9,132(sp)
    a262:	0807f793          	andi	a5,a5,128
    a266:	89aa                	mv	s3,a0
    a268:	892e                	mv	s2,a1
    a26a:	84b2                	mv	s1,a2
    a26c:	c3b9                	beqz	a5,a2b2 <_svfiprintf_r+0x6c>
    a26e:	499c                	lw	a5,16(a1)
    a270:	e3a9                	bnez	a5,a2b2 <_svfiprintf_r+0x6c>
    a272:	04000593          	li	a1,64
    a276:	c636                	sw	a3,12(sp)
    a278:	e09ff0ef          	jal	ra,a080 <_malloc_r>
    a27c:	00a92023          	sw	a0,0(s2)
    a280:	00a92823          	sw	a0,16(s2)
    a284:	46b2                	lw	a3,12(sp)
    a286:	e115                	bnez	a0,a2aa <_svfiprintf_r+0x64>
    a288:	47b1                	li	a5,12
    a28a:	00f9a023          	sw	a5,0(s3)
    a28e:	557d                	li	a0,-1
    a290:	50ba                	lw	ra,172(sp)
    a292:	542a                	lw	s0,168(sp)
    a294:	549a                	lw	s1,164(sp)
    a296:	590a                	lw	s2,160(sp)
    a298:	49fa                	lw	s3,156(sp)
    a29a:	4a6a                	lw	s4,152(sp)
    a29c:	4ada                	lw	s5,148(sp)
    a29e:	4b4a                	lw	s6,144(sp)
    a2a0:	4bba                	lw	s7,140(sp)
    a2a2:	4c2a                	lw	s8,136(sp)
    a2a4:	4c9a                	lw	s9,132(sp)
    a2a6:	614d                	addi	sp,sp,176
    a2a8:	8082                	ret
    a2aa:	04000793          	li	a5,64
    a2ae:	00f92a23          	sw	a5,20(s2)
    a2b2:	02000793          	li	a5,32
    a2b6:	02f10ca3          	sb	a5,57(sp)
    a2ba:	03000793          	li	a5,48
    a2be:	da02                	sw	zero,52(sp)
    a2c0:	02f10d23          	sb	a5,58(sp)
    a2c4:	ce36                	sw	a3,28(sp)
    a2c6:	02500b93          	li	s7,37
    a2ca:	00003a97          	auipc	s5,0x3
    a2ce:	e72a8a93          	addi	s5,s5,-398 # d13c <p05.3319+0xc>
    a2d2:	4c05                	li	s8,1
    a2d4:	4b29                	li	s6,10
    a2d6:	8426                	mv	s0,s1
    a2d8:	00044783          	lbu	a5,0(s0)
    a2dc:	c399                	beqz	a5,a2e2 <_svfiprintf_r+0x9c>
    a2de:	09779d63          	bne	a5,s7,a378 <_svfiprintf_r+0x132>
    a2e2:	40940cb3          	sub	s9,s0,s1
    a2e6:	000c8e63          	beqz	s9,a302 <_svfiprintf_r+0xbc>
    a2ea:	86e6                	mv	a3,s9
    a2ec:	8626                	mv	a2,s1
    a2ee:	85ca                	mv	a1,s2
    a2f0:	854e                	mv	a0,s3
    a2f2:	e67ff0ef          	jal	ra,a158 <__ssputs_r>
    a2f6:	57fd                	li	a5,-1
    a2f8:	1af50263          	beq	a0,a5,a49c <_svfiprintf_r+0x256>
    a2fc:	56d2                	lw	a3,52(sp)
    a2fe:	96e6                	add	a3,a3,s9
    a300:	da36                	sw	a3,52(sp)
    a302:	00044783          	lbu	a5,0(s0)
    a306:	18078b63          	beqz	a5,a49c <_svfiprintf_r+0x256>
    a30a:	57fd                	li	a5,-1
    a30c:	00140493          	addi	s1,s0,1
    a310:	d002                	sw	zero,32(sp)
    a312:	d602                	sw	zero,44(sp)
    a314:	d23e                	sw	a5,36(sp)
    a316:	d402                	sw	zero,40(sp)
    a318:	060101a3          	sb	zero,99(sp)
    a31c:	dc82                	sw	zero,120(sp)
    a31e:	0004c583          	lbu	a1,0(s1)
    a322:	4615                	li	a2,5
    a324:	8556                	mv	a0,s5
    a326:	a30ff0ef          	jal	ra,9556 <memchr>
    a32a:	00148413          	addi	s0,s1,1
    a32e:	5782                	lw	a5,32(sp)
    a330:	e531                	bnez	a0,a37c <_svfiprintf_r+0x136>
    a332:	0107f713          	andi	a4,a5,16
    a336:	c709                	beqz	a4,a340 <_svfiprintf_r+0xfa>
    a338:	02000713          	li	a4,32
    a33c:	06e101a3          	sb	a4,99(sp)
    a340:	0087f713          	andi	a4,a5,8
    a344:	c709                	beqz	a4,a34e <_svfiprintf_r+0x108>
    a346:	02b00713          	li	a4,43
    a34a:	06e101a3          	sb	a4,99(sp)
    a34e:	0004c683          	lbu	a3,0(s1)
    a352:	02a00713          	li	a4,42
    a356:	02e68b63          	beq	a3,a4,a38c <_svfiprintf_r+0x146>
    a35a:	57b2                	lw	a5,44(sp)
    a35c:	8426                	mv	s0,s1
    a35e:	4681                	li	a3,0
    a360:	4625                	li	a2,9
    a362:	00044703          	lbu	a4,0(s0)
    a366:	00140593          	addi	a1,s0,1
    a36a:	fd070713          	addi	a4,a4,-48 # ffefffd0 <_eusrstack+0xdfef7fd0>
    a36e:	06e67463          	bgeu	a2,a4,a3d6 <_svfiprintf_r+0x190>
    a372:	c68d                	beqz	a3,a39c <_svfiprintf_r+0x156>
    a374:	d63e                	sw	a5,44(sp)
    a376:	a01d                	j	a39c <_svfiprintf_r+0x156>
    a378:	0405                	addi	s0,s0,1
    a37a:	bfb9                	j	a2d8 <_svfiprintf_r+0x92>
    a37c:	41550533          	sub	a0,a0,s5
    a380:	00ac1533          	sll	a0,s8,a0
    a384:	8fc9                	or	a5,a5,a0
    a386:	d03e                	sw	a5,32(sp)
    a388:	84a2                	mv	s1,s0
    a38a:	bf51                	j	a31e <_svfiprintf_r+0xd8>
    a38c:	4772                	lw	a4,28(sp)
    a38e:	00470693          	addi	a3,a4,4
    a392:	4318                	lw	a4,0(a4)
    a394:	ce36                	sw	a3,28(sp)
    a396:	02074963          	bltz	a4,a3c8 <_svfiprintf_r+0x182>
    a39a:	d63a                	sw	a4,44(sp)
    a39c:	00044703          	lbu	a4,0(s0)
    a3a0:	02e00793          	li	a5,46
    a3a4:	04f71f63          	bne	a4,a5,a402 <_svfiprintf_r+0x1bc>
    a3a8:	00144703          	lbu	a4,1(s0)
    a3ac:	02a00793          	li	a5,42
    a3b0:	02f71b63          	bne	a4,a5,a3e6 <_svfiprintf_r+0x1a0>
    a3b4:	47f2                	lw	a5,28(sp)
    a3b6:	0409                	addi	s0,s0,2
    a3b8:	00478713          	addi	a4,a5,4 # 80000004 <_eusrstack+0x5fff8004>
    a3bc:	439c                	lw	a5,0(a5)
    a3be:	ce3a                	sw	a4,28(sp)
    a3c0:	0207c163          	bltz	a5,a3e2 <_svfiprintf_r+0x19c>
    a3c4:	d23e                	sw	a5,36(sp)
    a3c6:	a835                	j	a402 <_svfiprintf_r+0x1bc>
    a3c8:	40e00733          	neg	a4,a4
    a3cc:	0027e793          	ori	a5,a5,2
    a3d0:	d63a                	sw	a4,44(sp)
    a3d2:	d03e                	sw	a5,32(sp)
    a3d4:	b7e1                	j	a39c <_svfiprintf_r+0x156>
    a3d6:	036787b3          	mul	a5,a5,s6
    a3da:	4685                	li	a3,1
    a3dc:	842e                	mv	s0,a1
    a3de:	97ba                	add	a5,a5,a4
    a3e0:	b749                	j	a362 <_svfiprintf_r+0x11c>
    a3e2:	57fd                	li	a5,-1
    a3e4:	b7c5                	j	a3c4 <_svfiprintf_r+0x17e>
    a3e6:	0405                	addi	s0,s0,1
    a3e8:	d202                	sw	zero,36(sp)
    a3ea:	4681                	li	a3,0
    a3ec:	4781                	li	a5,0
    a3ee:	4625                	li	a2,9
    a3f0:	00044703          	lbu	a4,0(s0)
    a3f4:	00140593          	addi	a1,s0,1
    a3f8:	fd070713          	addi	a4,a4,-48
    a3fc:	06e67863          	bgeu	a2,a4,a46c <_svfiprintf_r+0x226>
    a400:	f2f1                	bnez	a3,a3c4 <_svfiprintf_r+0x17e>
    a402:	00044583          	lbu	a1,0(s0)
    a406:	460d                	li	a2,3
    a408:	00003517          	auipc	a0,0x3
    a40c:	d3c50513          	addi	a0,a0,-708 # d144 <p05.3319+0x14>
    a410:	946ff0ef          	jal	ra,9556 <memchr>
    a414:	cd11                	beqz	a0,a430 <_svfiprintf_r+0x1ea>
    a416:	00003797          	auipc	a5,0x3
    a41a:	d2e78793          	addi	a5,a5,-722 # d144 <p05.3319+0x14>
    a41e:	8d1d                	sub	a0,a0,a5
    a420:	04000793          	li	a5,64
    a424:	00a797b3          	sll	a5,a5,a0
    a428:	5502                	lw	a0,32(sp)
    a42a:	0405                	addi	s0,s0,1
    a42c:	8d5d                	or	a0,a0,a5
    a42e:	d02a                	sw	a0,32(sp)
    a430:	00044583          	lbu	a1,0(s0)
    a434:	4619                	li	a2,6
    a436:	00003517          	auipc	a0,0x3
    a43a:	d1250513          	addi	a0,a0,-750 # d148 <p05.3319+0x18>
    a43e:	00140493          	addi	s1,s0,1
    a442:	02b10c23          	sb	a1,56(sp)
    a446:	910ff0ef          	jal	ra,9556 <memchr>
    a44a:	c135                	beqz	a0,a4ae <_svfiprintf_r+0x268>
    a44c:	ffffc797          	auipc	a5,0xffffc
    a450:	dd478793          	addi	a5,a5,-556 # 6220 <_printf_float>
    a454:	e795                	bnez	a5,a480 <_svfiprintf_r+0x23a>
    a456:	5702                	lw	a4,32(sp)
    a458:	47f2                	lw	a5,28(sp)
    a45a:	10077713          	andi	a4,a4,256
    a45e:	cf09                	beqz	a4,a478 <_svfiprintf_r+0x232>
    a460:	0791                	addi	a5,a5,4
    a462:	ce3e                	sw	a5,28(sp)
    a464:	57d2                	lw	a5,52(sp)
    a466:	97d2                	add	a5,a5,s4
    a468:	da3e                	sw	a5,52(sp)
    a46a:	b5b5                	j	a2d6 <_svfiprintf_r+0x90>
    a46c:	036787b3          	mul	a5,a5,s6
    a470:	4685                	li	a3,1
    a472:	842e                	mv	s0,a1
    a474:	97ba                	add	a5,a5,a4
    a476:	bfad                	j	a3f0 <_svfiprintf_r+0x1aa>
    a478:	079d                	addi	a5,a5,7
    a47a:	9be1                	andi	a5,a5,-8
    a47c:	07a1                	addi	a5,a5,8
    a47e:	b7d5                	j	a462 <_svfiprintf_r+0x21c>
    a480:	0878                	addi	a4,sp,28
    a482:	00000697          	auipc	a3,0x0
    a486:	cd668693          	addi	a3,a3,-810 # a158 <__ssputs_r>
    a48a:	864a                	mv	a2,s2
    a48c:	100c                	addi	a1,sp,32
    a48e:	854e                	mv	a0,s3
    a490:	d91fb0ef          	jal	ra,6220 <_printf_float>
    a494:	57fd                	li	a5,-1
    a496:	8a2a                	mv	s4,a0
    a498:	fcf516e3          	bne	a0,a5,a464 <_svfiprintf_r+0x21e>
    a49c:	00c95783          	lhu	a5,12(s2)
    a4a0:	557d                	li	a0,-1
    a4a2:	0407f793          	andi	a5,a5,64
    a4a6:	de0795e3          	bnez	a5,a290 <_svfiprintf_r+0x4a>
    a4aa:	5552                	lw	a0,52(sp)
    a4ac:	b3d5                	j	a290 <_svfiprintf_r+0x4a>
    a4ae:	0878                	addi	a4,sp,28
    a4b0:	00000697          	auipc	a3,0x0
    a4b4:	ca868693          	addi	a3,a3,-856 # a158 <__ssputs_r>
    a4b8:	864a                	mv	a2,s2
    a4ba:	100c                	addi	a1,sp,32
    a4bc:	854e                	mv	a0,s3
    a4be:	b32fc0ef          	jal	ra,67f0 <_printf_i>
    a4c2:	bfc9                	j	a494 <_svfiprintf_r+0x24e>

0000a4c4 <__sfputc_r>:
    a4c4:	461c                	lw	a5,8(a2)
    a4c6:	17fd                	addi	a5,a5,-1
    a4c8:	c61c                	sw	a5,8(a2)
    a4ca:	0007d963          	bgez	a5,a4dc <__sfputc_r+0x18>
    a4ce:	4e18                	lw	a4,24(a2)
    a4d0:	00e7c563          	blt	a5,a4,a4da <__sfputc_r+0x16>
    a4d4:	47a9                	li	a5,10
    a4d6:	00f59363          	bne	a1,a5,a4dc <__sfputc_r+0x18>
    a4da:	a161                	j	a962 <__swbuf_r>
    a4dc:	421c                	lw	a5,0(a2)
    a4de:	852e                	mv	a0,a1
    a4e0:	00178713          	addi	a4,a5,1
    a4e4:	c218                	sw	a4,0(a2)
    a4e6:	00b78023          	sb	a1,0(a5)
    a4ea:	8082                	ret

0000a4ec <__sfputs_r>:
    a4ec:	1101                	addi	sp,sp,-32
    a4ee:	cc22                	sw	s0,24(sp)
    a4f0:	ca26                	sw	s1,20(sp)
    a4f2:	c84a                	sw	s2,16(sp)
    a4f4:	c64e                	sw	s3,12(sp)
    a4f6:	c452                	sw	s4,8(sp)
    a4f8:	ce06                	sw	ra,28(sp)
    a4fa:	892a                	mv	s2,a0
    a4fc:	89ae                	mv	s3,a1
    a4fe:	8432                	mv	s0,a2
    a500:	00d604b3          	add	s1,a2,a3
    a504:	5a7d                	li	s4,-1
    a506:	00941463          	bne	s0,s1,a50e <__sfputs_r+0x22>
    a50a:	4501                	li	a0,0
    a50c:	a811                	j	a520 <__sfputs_r+0x34>
    a50e:	00044583          	lbu	a1,0(s0)
    a512:	864e                	mv	a2,s3
    a514:	854a                	mv	a0,s2
    a516:	fafff0ef          	jal	ra,a4c4 <__sfputc_r>
    a51a:	0405                	addi	s0,s0,1
    a51c:	ff4515e3          	bne	a0,s4,a506 <__sfputs_r+0x1a>
    a520:	40f2                	lw	ra,28(sp)
    a522:	4462                	lw	s0,24(sp)
    a524:	44d2                	lw	s1,20(sp)
    a526:	4942                	lw	s2,16(sp)
    a528:	49b2                	lw	s3,12(sp)
    a52a:	4a22                	lw	s4,8(sp)
    a52c:	6105                	addi	sp,sp,32
    a52e:	8082                	ret

0000a530 <_vfiprintf_r>:
    a530:	7135                	addi	sp,sp,-160
    a532:	cd22                	sw	s0,152(sp)
    a534:	cb26                	sw	s1,148(sp)
    a536:	c94a                	sw	s2,144(sp)
    a538:	c74e                	sw	s3,140(sp)
    a53a:	cf06                	sw	ra,156(sp)
    a53c:	c552                	sw	s4,136(sp)
    a53e:	c356                	sw	s5,132(sp)
    a540:	c15a                	sw	s6,128(sp)
    a542:	dede                	sw	s7,124(sp)
    a544:	dce2                	sw	s8,120(sp)
    a546:	dae6                	sw	s9,116(sp)
    a548:	89aa                	mv	s3,a0
    a54a:	84ae                	mv	s1,a1
    a54c:	8932                	mv	s2,a2
    a54e:	8436                	mv	s0,a3
    a550:	c509                	beqz	a0,a55a <_vfiprintf_r+0x2a>
    a552:	4d1c                	lw	a5,24(a0)
    a554:	e399                	bnez	a5,a55a <_vfiprintf_r+0x2a>
    a556:	ee0fe0ef          	jal	ra,8c36 <__sinit>
    a55a:	00003797          	auipc	a5,0x3
    a55e:	a9678793          	addi	a5,a5,-1386 # cff0 <__sf_fake_stdin>
    a562:	0cf49d63          	bne	s1,a5,a63c <_vfiprintf_r+0x10c>
    a566:	0049a483          	lw	s1,4(s3)
    a56a:	00c4d783          	lhu	a5,12(s1)
    a56e:	8ba1                	andi	a5,a5,8
    a570:	cbe5                	beqz	a5,a660 <_vfiprintf_r+0x130>
    a572:	489c                	lw	a5,16(s1)
    a574:	c7f5                	beqz	a5,a660 <_vfiprintf_r+0x130>
    a576:	02000793          	li	a5,32
    a57a:	02f104a3          	sb	a5,41(sp)
    a57e:	03000793          	li	a5,48
    a582:	d202                	sw	zero,36(sp)
    a584:	02f10523          	sb	a5,42(sp)
    a588:	c622                	sw	s0,12(sp)
    a58a:	02500b93          	li	s7,37
    a58e:	00003a97          	auipc	s5,0x3
    a592:	baea8a93          	addi	s5,s5,-1106 # d13c <p05.3319+0xc>
    a596:	4c05                	li	s8,1
    a598:	4b29                	li	s6,10
    a59a:	844a                	mv	s0,s2
    a59c:	00044783          	lbu	a5,0(s0)
    a5a0:	c399                	beqz	a5,a5a6 <_vfiprintf_r+0x76>
    a5a2:	0f779163          	bne	a5,s7,a684 <_vfiprintf_r+0x154>
    a5a6:	41240cb3          	sub	s9,s0,s2
    a5aa:	000c8e63          	beqz	s9,a5c6 <_vfiprintf_r+0x96>
    a5ae:	86e6                	mv	a3,s9
    a5b0:	864a                	mv	a2,s2
    a5b2:	85a6                	mv	a1,s1
    a5b4:	854e                	mv	a0,s3
    a5b6:	f37ff0ef          	jal	ra,a4ec <__sfputs_r>
    a5ba:	57fd                	li	a5,-1
    a5bc:	1ef50663          	beq	a0,a5,a7a8 <_vfiprintf_r+0x278>
    a5c0:	5692                	lw	a3,36(sp)
    a5c2:	96e6                	add	a3,a3,s9
    a5c4:	d236                	sw	a3,36(sp)
    a5c6:	00044783          	lbu	a5,0(s0)
    a5ca:	1c078f63          	beqz	a5,a7a8 <_vfiprintf_r+0x278>
    a5ce:	57fd                	li	a5,-1
    a5d0:	00140913          	addi	s2,s0,1
    a5d4:	c802                	sw	zero,16(sp)
    a5d6:	ce02                	sw	zero,28(sp)
    a5d8:	ca3e                	sw	a5,20(sp)
    a5da:	cc02                	sw	zero,24(sp)
    a5dc:	040109a3          	sb	zero,83(sp)
    a5e0:	d482                	sw	zero,104(sp)
    a5e2:	00094583          	lbu	a1,0(s2)
    a5e6:	4615                	li	a2,5
    a5e8:	8556                	mv	a0,s5
    a5ea:	f6dfe0ef          	jal	ra,9556 <memchr>
    a5ee:	00190413          	addi	s0,s2,1
    a5f2:	47c2                	lw	a5,16(sp)
    a5f4:	e951                	bnez	a0,a688 <_vfiprintf_r+0x158>
    a5f6:	0107f713          	andi	a4,a5,16
    a5fa:	c709                	beqz	a4,a604 <_vfiprintf_r+0xd4>
    a5fc:	02000713          	li	a4,32
    a600:	04e109a3          	sb	a4,83(sp)
    a604:	0087f713          	andi	a4,a5,8
    a608:	c709                	beqz	a4,a612 <_vfiprintf_r+0xe2>
    a60a:	02b00713          	li	a4,43
    a60e:	04e109a3          	sb	a4,83(sp)
    a612:	00094683          	lbu	a3,0(s2)
    a616:	02a00713          	li	a4,42
    a61a:	06e68f63          	beq	a3,a4,a698 <_vfiprintf_r+0x168>
    a61e:	47f2                	lw	a5,28(sp)
    a620:	844a                	mv	s0,s2
    a622:	4681                	li	a3,0
    a624:	4625                	li	a2,9
    a626:	00044703          	lbu	a4,0(s0)
    a62a:	00140593          	addi	a1,s0,1
    a62e:	fd070713          	addi	a4,a4,-48
    a632:	0ae67863          	bgeu	a2,a4,a6e2 <_vfiprintf_r+0x1b2>
    a636:	caad                	beqz	a3,a6a8 <_vfiprintf_r+0x178>
    a638:	ce3e                	sw	a5,28(sp)
    a63a:	a0bd                	j	a6a8 <_vfiprintf_r+0x178>
    a63c:	00003797          	auipc	a5,0x3
    a640:	9d478793          	addi	a5,a5,-1580 # d010 <__sf_fake_stdout>
    a644:	00f49563          	bne	s1,a5,a64e <_vfiprintf_r+0x11e>
    a648:	0089a483          	lw	s1,8(s3)
    a64c:	bf39                	j	a56a <_vfiprintf_r+0x3a>
    a64e:	00003797          	auipc	a5,0x3
    a652:	98278793          	addi	a5,a5,-1662 # cfd0 <__sf_fake_stderr>
    a656:	f0f49ae3          	bne	s1,a5,a56a <_vfiprintf_r+0x3a>
    a65a:	00c9a483          	lw	s1,12(s3)
    a65e:	b731                	j	a56a <_vfiprintf_r+0x3a>
    a660:	85a6                	mv	a1,s1
    a662:	854e                	mv	a0,s3
    a664:	2139                	jal	aa72 <__swsetup_r>
    a666:	d901                	beqz	a0,a576 <_vfiprintf_r+0x46>
    a668:	557d                	li	a0,-1
    a66a:	40fa                	lw	ra,156(sp)
    a66c:	446a                	lw	s0,152(sp)
    a66e:	44da                	lw	s1,148(sp)
    a670:	494a                	lw	s2,144(sp)
    a672:	49ba                	lw	s3,140(sp)
    a674:	4a2a                	lw	s4,136(sp)
    a676:	4a9a                	lw	s5,132(sp)
    a678:	4b0a                	lw	s6,128(sp)
    a67a:	5bf6                	lw	s7,124(sp)
    a67c:	5c66                	lw	s8,120(sp)
    a67e:	5cd6                	lw	s9,116(sp)
    a680:	610d                	addi	sp,sp,160
    a682:	8082                	ret
    a684:	0405                	addi	s0,s0,1
    a686:	bf19                	j	a59c <_vfiprintf_r+0x6c>
    a688:	41550533          	sub	a0,a0,s5
    a68c:	00ac1533          	sll	a0,s8,a0
    a690:	8fc9                	or	a5,a5,a0
    a692:	c83e                	sw	a5,16(sp)
    a694:	8922                	mv	s2,s0
    a696:	b7b1                	j	a5e2 <_vfiprintf_r+0xb2>
    a698:	4732                	lw	a4,12(sp)
    a69a:	00470693          	addi	a3,a4,4
    a69e:	4318                	lw	a4,0(a4)
    a6a0:	c636                	sw	a3,12(sp)
    a6a2:	02074963          	bltz	a4,a6d4 <_vfiprintf_r+0x1a4>
    a6a6:	ce3a                	sw	a4,28(sp)
    a6a8:	00044703          	lbu	a4,0(s0)
    a6ac:	02e00793          	li	a5,46
    a6b0:	04f71f63          	bne	a4,a5,a70e <_vfiprintf_r+0x1de>
    a6b4:	00144703          	lbu	a4,1(s0)
    a6b8:	02a00793          	li	a5,42
    a6bc:	02f71b63          	bne	a4,a5,a6f2 <_vfiprintf_r+0x1c2>
    a6c0:	47b2                	lw	a5,12(sp)
    a6c2:	0409                	addi	s0,s0,2
    a6c4:	00478713          	addi	a4,a5,4
    a6c8:	439c                	lw	a5,0(a5)
    a6ca:	c63a                	sw	a4,12(sp)
    a6cc:	0207c163          	bltz	a5,a6ee <_vfiprintf_r+0x1be>
    a6d0:	ca3e                	sw	a5,20(sp)
    a6d2:	a835                	j	a70e <_vfiprintf_r+0x1de>
    a6d4:	40e00733          	neg	a4,a4
    a6d8:	0027e793          	ori	a5,a5,2
    a6dc:	ce3a                	sw	a4,28(sp)
    a6de:	c83e                	sw	a5,16(sp)
    a6e0:	b7e1                	j	a6a8 <_vfiprintf_r+0x178>
    a6e2:	036787b3          	mul	a5,a5,s6
    a6e6:	4685                	li	a3,1
    a6e8:	842e                	mv	s0,a1
    a6ea:	97ba                	add	a5,a5,a4
    a6ec:	bf2d                	j	a626 <_vfiprintf_r+0xf6>
    a6ee:	57fd                	li	a5,-1
    a6f0:	b7c5                	j	a6d0 <_vfiprintf_r+0x1a0>
    a6f2:	0405                	addi	s0,s0,1
    a6f4:	ca02                	sw	zero,20(sp)
    a6f6:	4681                	li	a3,0
    a6f8:	4781                	li	a5,0
    a6fa:	4625                	li	a2,9
    a6fc:	00044703          	lbu	a4,0(s0)
    a700:	00140593          	addi	a1,s0,1
    a704:	fd070713          	addi	a4,a4,-48
    a708:	06e67863          	bgeu	a2,a4,a778 <_vfiprintf_r+0x248>
    a70c:	f2f1                	bnez	a3,a6d0 <_vfiprintf_r+0x1a0>
    a70e:	00044583          	lbu	a1,0(s0)
    a712:	460d                	li	a2,3
    a714:	00003517          	auipc	a0,0x3
    a718:	a3050513          	addi	a0,a0,-1488 # d144 <p05.3319+0x14>
    a71c:	e3bfe0ef          	jal	ra,9556 <memchr>
    a720:	cd11                	beqz	a0,a73c <_vfiprintf_r+0x20c>
    a722:	00003797          	auipc	a5,0x3
    a726:	a2278793          	addi	a5,a5,-1502 # d144 <p05.3319+0x14>
    a72a:	8d1d                	sub	a0,a0,a5
    a72c:	04000793          	li	a5,64
    a730:	00a797b3          	sll	a5,a5,a0
    a734:	4542                	lw	a0,16(sp)
    a736:	0405                	addi	s0,s0,1
    a738:	8d5d                	or	a0,a0,a5
    a73a:	c82a                	sw	a0,16(sp)
    a73c:	00044583          	lbu	a1,0(s0)
    a740:	4619                	li	a2,6
    a742:	00003517          	auipc	a0,0x3
    a746:	a0650513          	addi	a0,a0,-1530 # d148 <p05.3319+0x18>
    a74a:	00140913          	addi	s2,s0,1
    a74e:	02b10423          	sb	a1,40(sp)
    a752:	e05fe0ef          	jal	ra,9556 <memchr>
    a756:	c12d                	beqz	a0,a7b8 <_vfiprintf_r+0x288>
    a758:	ffffc797          	auipc	a5,0xffffc
    a75c:	ac878793          	addi	a5,a5,-1336 # 6220 <_printf_float>
    a760:	e795                	bnez	a5,a78c <_vfiprintf_r+0x25c>
    a762:	4742                	lw	a4,16(sp)
    a764:	47b2                	lw	a5,12(sp)
    a766:	10077713          	andi	a4,a4,256
    a76a:	cf09                	beqz	a4,a784 <_vfiprintf_r+0x254>
    a76c:	0791                	addi	a5,a5,4
    a76e:	c63e                	sw	a5,12(sp)
    a770:	5792                	lw	a5,36(sp)
    a772:	97d2                	add	a5,a5,s4
    a774:	d23e                	sw	a5,36(sp)
    a776:	b515                	j	a59a <_vfiprintf_r+0x6a>
    a778:	036787b3          	mul	a5,a5,s6
    a77c:	4685                	li	a3,1
    a77e:	842e                	mv	s0,a1
    a780:	97ba                	add	a5,a5,a4
    a782:	bfad                	j	a6fc <_vfiprintf_r+0x1cc>
    a784:	079d                	addi	a5,a5,7
    a786:	9be1                	andi	a5,a5,-8
    a788:	07a1                	addi	a5,a5,8
    a78a:	b7d5                	j	a76e <_vfiprintf_r+0x23e>
    a78c:	0078                	addi	a4,sp,12
    a78e:	00000697          	auipc	a3,0x0
    a792:	d5e68693          	addi	a3,a3,-674 # a4ec <__sfputs_r>
    a796:	8626                	mv	a2,s1
    a798:	080c                	addi	a1,sp,16
    a79a:	854e                	mv	a0,s3
    a79c:	a85fb0ef          	jal	ra,6220 <_printf_float>
    a7a0:	57fd                	li	a5,-1
    a7a2:	8a2a                	mv	s4,a0
    a7a4:	fcf516e3          	bne	a0,a5,a770 <_vfiprintf_r+0x240>
    a7a8:	00c4d783          	lhu	a5,12(s1)
    a7ac:	0407f793          	andi	a5,a5,64
    a7b0:	ea079ce3          	bnez	a5,a668 <_vfiprintf_r+0x138>
    a7b4:	5512                	lw	a0,36(sp)
    a7b6:	bd55                	j	a66a <_vfiprintf_r+0x13a>
    a7b8:	0078                	addi	a4,sp,12
    a7ba:	00000697          	auipc	a3,0x0
    a7be:	d3268693          	addi	a3,a3,-718 # a4ec <__sfputs_r>
    a7c2:	8626                	mv	a2,s1
    a7c4:	080c                	addi	a1,sp,16
    a7c6:	854e                	mv	a0,s3
    a7c8:	828fc0ef          	jal	ra,67f0 <_printf_i>
    a7cc:	bfd1                	j	a7a0 <_vfiprintf_r+0x270>

0000a7ce <_putc_r>:
    a7ce:	1101                	addi	sp,sp,-32
    a7d0:	cc22                	sw	s0,24(sp)
    a7d2:	ce06                	sw	ra,28(sp)
    a7d4:	842a                	mv	s0,a0
    a7d6:	c909                	beqz	a0,a7e8 <_putc_r+0x1a>
    a7d8:	4d1c                	lw	a5,24(a0)
    a7da:	e799                	bnez	a5,a7e8 <_putc_r+0x1a>
    a7dc:	c632                	sw	a2,12(sp)
    a7de:	c42e                	sw	a1,8(sp)
    a7e0:	c56fe0ef          	jal	ra,8c36 <__sinit>
    a7e4:	4632                	lw	a2,12(sp)
    a7e6:	45a2                	lw	a1,8(sp)
    a7e8:	00003797          	auipc	a5,0x3
    a7ec:	80878793          	addi	a5,a5,-2040 # cff0 <__sf_fake_stdin>
    a7f0:	02f61563          	bne	a2,a5,a81a <_putc_r+0x4c>
    a7f4:	4050                	lw	a2,4(s0)
    a7f6:	461c                	lw	a5,8(a2)
    a7f8:	17fd                	addi	a5,a5,-1
    a7fa:	c61c                	sw	a5,8(a2)
    a7fc:	0207df63          	bgez	a5,a83a <_putc_r+0x6c>
    a800:	4e18                	lw	a4,24(a2)
    a802:	00e7c763          	blt	a5,a4,a810 <_putc_r+0x42>
    a806:	0ff5f793          	andi	a5,a1,255
    a80a:	4729                	li	a4,10
    a80c:	02e79763          	bne	a5,a4,a83a <_putc_r+0x6c>
    a810:	8522                	mv	a0,s0
    a812:	4462                	lw	s0,24(sp)
    a814:	40f2                	lw	ra,28(sp)
    a816:	6105                	addi	sp,sp,32
    a818:	a2a9                	j	a962 <__swbuf_r>
    a81a:	00002797          	auipc	a5,0x2
    a81e:	7f678793          	addi	a5,a5,2038 # d010 <__sf_fake_stdout>
    a822:	00f61463          	bne	a2,a5,a82a <_putc_r+0x5c>
    a826:	4410                	lw	a2,8(s0)
    a828:	b7f9                	j	a7f6 <_putc_r+0x28>
    a82a:	00002797          	auipc	a5,0x2
    a82e:	7a678793          	addi	a5,a5,1958 # cfd0 <__sf_fake_stderr>
    a832:	fcf612e3          	bne	a2,a5,a7f6 <_putc_r+0x28>
    a836:	4450                	lw	a2,12(s0)
    a838:	bf7d                	j	a7f6 <_putc_r+0x28>
    a83a:	421c                	lw	a5,0(a2)
    a83c:	0ff5f513          	andi	a0,a1,255
    a840:	00178713          	addi	a4,a5,1
    a844:	c218                	sw	a4,0(a2)
    a846:	00b78023          	sb	a1,0(a5)
    a84a:	40f2                	lw	ra,28(sp)
    a84c:	4462                	lw	s0,24(sp)
    a84e:	6105                	addi	sp,sp,32
    a850:	8082                	ret

0000a852 <_sbrk_r>:
    a852:	1141                	addi	sp,sp,-16
    a854:	c422                	sw	s0,8(sp)
    a856:	842a                	mv	s0,a0
    a858:	852e                	mv	a0,a1
    a85a:	d801aa23          	sw	zero,-620(gp) # 20000774 <errno>
    a85e:	c606                	sw	ra,12(sp)
    a860:	bedf80ef          	jal	ra,344c <_sbrk>
    a864:	57fd                	li	a5,-1
    a866:	00f51763          	bne	a0,a5,a874 <_sbrk_r+0x22>
    a86a:	d9418793          	addi	a5,gp,-620 # 20000774 <errno>
    a86e:	439c                	lw	a5,0(a5)
    a870:	c391                	beqz	a5,a874 <_sbrk_r+0x22>
    a872:	c01c                	sw	a5,0(s0)
    a874:	40b2                	lw	ra,12(sp)
    a876:	4422                	lw	s0,8(sp)
    a878:	0141                	addi	sp,sp,16
    a87a:	8082                	ret

0000a87c <__sread>:
    a87c:	1141                	addi	sp,sp,-16
    a87e:	c422                	sw	s0,8(sp)
    a880:	842e                	mv	s0,a1
    a882:	00e59583          	lh	a1,14(a1)
    a886:	c606                	sw	ra,12(sp)
    a888:	2d59                	jal	af1e <_read_r>
    a88a:	00054963          	bltz	a0,a89c <__sread+0x20>
    a88e:	487c                	lw	a5,84(s0)
    a890:	97aa                	add	a5,a5,a0
    a892:	c87c                	sw	a5,84(s0)
    a894:	40b2                	lw	ra,12(sp)
    a896:	4422                	lw	s0,8(sp)
    a898:	0141                	addi	sp,sp,16
    a89a:	8082                	ret
    a89c:	00c45783          	lhu	a5,12(s0)
    a8a0:	777d                	lui	a4,0xfffff
    a8a2:	177d                	addi	a4,a4,-1
    a8a4:	8ff9                	and	a5,a5,a4
    a8a6:	00f41623          	sh	a5,12(s0)
    a8aa:	b7ed                	j	a894 <__sread+0x18>

0000a8ac <__swrite>:
    a8ac:	00c5d783          	lhu	a5,12(a1)
    a8b0:	1101                	addi	sp,sp,-32
    a8b2:	cc22                	sw	s0,24(sp)
    a8b4:	ca26                	sw	s1,20(sp)
    a8b6:	c84a                	sw	s2,16(sp)
    a8b8:	c64e                	sw	s3,12(sp)
    a8ba:	ce06                	sw	ra,28(sp)
    a8bc:	1007f793          	andi	a5,a5,256
    a8c0:	84aa                	mv	s1,a0
    a8c2:	842e                	mv	s0,a1
    a8c4:	8932                	mv	s2,a2
    a8c6:	89b6                	mv	s3,a3
    a8c8:	c791                	beqz	a5,a8d4 <__swrite+0x28>
    a8ca:	00e59583          	lh	a1,14(a1)
    a8ce:	4689                	li	a3,2
    a8d0:	4601                	li	a2,0
    a8d2:	2141                	jal	ad52 <_lseek_r>
    a8d4:	00c45783          	lhu	a5,12(s0)
    a8d8:	777d                	lui	a4,0xfffff
    a8da:	177d                	addi	a4,a4,-1
    a8dc:	8ff9                	and	a5,a5,a4
    a8de:	00f41623          	sh	a5,12(s0)
    a8e2:	00e41583          	lh	a1,14(s0)
    a8e6:	4462                	lw	s0,24(sp)
    a8e8:	40f2                	lw	ra,28(sp)
    a8ea:	86ce                	mv	a3,s3
    a8ec:	864a                	mv	a2,s2
    a8ee:	49b2                	lw	s3,12(sp)
    a8f0:	4942                	lw	s2,16(sp)
    a8f2:	8526                	mv	a0,s1
    a8f4:	44d2                	lw	s1,20(sp)
    a8f6:	6105                	addi	sp,sp,32
    a8f8:	a2b1                	j	aa44 <_write_r>

0000a8fa <__sseek>:
    a8fa:	1141                	addi	sp,sp,-16
    a8fc:	c422                	sw	s0,8(sp)
    a8fe:	842e                	mv	s0,a1
    a900:	00e59583          	lh	a1,14(a1)
    a904:	c606                	sw	ra,12(sp)
    a906:	21b1                	jal	ad52 <_lseek_r>
    a908:	57fd                	li	a5,-1
    a90a:	00c45703          	lhu	a4,12(s0)
    a90e:	00f51b63          	bne	a0,a5,a924 <__sseek+0x2a>
    a912:	77fd                	lui	a5,0xfffff
    a914:	17fd                	addi	a5,a5,-1
    a916:	8ff9                	and	a5,a5,a4
    a918:	00f41623          	sh	a5,12(s0)
    a91c:	40b2                	lw	ra,12(sp)
    a91e:	4422                	lw	s0,8(sp)
    a920:	0141                	addi	sp,sp,16
    a922:	8082                	ret
    a924:	6785                	lui	a5,0x1
    a926:	8fd9                	or	a5,a5,a4
    a928:	00f41623          	sh	a5,12(s0)
    a92c:	c868                	sw	a0,84(s0)
    a92e:	b7fd                	j	a91c <__sseek+0x22>

0000a930 <__sclose>:
    a930:	00e59583          	lh	a1,14(a1)
    a934:	a4b9                	j	ab82 <_close_r>

0000a936 <strncmp>:
    a936:	c605                	beqz	a2,a95e <strncmp+0x28>
    a938:	167d                	addi	a2,a2,-1
    a93a:	4701                	li	a4,0
    a93c:	00e507b3          	add	a5,a0,a4
    a940:	00e586b3          	add	a3,a1,a4
    a944:	0007c783          	lbu	a5,0(a5) # 1000 <u8x8_d_ssd1306_sh1106_generic+0x6a>
    a948:	0006c683          	lbu	a3,0(a3)
    a94c:	00d79663          	bne	a5,a3,a958 <strncmp+0x22>
    a950:	00c70463          	beq	a4,a2,a958 <strncmp+0x22>
    a954:	0705                	addi	a4,a4,1
    a956:	f3fd                	bnez	a5,a93c <strncmp+0x6>
    a958:	40d78533          	sub	a0,a5,a3
    a95c:	8082                	ret
    a95e:	4501                	li	a0,0
    a960:	8082                	ret

0000a962 <__swbuf_r>:
    a962:	1101                	addi	sp,sp,-32
    a964:	cc22                	sw	s0,24(sp)
    a966:	ca26                	sw	s1,20(sp)
    a968:	c84a                	sw	s2,16(sp)
    a96a:	ce06                	sw	ra,28(sp)
    a96c:	c64e                	sw	s3,12(sp)
    a96e:	84aa                	mv	s1,a0
    a970:	892e                	mv	s2,a1
    a972:	8432                	mv	s0,a2
    a974:	c509                	beqz	a0,a97e <__swbuf_r+0x1c>
    a976:	4d1c                	lw	a5,24(a0)
    a978:	e399                	bnez	a5,a97e <__swbuf_r+0x1c>
    a97a:	abcfe0ef          	jal	ra,8c36 <__sinit>
    a97e:	00002797          	auipc	a5,0x2
    a982:	67278793          	addi	a5,a5,1650 # cff0 <__sf_fake_stdin>
    a986:	06f41963          	bne	s0,a5,a9f8 <__swbuf_r+0x96>
    a98a:	40c0                	lw	s0,4(s1)
    a98c:	4c1c                	lw	a5,24(s0)
    a98e:	c41c                	sw	a5,8(s0)
    a990:	00c45783          	lhu	a5,12(s0)
    a994:	8ba1                	andi	a5,a5,8
    a996:	c3c9                	beqz	a5,aa18 <__swbuf_r+0xb6>
    a998:	481c                	lw	a5,16(s0)
    a99a:	cfbd                	beqz	a5,aa18 <__swbuf_r+0xb6>
    a99c:	481c                	lw	a5,16(s0)
    a99e:	4008                	lw	a0,0(s0)
    a9a0:	0ff97993          	andi	s3,s2,255
    a9a4:	0ff97913          	andi	s2,s2,255
    a9a8:	8d1d                	sub	a0,a0,a5
    a9aa:	485c                	lw	a5,20(s0)
    a9ac:	00f54663          	blt	a0,a5,a9b8 <__swbuf_r+0x56>
    a9b0:	85a2                	mv	a1,s0
    a9b2:	8526                	mv	a0,s1
    a9b4:	2e1d                	jal	acea <_fflush_r>
    a9b6:	e52d                	bnez	a0,aa20 <__swbuf_r+0xbe>
    a9b8:	441c                	lw	a5,8(s0)
    a9ba:	0505                	addi	a0,a0,1
    a9bc:	17fd                	addi	a5,a5,-1
    a9be:	c41c                	sw	a5,8(s0)
    a9c0:	401c                	lw	a5,0(s0)
    a9c2:	00178713          	addi	a4,a5,1
    a9c6:	c018                	sw	a4,0(s0)
    a9c8:	01378023          	sb	s3,0(a5)
    a9cc:	485c                	lw	a5,20(s0)
    a9ce:	00a78963          	beq	a5,a0,a9e0 <__swbuf_r+0x7e>
    a9d2:	00c45783          	lhu	a5,12(s0)
    a9d6:	8b85                	andi	a5,a5,1
    a9d8:	cb81                	beqz	a5,a9e8 <__swbuf_r+0x86>
    a9da:	47a9                	li	a5,10
    a9dc:	00f91663          	bne	s2,a5,a9e8 <__swbuf_r+0x86>
    a9e0:	85a2                	mv	a1,s0
    a9e2:	8526                	mv	a0,s1
    a9e4:	2619                	jal	acea <_fflush_r>
    a9e6:	ed0d                	bnez	a0,aa20 <__swbuf_r+0xbe>
    a9e8:	40f2                	lw	ra,28(sp)
    a9ea:	4462                	lw	s0,24(sp)
    a9ec:	854a                	mv	a0,s2
    a9ee:	44d2                	lw	s1,20(sp)
    a9f0:	4942                	lw	s2,16(sp)
    a9f2:	49b2                	lw	s3,12(sp)
    a9f4:	6105                	addi	sp,sp,32
    a9f6:	8082                	ret
    a9f8:	00002797          	auipc	a5,0x2
    a9fc:	61878793          	addi	a5,a5,1560 # d010 <__sf_fake_stdout>
    aa00:	00f41463          	bne	s0,a5,aa08 <__swbuf_r+0xa6>
    aa04:	4480                	lw	s0,8(s1)
    aa06:	b759                	j	a98c <__swbuf_r+0x2a>
    aa08:	00002797          	auipc	a5,0x2
    aa0c:	5c878793          	addi	a5,a5,1480 # cfd0 <__sf_fake_stderr>
    aa10:	f6f41ee3          	bne	s0,a5,a98c <__swbuf_r+0x2a>
    aa14:	44c0                	lw	s0,12(s1)
    aa16:	bf9d                	j	a98c <__swbuf_r+0x2a>
    aa18:	85a2                	mv	a1,s0
    aa1a:	8526                	mv	a0,s1
    aa1c:	2899                	jal	aa72 <__swsetup_r>
    aa1e:	dd3d                	beqz	a0,a99c <__swbuf_r+0x3a>
    aa20:	597d                	li	s2,-1
    aa22:	b7d9                	j	a9e8 <__swbuf_r+0x86>

0000aa24 <__ascii_wctomb>:
    aa24:	cd91                	beqz	a1,aa40 <__ascii_wctomb+0x1c>
    aa26:	0ff00793          	li	a5,255
    aa2a:	00c7f763          	bgeu	a5,a2,aa38 <__ascii_wctomb+0x14>
    aa2e:	08a00793          	li	a5,138
    aa32:	c11c                	sw	a5,0(a0)
    aa34:	557d                	li	a0,-1
    aa36:	8082                	ret
    aa38:	00c58023          	sb	a2,0(a1)
    aa3c:	4505                	li	a0,1
    aa3e:	8082                	ret
    aa40:	4501                	li	a0,0
    aa42:	8082                	ret

0000aa44 <_write_r>:
    aa44:	1141                	addi	sp,sp,-16
    aa46:	c422                	sw	s0,8(sp)
    aa48:	842a                	mv	s0,a0
    aa4a:	852e                	mv	a0,a1
    aa4c:	85b2                	mv	a1,a2
    aa4e:	8636                	mv	a2,a3
    aa50:	d801aa23          	sw	zero,-620(gp) # 20000774 <errno>
    aa54:	c606                	sw	ra,12(sp)
    aa56:	9a7f80ef          	jal	ra,33fc <_write>
    aa5a:	57fd                	li	a5,-1
    aa5c:	00f51763          	bne	a0,a5,aa6a <_write_r+0x26>
    aa60:	d9418793          	addi	a5,gp,-620 # 20000774 <errno>
    aa64:	439c                	lw	a5,0(a5)
    aa66:	c391                	beqz	a5,aa6a <_write_r+0x26>
    aa68:	c01c                	sw	a5,0(s0)
    aa6a:	40b2                	lw	ra,12(sp)
    aa6c:	4422                	lw	s0,8(sp)
    aa6e:	0141                	addi	sp,sp,16
    aa70:	8082                	ret

0000aa72 <__swsetup_r>:
    aa72:	1141                	addi	sp,sp,-16
    aa74:	81018793          	addi	a5,gp,-2032 # 200001f0 <_impure_ptr>
    aa78:	c226                	sw	s1,4(sp)
    aa7a:	4384                	lw	s1,0(a5)
    aa7c:	c422                	sw	s0,8(sp)
    aa7e:	c04a                	sw	s2,0(sp)
    aa80:	c606                	sw	ra,12(sp)
    aa82:	892a                	mv	s2,a0
    aa84:	842e                	mv	s0,a1
    aa86:	c491                	beqz	s1,aa92 <__swsetup_r+0x20>
    aa88:	4c9c                	lw	a5,24(s1)
    aa8a:	e781                	bnez	a5,aa92 <__swsetup_r+0x20>
    aa8c:	8526                	mv	a0,s1
    aa8e:	9a8fe0ef          	jal	ra,8c36 <__sinit>
    aa92:	00002797          	auipc	a5,0x2
    aa96:	55e78793          	addi	a5,a5,1374 # cff0 <__sf_fake_stdin>
    aa9a:	02f41c63          	bne	s0,a5,aad2 <__swsetup_r+0x60>
    aa9e:	40c0                	lw	s0,4(s1)
    aaa0:	00c41703          	lh	a4,12(s0)
    aaa4:	01071793          	slli	a5,a4,0x10
    aaa8:	83c1                	srli	a5,a5,0x10
    aaaa:	0087f693          	andi	a3,a5,8
    aaae:	eebd                	bnez	a3,ab2c <__swsetup_r+0xba>
    aab0:	0107f693          	andi	a3,a5,16
    aab4:	ee9d                	bnez	a3,aaf2 <__swsetup_r+0x80>
    aab6:	47a5                	li	a5,9
    aab8:	00f92023          	sw	a5,0(s2)
    aabc:	04076713          	ori	a4,a4,64
    aac0:	00e41623          	sh	a4,12(s0)
    aac4:	557d                	li	a0,-1
    aac6:	40b2                	lw	ra,12(sp)
    aac8:	4422                	lw	s0,8(sp)
    aaca:	4492                	lw	s1,4(sp)
    aacc:	4902                	lw	s2,0(sp)
    aace:	0141                	addi	sp,sp,16
    aad0:	8082                	ret
    aad2:	00002797          	auipc	a5,0x2
    aad6:	53e78793          	addi	a5,a5,1342 # d010 <__sf_fake_stdout>
    aada:	00f41463          	bne	s0,a5,aae2 <__swsetup_r+0x70>
    aade:	4480                	lw	s0,8(s1)
    aae0:	b7c1                	j	aaa0 <__swsetup_r+0x2e>
    aae2:	00002797          	auipc	a5,0x2
    aae6:	4ee78793          	addi	a5,a5,1262 # cfd0 <__sf_fake_stderr>
    aaea:	faf41be3          	bne	s0,a5,aaa0 <__swsetup_r+0x2e>
    aaee:	44c0                	lw	s0,12(s1)
    aaf0:	bf45                	j	aaa0 <__swsetup_r+0x2e>
    aaf2:	8b91                	andi	a5,a5,4
    aaf4:	c795                	beqz	a5,ab20 <__swsetup_r+0xae>
    aaf6:	584c                	lw	a1,52(s0)
    aaf8:	c991                	beqz	a1,ab0c <__swsetup_r+0x9a>
    aafa:	04440793          	addi	a5,s0,68
    aafe:	00f58563          	beq	a1,a5,ab08 <__swsetup_r+0x96>
    ab02:	854a                	mv	a0,s2
    ab04:	cd4ff0ef          	jal	ra,9fd8 <_free_r>
    ab08:	02042a23          	sw	zero,52(s0)
    ab0c:	00c45783          	lhu	a5,12(s0)
    ab10:	00042223          	sw	zero,4(s0)
    ab14:	fdb7f793          	andi	a5,a5,-37
    ab18:	00f41623          	sh	a5,12(s0)
    ab1c:	481c                	lw	a5,16(s0)
    ab1e:	c01c                	sw	a5,0(s0)
    ab20:	00c45783          	lhu	a5,12(s0)
    ab24:	0087e793          	ori	a5,a5,8
    ab28:	00f41623          	sh	a5,12(s0)
    ab2c:	481c                	lw	a5,16(s0)
    ab2e:	ef81                	bnez	a5,ab46 <__swsetup_r+0xd4>
    ab30:	00c45783          	lhu	a5,12(s0)
    ab34:	20000713          	li	a4,512
    ab38:	2807f793          	andi	a5,a5,640
    ab3c:	00e78563          	beq	a5,a4,ab46 <__swsetup_r+0xd4>
    ab40:	85a2                	mv	a1,s0
    ab42:	854a                	mv	a0,s2
    ab44:	2c51                	jal	add8 <__smakebuf_r>
    ab46:	00c45783          	lhu	a5,12(s0)
    ab4a:	0017f713          	andi	a4,a5,1
    ab4e:	c705                	beqz	a4,ab76 <__swsetup_r+0x104>
    ab50:	485c                	lw	a5,20(s0)
    ab52:	00042423          	sw	zero,8(s0)
    ab56:	40f007b3          	neg	a5,a5
    ab5a:	cc1c                	sw	a5,24(s0)
    ab5c:	481c                	lw	a5,16(s0)
    ab5e:	4501                	li	a0,0
    ab60:	f3bd                	bnez	a5,aac6 <__swsetup_r+0x54>
    ab62:	00c41783          	lh	a5,12(s0)
    ab66:	0807f713          	andi	a4,a5,128
    ab6a:	df31                	beqz	a4,aac6 <__swsetup_r+0x54>
    ab6c:	0407e793          	ori	a5,a5,64
    ab70:	00f41623          	sh	a5,12(s0)
    ab74:	bf81                	j	aac4 <__swsetup_r+0x52>
    ab76:	8b89                	andi	a5,a5,2
    ab78:	4701                	li	a4,0
    ab7a:	e391                	bnez	a5,ab7e <__swsetup_r+0x10c>
    ab7c:	4858                	lw	a4,20(s0)
    ab7e:	c418                	sw	a4,8(s0)
    ab80:	bff1                	j	ab5c <__swsetup_r+0xea>

0000ab82 <_close_r>:
    ab82:	1141                	addi	sp,sp,-16
    ab84:	c422                	sw	s0,8(sp)
    ab86:	842a                	mv	s0,a0
    ab88:	852e                	mv	a0,a1
    ab8a:	d801aa23          	sw	zero,-620(gp) # 20000774 <errno>
    ab8e:	c606                	sw	ra,12(sp)
    ab90:	1bf000ef          	jal	ra,b54e <_close>
    ab94:	57fd                	li	a5,-1
    ab96:	00f51763          	bne	a0,a5,aba4 <_close_r+0x22>
    ab9a:	d9418793          	addi	a5,gp,-620 # 20000774 <errno>
    ab9e:	439c                	lw	a5,0(a5)
    aba0:	c391                	beqz	a5,aba4 <_close_r+0x22>
    aba2:	c01c                	sw	a5,0(s0)
    aba4:	40b2                	lw	ra,12(sp)
    aba6:	4422                	lw	s0,8(sp)
    aba8:	0141                	addi	sp,sp,16
    abaa:	8082                	ret

0000abac <__sflush_r>:
    abac:	00c5d783          	lhu	a5,12(a1)
    abb0:	1101                	addi	sp,sp,-32
    abb2:	cc22                	sw	s0,24(sp)
    abb4:	ca26                	sw	s1,20(sp)
    abb6:	ce06                	sw	ra,28(sp)
    abb8:	c84a                	sw	s2,16(sp)
    abba:	c64e                	sw	s3,12(sp)
    abbc:	0087f713          	andi	a4,a5,8
    abc0:	84aa                	mv	s1,a0
    abc2:	842e                	mv	s0,a1
    abc4:	ef79                	bnez	a4,aca2 <__sflush_r+0xf6>
    abc6:	41d8                	lw	a4,4(a1)
    abc8:	00e04d63          	bgtz	a4,abe2 <__sflush_r+0x36>
    abcc:	41b8                	lw	a4,64(a1)
    abce:	00e04a63          	bgtz	a4,abe2 <__sflush_r+0x36>
    abd2:	4501                	li	a0,0
    abd4:	40f2                	lw	ra,28(sp)
    abd6:	4462                	lw	s0,24(sp)
    abd8:	44d2                	lw	s1,20(sp)
    abda:	4942                	lw	s2,16(sp)
    abdc:	49b2                	lw	s3,12(sp)
    abde:	6105                	addi	sp,sp,32
    abe0:	8082                	ret
    abe2:	5458                	lw	a4,44(s0)
    abe4:	d77d                	beqz	a4,abd2 <__sflush_r+0x26>
    abe6:	0004a903          	lw	s2,0(s1)
    abea:	01379693          	slli	a3,a5,0x13
    abee:	0004a023          	sw	zero,0(s1)
    abf2:	0606de63          	bgez	a3,ac6e <__sflush_r+0xc2>
    abf6:	4870                	lw	a2,84(s0)
    abf8:	00c45783          	lhu	a5,12(s0)
    abfc:	8b91                	andi	a5,a5,4
    abfe:	c799                	beqz	a5,ac0c <__sflush_r+0x60>
    ac00:	405c                	lw	a5,4(s0)
    ac02:	8e1d                	sub	a2,a2,a5
    ac04:	585c                	lw	a5,52(s0)
    ac06:	c399                	beqz	a5,ac0c <__sflush_r+0x60>
    ac08:	403c                	lw	a5,64(s0)
    ac0a:	8e1d                	sub	a2,a2,a5
    ac0c:	545c                	lw	a5,44(s0)
    ac0e:	500c                	lw	a1,32(s0)
    ac10:	4681                	li	a3,0
    ac12:	8526                	mv	a0,s1
    ac14:	9782                	jalr	a5
    ac16:	57fd                	li	a5,-1
    ac18:	00c45703          	lhu	a4,12(s0)
    ac1c:	00f51d63          	bne	a0,a5,ac36 <__sflush_r+0x8a>
    ac20:	4094                	lw	a3,0(s1)
    ac22:	47f5                	li	a5,29
    ac24:	06d7e963          	bltu	a5,a3,ac96 <__sflush_r+0xea>
    ac28:	204007b7          	lui	a5,0x20400
    ac2c:	0785                	addi	a5,a5,1
    ac2e:	00d7d7b3          	srl	a5,a5,a3
    ac32:	8b85                	andi	a5,a5,1
    ac34:	c3ad                	beqz	a5,ac96 <__sflush_r+0xea>
    ac36:	481c                	lw	a5,16(s0)
    ac38:	00042223          	sw	zero,4(s0)
    ac3c:	c01c                	sw	a5,0(s0)
    ac3e:	01371793          	slli	a5,a4,0x13
    ac42:	0007d863          	bgez	a5,ac52 <__sflush_r+0xa6>
    ac46:	57fd                	li	a5,-1
    ac48:	00f51463          	bne	a0,a5,ac50 <__sflush_r+0xa4>
    ac4c:	409c                	lw	a5,0(s1)
    ac4e:	e391                	bnez	a5,ac52 <__sflush_r+0xa6>
    ac50:	c868                	sw	a0,84(s0)
    ac52:	584c                	lw	a1,52(s0)
    ac54:	0124a023          	sw	s2,0(s1)
    ac58:	ddad                	beqz	a1,abd2 <__sflush_r+0x26>
    ac5a:	04440793          	addi	a5,s0,68
    ac5e:	00f58563          	beq	a1,a5,ac68 <__sflush_r+0xbc>
    ac62:	8526                	mv	a0,s1
    ac64:	b74ff0ef          	jal	ra,9fd8 <_free_r>
    ac68:	02042a23          	sw	zero,52(s0)
    ac6c:	b79d                	j	abd2 <__sflush_r+0x26>
    ac6e:	500c                	lw	a1,32(s0)
    ac70:	4601                	li	a2,0
    ac72:	4685                	li	a3,1
    ac74:	8526                	mv	a0,s1
    ac76:	9702                	jalr	a4
    ac78:	57fd                	li	a5,-1
    ac7a:	862a                	mv	a2,a0
    ac7c:	f6f51ee3          	bne	a0,a5,abf8 <__sflush_r+0x4c>
    ac80:	409c                	lw	a5,0(s1)
    ac82:	dbbd                	beqz	a5,abf8 <__sflush_r+0x4c>
    ac84:	4775                	li	a4,29
    ac86:	00e78563          	beq	a5,a4,ac90 <__sflush_r+0xe4>
    ac8a:	4759                	li	a4,22
    ac8c:	04e79463          	bne	a5,a4,acd4 <__sflush_r+0x128>
    ac90:	0124a023          	sw	s2,0(s1)
    ac94:	bf3d                	j	abd2 <__sflush_r+0x26>
    ac96:	04076713          	ori	a4,a4,64
    ac9a:	00e41623          	sh	a4,12(s0)
    ac9e:	557d                	li	a0,-1
    aca0:	bf15                	j	abd4 <__sflush_r+0x28>
    aca2:	0105a983          	lw	s3,16(a1)
    aca6:	f20986e3          	beqz	s3,abd2 <__sflush_r+0x26>
    acaa:	0005a903          	lw	s2,0(a1)
    acae:	8b8d                	andi	a5,a5,3
    acb0:	0135a023          	sw	s3,0(a1)
    acb4:	41390933          	sub	s2,s2,s3
    acb8:	4701                	li	a4,0
    acba:	e391                	bnez	a5,acbe <__sflush_r+0x112>
    acbc:	49d8                	lw	a4,20(a1)
    acbe:	c418                	sw	a4,8(s0)
    acc0:	f12059e3          	blez	s2,abd2 <__sflush_r+0x26>
    acc4:	541c                	lw	a5,40(s0)
    acc6:	500c                	lw	a1,32(s0)
    acc8:	86ca                	mv	a3,s2
    acca:	864e                	mv	a2,s3
    accc:	8526                	mv	a0,s1
    acce:	9782                	jalr	a5
    acd0:	00a04963          	bgtz	a0,ace2 <__sflush_r+0x136>
    acd4:	00c45783          	lhu	a5,12(s0)
    acd8:	0407e793          	ori	a5,a5,64
    acdc:	00f41623          	sh	a5,12(s0)
    ace0:	bf7d                	j	ac9e <__sflush_r+0xf2>
    ace2:	99aa                	add	s3,s3,a0
    ace4:	40a90933          	sub	s2,s2,a0
    ace8:	bfe1                	j	acc0 <__sflush_r+0x114>

0000acea <_fflush_r>:
    acea:	499c                	lw	a5,16(a1)
    acec:	c3ad                	beqz	a5,ad4e <_fflush_r+0x64>
    acee:	1101                	addi	sp,sp,-32
    acf0:	cc22                	sw	s0,24(sp)
    acf2:	ce06                	sw	ra,28(sp)
    acf4:	842a                	mv	s0,a0
    acf6:	c519                	beqz	a0,ad04 <_fflush_r+0x1a>
    acf8:	4d1c                	lw	a5,24(a0)
    acfa:	e789                	bnez	a5,ad04 <_fflush_r+0x1a>
    acfc:	c62e                	sw	a1,12(sp)
    acfe:	f39fd0ef          	jal	ra,8c36 <__sinit>
    ad02:	45b2                	lw	a1,12(sp)
    ad04:	00002797          	auipc	a5,0x2
    ad08:	2ec78793          	addi	a5,a5,748 # cff0 <__sf_fake_stdin>
    ad0c:	00f59c63          	bne	a1,a5,ad24 <_fflush_r+0x3a>
    ad10:	404c                	lw	a1,4(s0)
    ad12:	00c59783          	lh	a5,12(a1)
    ad16:	c79d                	beqz	a5,ad44 <_fflush_r+0x5a>
    ad18:	8522                	mv	a0,s0
    ad1a:	4462                	lw	s0,24(sp)
    ad1c:	40f2                	lw	ra,28(sp)
    ad1e:	6105                	addi	sp,sp,32
    ad20:	e8dff06f          	j	abac <__sflush_r>
    ad24:	00002797          	auipc	a5,0x2
    ad28:	2ec78793          	addi	a5,a5,748 # d010 <__sf_fake_stdout>
    ad2c:	00f59463          	bne	a1,a5,ad34 <_fflush_r+0x4a>
    ad30:	440c                	lw	a1,8(s0)
    ad32:	b7c5                	j	ad12 <_fflush_r+0x28>
    ad34:	00002797          	auipc	a5,0x2
    ad38:	29c78793          	addi	a5,a5,668 # cfd0 <__sf_fake_stderr>
    ad3c:	fcf59be3          	bne	a1,a5,ad12 <_fflush_r+0x28>
    ad40:	444c                	lw	a1,12(s0)
    ad42:	bfc1                	j	ad12 <_fflush_r+0x28>
    ad44:	40f2                	lw	ra,28(sp)
    ad46:	4462                	lw	s0,24(sp)
    ad48:	4501                	li	a0,0
    ad4a:	6105                	addi	sp,sp,32
    ad4c:	8082                	ret
    ad4e:	4501                	li	a0,0
    ad50:	8082                	ret

0000ad52 <_lseek_r>:
    ad52:	1141                	addi	sp,sp,-16
    ad54:	c422                	sw	s0,8(sp)
    ad56:	842a                	mv	s0,a0
    ad58:	852e                	mv	a0,a1
    ad5a:	85b2                	mv	a1,a2
    ad5c:	8636                	mv	a2,a3
    ad5e:	d801aa23          	sw	zero,-620(gp) # 20000774 <errno>
    ad62:	c606                	sw	ra,12(sp)
    ad64:	00f000ef          	jal	ra,b572 <_lseek>
    ad68:	57fd                	li	a5,-1
    ad6a:	00f51763          	bne	a0,a5,ad78 <_lseek_r+0x26>
    ad6e:	d9418793          	addi	a5,gp,-620 # 20000774 <errno>
    ad72:	439c                	lw	a5,0(a5)
    ad74:	c391                	beqz	a5,ad78 <_lseek_r+0x26>
    ad76:	c01c                	sw	a5,0(s0)
    ad78:	40b2                	lw	ra,12(sp)
    ad7a:	4422                	lw	s0,8(sp)
    ad7c:	0141                	addi	sp,sp,16
    ad7e:	8082                	ret

0000ad80 <__swhatbuf_r>:
    ad80:	7119                	addi	sp,sp,-128
    ad82:	daa6                	sw	s1,116(sp)
    ad84:	84ae                	mv	s1,a1
    ad86:	00e59583          	lh	a1,14(a1)
    ad8a:	dca2                	sw	s0,120(sp)
    ad8c:	de86                	sw	ra,124(sp)
    ad8e:	8432                	mv	s0,a2
    ad90:	0005dc63          	bgez	a1,ada8 <__swhatbuf_r+0x28>
    ad94:	00c4d783          	lhu	a5,12(s1)
    ad98:	0006a023          	sw	zero,0(a3)
    ad9c:	0807f793          	andi	a5,a5,128
    ada0:	e39d                	bnez	a5,adc6 <__swhatbuf_r+0x46>
    ada2:	40000793          	li	a5,1024
    ada6:	a015                	j	adca <__swhatbuf_r+0x4a>
    ada8:	0830                	addi	a2,sp,24
    adaa:	c636                	sw	a3,12(sp)
    adac:	2a79                	jal	af4a <_fstat_r>
    adae:	46b2                	lw	a3,12(sp)
    adb0:	fe0542e3          	bltz	a0,ad94 <__swhatbuf_r+0x14>
    adb4:	4772                	lw	a4,28(sp)
    adb6:	67bd                	lui	a5,0xf
    adb8:	8ff9                	and	a5,a5,a4
    adba:	7779                	lui	a4,0xffffe
    adbc:	97ba                	add	a5,a5,a4
    adbe:	0017b793          	seqz	a5,a5
    adc2:	c29c                	sw	a5,0(a3)
    adc4:	bff9                	j	ada2 <__swhatbuf_r+0x22>
    adc6:	04000793          	li	a5,64
    adca:	c01c                	sw	a5,0(s0)
    adcc:	50f6                	lw	ra,124(sp)
    adce:	5466                	lw	s0,120(sp)
    add0:	54d6                	lw	s1,116(sp)
    add2:	4501                	li	a0,0
    add4:	6109                	addi	sp,sp,128
    add6:	8082                	ret

0000add8 <__smakebuf_r>:
    add8:	00c5d783          	lhu	a5,12(a1)
    addc:	1101                	addi	sp,sp,-32
    adde:	cc22                	sw	s0,24(sp)
    ade0:	ce06                	sw	ra,28(sp)
    ade2:	ca26                	sw	s1,20(sp)
    ade4:	c84a                	sw	s2,16(sp)
    ade6:	8b89                	andi	a5,a5,2
    ade8:	842e                	mv	s0,a1
    adea:	cf89                	beqz	a5,ae04 <__smakebuf_r+0x2c>
    adec:	04740793          	addi	a5,s0,71
    adf0:	c01c                	sw	a5,0(s0)
    adf2:	c81c                	sw	a5,16(s0)
    adf4:	4785                	li	a5,1
    adf6:	c85c                	sw	a5,20(s0)
    adf8:	40f2                	lw	ra,28(sp)
    adfa:	4462                	lw	s0,24(sp)
    adfc:	44d2                	lw	s1,20(sp)
    adfe:	4942                	lw	s2,16(sp)
    ae00:	6105                	addi	sp,sp,32
    ae02:	8082                	ret
    ae04:	0074                	addi	a3,sp,12
    ae06:	0030                	addi	a2,sp,8
    ae08:	84aa                	mv	s1,a0
    ae0a:	f77ff0ef          	jal	ra,ad80 <__swhatbuf_r>
    ae0e:	45a2                	lw	a1,8(sp)
    ae10:	892a                	mv	s2,a0
    ae12:	8526                	mv	a0,s1
    ae14:	a6cff0ef          	jal	ra,a080 <_malloc_r>
    ae18:	ed01                	bnez	a0,ae30 <__smakebuf_r+0x58>
    ae1a:	00c41783          	lh	a5,12(s0)
    ae1e:	2007f713          	andi	a4,a5,512
    ae22:	fb79                	bnez	a4,adf8 <__smakebuf_r+0x20>
    ae24:	9bf1                	andi	a5,a5,-4
    ae26:	0027e793          	ori	a5,a5,2
    ae2a:	00f41623          	sh	a5,12(s0)
    ae2e:	bf7d                	j	adec <__smakebuf_r+0x14>
    ae30:	ffffe797          	auipc	a5,0xffffe
    ae34:	db478793          	addi	a5,a5,-588 # 8be4 <_cleanup_r>
    ae38:	d49c                	sw	a5,40(s1)
    ae3a:	00c45783          	lhu	a5,12(s0)
    ae3e:	c008                	sw	a0,0(s0)
    ae40:	c808                	sw	a0,16(s0)
    ae42:	0807e793          	ori	a5,a5,128
    ae46:	00f41623          	sh	a5,12(s0)
    ae4a:	47a2                	lw	a5,8(sp)
    ae4c:	c85c                	sw	a5,20(s0)
    ae4e:	47b2                	lw	a5,12(sp)
    ae50:	cf89                	beqz	a5,ae6a <__smakebuf_r+0x92>
    ae52:	00e41583          	lh	a1,14(s0)
    ae56:	8526                	mv	a0,s1
    ae58:	2a31                	jal	af74 <_isatty_r>
    ae5a:	c901                	beqz	a0,ae6a <__smakebuf_r+0x92>
    ae5c:	00c45783          	lhu	a5,12(s0)
    ae60:	9bf1                	andi	a5,a5,-4
    ae62:	0017e793          	ori	a5,a5,1
    ae66:	00f41623          	sh	a5,12(s0)
    ae6a:	00c45783          	lhu	a5,12(s0)
    ae6e:	00f96933          	or	s2,s2,a5
    ae72:	01241623          	sh	s2,12(s0)
    ae76:	b749                	j	adf8 <__smakebuf_r+0x20>

0000ae78 <memmove>:
    ae78:	04a5f363          	bgeu	a1,a0,aebe <memmove+0x46>
    ae7c:	00c586b3          	add	a3,a1,a2
    ae80:	02d57f63          	bgeu	a0,a3,aebe <memmove+0x46>
    ae84:	fff64593          	not	a1,a2
    ae88:	4781                	li	a5,0
    ae8a:	17fd                	addi	a5,a5,-1
    ae8c:	00f59363          	bne	a1,a5,ae92 <memmove+0x1a>
    ae90:	8082                	ret
    ae92:	00f68733          	add	a4,a3,a5
    ae96:	00074803          	lbu	a6,0(a4) # ffffe000 <_eusrstack+0xdfff6000>
    ae9a:	00c78733          	add	a4,a5,a2
    ae9e:	972a                	add	a4,a4,a0
    aea0:	01070023          	sb	a6,0(a4)
    aea4:	b7dd                	j	ae8a <memmove+0x12>
    aea6:	00f58733          	add	a4,a1,a5
    aeaa:	00074683          	lbu	a3,0(a4)
    aeae:	00f50733          	add	a4,a0,a5
    aeb2:	0785                	addi	a5,a5,1
    aeb4:	00d70023          	sb	a3,0(a4)
    aeb8:	fef617e3          	bne	a2,a5,aea6 <memmove+0x2e>
    aebc:	8082                	ret
    aebe:	4781                	li	a5,0
    aec0:	bfe5                	j	aeb8 <memmove+0x40>

0000aec2 <__malloc_lock>:
    aec2:	8082                	ret

0000aec4 <__malloc_unlock>:
    aec4:	8082                	ret

0000aec6 <_realloc_r>:
    aec6:	e581                	bnez	a1,aece <_realloc_r+0x8>
    aec8:	85b2                	mv	a1,a2
    aeca:	9b6ff06f          	j	a080 <_malloc_r>
    aece:	1101                	addi	sp,sp,-32
    aed0:	cc22                	sw	s0,24(sp)
    aed2:	ce06                	sw	ra,28(sp)
    aed4:	ca26                	sw	s1,20(sp)
    aed6:	c84a                	sw	s2,16(sp)
    aed8:	c64e                	sw	s3,12(sp)
    aeda:	8432                	mv	s0,a2
    aedc:	ee01                	bnez	a2,aef4 <_realloc_r+0x2e>
    aede:	8faff0ef          	jal	ra,9fd8 <_free_r>
    aee2:	4901                	li	s2,0
    aee4:	40f2                	lw	ra,28(sp)
    aee6:	4462                	lw	s0,24(sp)
    aee8:	854a                	mv	a0,s2
    aeea:	44d2                	lw	s1,20(sp)
    aeec:	4942                	lw	s2,16(sp)
    aeee:	49b2                	lw	s3,12(sp)
    aef0:	6105                	addi	sp,sp,32
    aef2:	8082                	ret
    aef4:	84ae                	mv	s1,a1
    aef6:	89aa                	mv	s3,a0
    aef8:	2055                	jal	af9c <_malloc_usable_size_r>
    aefa:	8926                	mv	s2,s1
    aefc:	fe8574e3          	bgeu	a0,s0,aee4 <_realloc_r+0x1e>
    af00:	85a2                	mv	a1,s0
    af02:	854e                	mv	a0,s3
    af04:	97cff0ef          	jal	ra,a080 <_malloc_r>
    af08:	892a                	mv	s2,a0
    af0a:	dd69                	beqz	a0,aee4 <_realloc_r+0x1e>
    af0c:	85a6                	mv	a1,s1
    af0e:	8622                	mv	a2,s0
    af10:	e60fe0ef          	jal	ra,9570 <memcpy>
    af14:	85a6                	mv	a1,s1
    af16:	854e                	mv	a0,s3
    af18:	8c0ff0ef          	jal	ra,9fd8 <_free_r>
    af1c:	b7e1                	j	aee4 <_realloc_r+0x1e>

0000af1e <_read_r>:
    af1e:	1141                	addi	sp,sp,-16
    af20:	c422                	sw	s0,8(sp)
    af22:	842a                	mv	s0,a0
    af24:	852e                	mv	a0,a1
    af26:	85b2                	mv	a1,a2
    af28:	8636                	mv	a2,a3
    af2a:	d801aa23          	sw	zero,-620(gp) # 20000774 <errno>
    af2e:	c606                	sw	ra,12(sp)
    af30:	25b9                	jal	b57e <_read>
    af32:	57fd                	li	a5,-1
    af34:	00f51763          	bne	a0,a5,af42 <_read_r+0x24>
    af38:	d9418793          	addi	a5,gp,-620 # 20000774 <errno>
    af3c:	439c                	lw	a5,0(a5)
    af3e:	c391                	beqz	a5,af42 <_read_r+0x24>
    af40:	c01c                	sw	a5,0(s0)
    af42:	40b2                	lw	ra,12(sp)
    af44:	4422                	lw	s0,8(sp)
    af46:	0141                	addi	sp,sp,16
    af48:	8082                	ret

0000af4a <_fstat_r>:
    af4a:	1141                	addi	sp,sp,-16
    af4c:	c422                	sw	s0,8(sp)
    af4e:	842a                	mv	s0,a0
    af50:	852e                	mv	a0,a1
    af52:	85b2                	mv	a1,a2
    af54:	d801aa23          	sw	zero,-620(gp) # 20000774 <errno>
    af58:	c606                	sw	ra,12(sp)
    af5a:	2501                	jal	b55a <_fstat>
    af5c:	57fd                	li	a5,-1
    af5e:	00f51763          	bne	a0,a5,af6c <_fstat_r+0x22>
    af62:	d9418793          	addi	a5,gp,-620 # 20000774 <errno>
    af66:	439c                	lw	a5,0(a5)
    af68:	c391                	beqz	a5,af6c <_fstat_r+0x22>
    af6a:	c01c                	sw	a5,0(s0)
    af6c:	40b2                	lw	ra,12(sp)
    af6e:	4422                	lw	s0,8(sp)
    af70:	0141                	addi	sp,sp,16
    af72:	8082                	ret

0000af74 <_isatty_r>:
    af74:	1141                	addi	sp,sp,-16
    af76:	c422                	sw	s0,8(sp)
    af78:	842a                	mv	s0,a0
    af7a:	852e                	mv	a0,a1
    af7c:	d801aa23          	sw	zero,-620(gp) # 20000774 <errno>
    af80:	c606                	sw	ra,12(sp)
    af82:	23d5                	jal	b566 <_isatty>
    af84:	57fd                	li	a5,-1
    af86:	00f51763          	bne	a0,a5,af94 <_isatty_r+0x20>
    af8a:	d9418793          	addi	a5,gp,-620 # 20000774 <errno>
    af8e:	439c                	lw	a5,0(a5)
    af90:	c391                	beqz	a5,af94 <_isatty_r+0x20>
    af92:	c01c                	sw	a5,0(s0)
    af94:	40b2                	lw	ra,12(sp)
    af96:	4422                	lw	s0,8(sp)
    af98:	0141                	addi	sp,sp,16
    af9a:	8082                	ret

0000af9c <_malloc_usable_size_r>:
    af9c:	ffc5a783          	lw	a5,-4(a1)
    afa0:	ffc78513          	addi	a0,a5,-4
    afa4:	0007d563          	bgez	a5,afae <_malloc_usable_size_r+0x12>
    afa8:	95aa                	add	a1,a1,a0
    afaa:	419c                	lw	a5,0(a1)
    afac:	953e                	add	a0,a0,a5
    afae:	8082                	ret

0000afb0 <__eqdf2>:
    afb0:	0145d713          	srli	a4,a1,0x14
    afb4:	001007b7          	lui	a5,0x100
    afb8:	17fd                	addi	a5,a5,-1
    afba:	0146d813          	srli	a6,a3,0x14
    afbe:	7ff77713          	andi	a4,a4,2047
    afc2:	7ff00893          	li	a7,2047
    afc6:	00b7fe33          	and	t3,a5,a1
    afca:	8eaa                	mv	t4,a0
    afcc:	8ff5                	and	a5,a5,a3
    afce:	81fd                	srli	a1,a1,0x1f
    afd0:	8f32                	mv	t5,a2
    afd2:	7ff87813          	andi	a6,a6,2047
    afd6:	82fd                	srli	a3,a3,0x1f
    afd8:	01170b63          	beq	a4,a7,afee <__eqdf2+0x3e>
    afdc:	4305                	li	t1,1
    afde:	01180663          	beq	a6,a7,afea <__eqdf2+0x3a>
    afe2:	01071463          	bne	a4,a6,afea <__eqdf2+0x3a>
    afe6:	00fe0d63          	beq	t3,a5,b000 <__eqdf2+0x50>
    afea:	851a                	mv	a0,t1
    afec:	8082                	ret
    afee:	00ae68b3          	or	a7,t3,a0
    aff2:	4305                	li	t1,1
    aff4:	fe089be3          	bnez	a7,afea <__eqdf2+0x3a>
    aff8:	fee819e3          	bne	a6,a4,afea <__eqdf2+0x3a>
    affc:	8fd1                	or	a5,a5,a2
    affe:	f7f5                	bnez	a5,afea <__eqdf2+0x3a>
    b000:	4305                	li	t1,1
    b002:	ffee94e3          	bne	t4,t5,afea <__eqdf2+0x3a>
    b006:	4301                	li	t1,0
    b008:	fed581e3          	beq	a1,a3,afea <__eqdf2+0x3a>
    b00c:	4305                	li	t1,1
    b00e:	ff71                	bnez	a4,afea <__eqdf2+0x3a>
    b010:	00ae6533          	or	a0,t3,a0
    b014:	00a03333          	snez	t1,a0
    b018:	bfc9                	j	afea <__eqdf2+0x3a>

0000b01a <__gedf2>:
    b01a:	0145d713          	srli	a4,a1,0x14
    b01e:	001007b7          	lui	a5,0x100
    b022:	17fd                	addi	a5,a5,-1
    b024:	0146d813          	srli	a6,a3,0x14
    b028:	7ff77713          	andi	a4,a4,2047
    b02c:	7ff00893          	li	a7,2047
    b030:	00b7f333          	and	t1,a5,a1
    b034:	8e2a                	mv	t3,a0
    b036:	8ff5                	and	a5,a5,a3
    b038:	81fd                	srli	a1,a1,0x1f
    b03a:	8eb2                	mv	t4,a2
    b03c:	7ff87813          	andi	a6,a6,2047
    b040:	82fd                	srli	a3,a3,0x1f
    b042:	03170863          	beq	a4,a7,b072 <__gedf2+0x58>
    b046:	03180063          	beq	a6,a7,b066 <__gedf2+0x4c>
    b04a:	eb0d                	bnez	a4,b07c <__gedf2+0x62>
    b04c:	00a368b3          	or	a7,t1,a0
    b050:	00081463          	bnez	a6,b058 <__gedf2+0x3e>
    b054:	8e5d                	or	a2,a2,a5
    b056:	ca29                	beqz	a2,b0a8 <__gedf2+0x8e>
    b058:	04088563          	beqz	a7,b0a2 <__gedf2+0x88>
    b05c:	02d58863          	beq	a1,a3,b08c <__gedf2+0x72>
    b060:	4505                	li	a0,1
    b062:	ed95                	bnez	a1,b09e <__gedf2+0x84>
    b064:	8082                	ret
    b066:	00c7e8b3          	or	a7,a5,a2
    b06a:	fe0880e3          	beqz	a7,b04a <__gedf2+0x30>
    b06e:	5579                	li	a0,-2
    b070:	8082                	ret
    b072:	00a36533          	or	a0,t1,a0
    b076:	fd65                	bnez	a0,b06e <__gedf2+0x54>
    b078:	02e80c63          	beq	a6,a4,b0b0 <__gedf2+0x96>
    b07c:	00081463          	bnez	a6,b084 <__gedf2+0x6a>
    b080:	8e5d                	or	a2,a2,a5
    b082:	de79                	beqz	a2,b060 <__gedf2+0x46>
    b084:	fcd59ee3          	bne	a1,a3,b060 <__gedf2+0x46>
    b088:	fce84ce3          	blt	a6,a4,b060 <__gedf2+0x46>
    b08c:	01074863          	blt	a4,a6,b09c <__gedf2+0x82>
    b090:	fc67e8e3          	bltu	a5,t1,b060 <__gedf2+0x46>
    b094:	02f30363          	beq	t1,a5,b0ba <__gedf2+0xa0>
    b098:	00f37f63          	bgeu	t1,a5,b0b6 <__gedf2+0x9c>
    b09c:	e581                	bnez	a1,b0a4 <__gedf2+0x8a>
    b09e:	557d                	li	a0,-1
    b0a0:	8082                	ret
    b0a2:	def5                	beqz	a3,b09e <__gedf2+0x84>
    b0a4:	4505                	li	a0,1
    b0a6:	8082                	ret
    b0a8:	4501                	li	a0,0
    b0aa:	fa089be3          	bnez	a7,b060 <__gedf2+0x46>
    b0ae:	8082                	ret
    b0b0:	8e5d                	or	a2,a2,a5
    b0b2:	da69                	beqz	a2,b084 <__gedf2+0x6a>
    b0b4:	bf6d                	j	b06e <__gedf2+0x54>
    b0b6:	4501                	li	a0,0
    b0b8:	8082                	ret
    b0ba:	fbcee3e3          	bltu	t4,t3,b060 <__gedf2+0x46>
    b0be:	4501                	li	a0,0
    b0c0:	fbde72e3          	bgeu	t3,t4,b064 <__gedf2+0x4a>
    b0c4:	f1e5                	bnez	a1,b0a4 <__gedf2+0x8a>
    b0c6:	bfe1                	j	b09e <__gedf2+0x84>

0000b0c8 <__fixdfsi>:
    b0c8:	0145d793          	srli	a5,a1,0x14
    b0cc:	001006b7          	lui	a3,0x100
    b0d0:	fff68713          	addi	a4,a3,-1 # fffff <_data_lma+0xf2dab>
    b0d4:	7ff7f793          	andi	a5,a5,2047
    b0d8:	3fe00613          	li	a2,1022
    b0dc:	8f6d                	and	a4,a4,a1
    b0de:	81fd                	srli	a1,a1,0x1f
    b0e0:	00f65c63          	bge	a2,a5,b0f8 <__fixdfsi+0x30>
    b0e4:	41d00613          	li	a2,1053
    b0e8:	00f65a63          	bge	a2,a5,b0fc <__fixdfsi+0x34>
    b0ec:	80000537          	lui	a0,0x80000
    b0f0:	fff54513          	not	a0,a0
    b0f4:	952e                	add	a0,a0,a1
    b0f6:	8082                	ret
    b0f8:	4501                	li	a0,0
    b0fa:	8082                	ret
    b0fc:	43300613          	li	a2,1075
    b100:	8e1d                	sub	a2,a2,a5
    b102:	487d                	li	a6,31
    b104:	8f55                	or	a4,a4,a3
    b106:	00c85d63          	bge	a6,a2,b120 <__fixdfsi+0x58>
    b10a:	41300693          	li	a3,1043
    b10e:	40f687b3          	sub	a5,a3,a5
    b112:	00f757b3          	srl	a5,a4,a5
    b116:	40f00533          	neg	a0,a5
    b11a:	f1e5                	bnez	a1,b0fa <__fixdfsi+0x32>
    b11c:	853e                	mv	a0,a5
    b11e:	8082                	ret
    b120:	bed78793          	addi	a5,a5,-1043 # ffbed <_data_lma+0xf2999>
    b124:	00f717b3          	sll	a5,a4,a5
    b128:	00c55533          	srl	a0,a0,a2
    b12c:	8fc9                	or	a5,a5,a0
    b12e:	b7e5                	j	b116 <__fixdfsi+0x4e>

0000b130 <__fixunsdfsi>:
    b130:	0145d793          	srli	a5,a1,0x14
    b134:	001006b7          	lui	a3,0x100
    b138:	fff68713          	addi	a4,a3,-1 # fffff <_data_lma+0xf2dab>
    b13c:	7ff7f793          	andi	a5,a5,2047
    b140:	3fe00613          	li	a2,1022
    b144:	882a                	mv	a6,a0
    b146:	8f6d                	and	a4,a4,a1
    b148:	4501                	li	a0,0
    b14a:	81fd                	srli	a1,a1,0x1f
    b14c:	00f65463          	bge	a2,a5,b154 <__fixunsdfsi+0x24>
    b150:	c199                	beqz	a1,b156 <__fixunsdfsi+0x26>
    b152:	8082                	ret
    b154:	8082                	ret
    b156:	41e00613          	li	a2,1054
    b15a:	557d                	li	a0,-1
    b15c:	fef64be3          	blt	a2,a5,b152 <__fixunsdfsi+0x22>
    b160:	43300513          	li	a0,1075
    b164:	8d1d                	sub	a0,a0,a5
    b166:	467d                	li	a2,31
    b168:	8f55                	or	a4,a4,a3
    b16a:	00a64a63          	blt	a2,a0,b17e <__fixunsdfsi+0x4e>
    b16e:	bed78793          	addi	a5,a5,-1043
    b172:	00f71733          	sll	a4,a4,a5
    b176:	00a85533          	srl	a0,a6,a0
    b17a:	8d59                	or	a0,a0,a4
    b17c:	8082                	ret
    b17e:	41300513          	li	a0,1043
    b182:	40f507b3          	sub	a5,a0,a5
    b186:	00f75533          	srl	a0,a4,a5
    b18a:	8082                	ret

0000b18c <__extenddftf2>:
    b18c:	01465793          	srli	a5,a2,0x14
    b190:	00c61713          	slli	a4,a2,0xc
    b194:	7ff7f793          	andi	a5,a5,2047
    b198:	7179                	addi	sp,sp,-48
    b19a:	8331                	srli	a4,a4,0xc
    b19c:	00178693          	addi	a3,a5,1
    b1a0:	d422                	sw	s0,40(sp)
    b1a2:	d226                	sw	s1,36(sp)
    b1a4:	d606                	sw	ra,44(sp)
    b1a6:	d04a                	sw	s2,32(sp)
    b1a8:	c82e                	sw	a1,16(sp)
    b1aa:	ca3a                	sw	a4,20(sp)
    b1ac:	ce02                	sw	zero,28(sp)
    b1ae:	cc02                	sw	zero,24(sp)
    b1b0:	7fe6f693          	andi	a3,a3,2046
    b1b4:	842a                	mv	s0,a0
    b1b6:	01f65493          	srli	s1,a2,0x1f
    b1ba:	cea1                	beqz	a3,b212 <__extenddftf2+0x86>
    b1bc:	6691                	lui	a3,0x4
    b1be:	c0068693          	addi	a3,a3,-1024 # 3c00 <__adddf3+0x502>
    b1c2:	97b6                	add	a5,a5,a3
    b1c4:	0045d613          	srli	a2,a1,0x4
    b1c8:	01c71693          	slli	a3,a4,0x1c
    b1cc:	07c6                	slli	a5,a5,0x11
    b1ce:	8ed1                	or	a3,a3,a2
    b1d0:	01c59513          	slli	a0,a1,0x1c
    b1d4:	8311                	srli	a4,a4,0x4
    b1d6:	83c5                	srli	a5,a5,0x11
    b1d8:	4801                	li	a6,0
    b1da:	00e11623          	sh	a4,12(sp)
    b1de:	4732                	lw	a4,12(sp)
    b1e0:	07c6                	slli	a5,a5,0x11
    b1e2:	800105b7          	lui	a1,0x80010
    b1e6:	83c5                	srli	a5,a5,0x11
    b1e8:	15fd                	addi	a1,a1,-1
    b1ea:	07c2                	slli	a5,a5,0x10
    b1ec:	8f6d                	and	a4,a4,a1
    b1ee:	8fd9                	or	a5,a5,a4
    b1f0:	0786                	slli	a5,a5,0x1
    b1f2:	01f49613          	slli	a2,s1,0x1f
    b1f6:	8385                	srli	a5,a5,0x1
    b1f8:	8fd1                	or	a5,a5,a2
    b1fa:	c048                	sw	a0,4(s0)
    b1fc:	01042023          	sw	a6,0(s0)
    b200:	c414                	sw	a3,8(s0)
    b202:	c45c                	sw	a5,12(s0)
    b204:	8522                	mv	a0,s0
    b206:	50b2                	lw	ra,44(sp)
    b208:	5422                	lw	s0,40(sp)
    b20a:	5492                	lw	s1,36(sp)
    b20c:	5902                	lw	s2,32(sp)
    b20e:	6145                	addi	sp,sp,48
    b210:	8082                	ret
    b212:	00b76533          	or	a0,a4,a1
    b216:	eba5                	bnez	a5,b286 <__extenddftf2+0xfa>
    b218:	cd59                	beqz	a0,b2b6 <__extenddftf2+0x12a>
    b21a:	c35d                	beqz	a4,b2c0 <__extenddftf2+0x134>
    b21c:	853a                	mv	a0,a4
    b21e:	e0bfa0ef          	jal	ra,6028 <__clzsi2>
    b222:	03150713          	addi	a4,a0,49 # 80000031 <_eusrstack+0x5fff8031>
    b226:	01f77813          	andi	a6,a4,31
    b22a:	8715                	srai	a4,a4,0x5
    b22c:	0a081e63          	bnez	a6,b2e8 <__extenddftf2+0x15c>
    b230:	0810                	addi	a2,sp,16
    b232:	00271693          	slli	a3,a4,0x2
    b236:	40d606b3          	sub	a3,a2,a3
    b23a:	888a                	mv	a7,sp
    b23c:	00271813          	slli	a6,a4,0x2
    b240:	46cc                	lw	a1,12(a3)
    b242:	010687b3          	add	a5,a3,a6
    b246:	16f1                	addi	a3,a3,-4
    b248:	c7cc                	sw	a1,12(a5)
    b24a:	fed89be3          	bne	a7,a3,b240 <__extenddftf2+0xb4>
    b24e:	177d                	addi	a4,a4,-1
    b250:	070a                	slli	a4,a4,0x2
    b252:	9732                	add	a4,a4,a2
    b254:	00072023          	sw	zero,0(a4)
    b258:	ffc70693          	addi	a3,a4,-4
    b25c:	00e60963          	beq	a2,a4,b26e <__extenddftf2+0xe2>
    b260:	8736                	mv	a4,a3
    b262:	00072023          	sw	zero,0(a4)
    b266:	ffc70693          	addi	a3,a4,-4
    b26a:	fee61be3          	bne	a2,a4,b260 <__extenddftf2+0xd4>
    b26e:	6791                	lui	a5,0x4
    b270:	c0c78793          	addi	a5,a5,-1012 # 3c0c <__adddf3+0x50e>
    b274:	8f89                	sub	a5,a5,a0
    b276:	07c6                	slli	a5,a5,0x11
    b278:	4842                	lw	a6,16(sp)
    b27a:	4552                	lw	a0,20(sp)
    b27c:	46e2                	lw	a3,24(sp)
    b27e:	01c15703          	lhu	a4,28(sp)
    b282:	83c5                	srli	a5,a5,0x11
    b284:	bf99                	j	b1da <__extenddftf2+0x4e>
    b286:	c115                	beqz	a0,b2aa <__extenddftf2+0x11e>
    b288:	67a1                	lui	a5,0x8
    b28a:	00475513          	srli	a0,a4,0x4
    b28e:	01c71693          	slli	a3,a4,0x1c
    b292:	00f56733          	or	a4,a0,a5
    b296:	0045d613          	srli	a2,a1,0x4
    b29a:	0742                	slli	a4,a4,0x10
    b29c:	8ed1                	or	a3,a3,a2
    b29e:	01c59513          	slli	a0,a1,0x1c
    b2a2:	8341                	srli	a4,a4,0x10
    b2a4:	17fd                	addi	a5,a5,-1
    b2a6:	4801                	li	a6,0
    b2a8:	bf0d                	j	b1da <__extenddftf2+0x4e>
    b2aa:	67a1                	lui	a5,0x8
    b2ac:	4681                	li	a3,0
    b2ae:	17fd                	addi	a5,a5,-1
    b2b0:	4701                	li	a4,0
    b2b2:	4801                	li	a6,0
    b2b4:	b71d                	j	b1da <__extenddftf2+0x4e>
    b2b6:	4681                	li	a3,0
    b2b8:	4781                	li	a5,0
    b2ba:	4701                	li	a4,0
    b2bc:	4801                	li	a6,0
    b2be:	bf31                	j	b1da <__extenddftf2+0x4e>
    b2c0:	852e                	mv	a0,a1
    b2c2:	892e                	mv	s2,a1
    b2c4:	d65fa0ef          	jal	ra,6028 <__clzsi2>
    b2c8:	05150713          	addi	a4,a0,81
    b2cc:	01f77813          	andi	a6,a4,31
    b2d0:	02050513          	addi	a0,a0,32
    b2d4:	8715                	srai	a4,a4,0x5
    b2d6:	f4080de3          	beqz	a6,b230 <__extenddftf2+0xa4>
    b2da:	4789                	li	a5,2
    b2dc:	00f70663          	beq	a4,a5,b2e8 <__extenddftf2+0x15c>
    b2e0:	4709                	li	a4,2
    b2e2:	0810                	addi	a2,sp,16
    b2e4:	48b1                	li	a7,12
    b2e6:	a835                	j	b322 <__extenddftf2+0x196>
    b2e8:	40e006b3          	neg	a3,a4
    b2ec:	068a                	slli	a3,a3,0x2
    b2ee:	0810                	addi	a2,sp,16
    b2f0:	06b1                	addi	a3,a3,12
    b2f2:	02000e13          	li	t3,32
    b2f6:	96b2                	add	a3,a3,a2
    b2f8:	00271893          	slli	a7,a4,0x2
    b2fc:	410e0e33          	sub	t3,t3,a6
    b300:	ffc6a583          	lw	a1,-4(a3)
    b304:	429c                	lw	a5,0(a3)
    b306:	01168333          	add	t1,a3,a7
    b30a:	01c5d5b3          	srl	a1,a1,t3
    b30e:	010797b3          	sll	a5,a5,a6
    b312:	8ddd                	or	a1,a1,a5
    b314:	00b32023          	sw	a1,0(t1)
    b318:	16f1                	addi	a3,a3,-4
    b31a:	fed613e3          	bne	a2,a3,b300 <__extenddftf2+0x174>
    b31e:	4942                	lw	s2,16(sp)
    b320:	177d                	addi	a4,a4,-1
    b322:	101c                	addi	a5,sp,32
    b324:	98be                	add	a7,a7,a5
    b326:	01091933          	sll	s2,s2,a6
    b32a:	ff28a823          	sw	s2,-16(a7) # fff0 <_data_lma+0x2d9c>
    b32e:	b70d                	j	b250 <__extenddftf2+0xc4>

0000b330 <__trunctfdf2>:
    b330:	00c52803          	lw	a6,12(a0)
    b334:	4118                	lw	a4,0(a0)
    b336:	4154                	lw	a3,4(a0)
    b338:	450c                	lw	a1,8(a0)
    b33a:	6521                	lui	a0,0x8
    b33c:	fff50793          	addi	a5,a0,-1 # 7fff <_dtoa_r+0xa5>
    b340:	01085613          	srli	a2,a6,0x10
    b344:	00359e13          	slli	t3,a1,0x3
    b348:	8e7d                	and	a2,a2,a5
    b34a:	01d75893          	srli	a7,a4,0x1d
    b34e:	01d6d793          	srli	a5,a3,0x1d
    b352:	01081313          	slli	t1,a6,0x10
    b356:	068e                	slli	a3,a3,0x3
    b358:	1141                	addi	sp,sp,-16
    b35a:	01c7e7b3          	or	a5,a5,t3
    b35e:	0116e6b3          	or	a3,a3,a7
    b362:	01035313          	srli	t1,t1,0x10
    b366:	00371e13          	slli	t3,a4,0x3
    b36a:	00160893          	addi	a7,a2,1
    b36e:	1579                	addi	a0,a0,-2
    b370:	81f5                	srli	a1,a1,0x1d
    b372:	030e                	slli	t1,t1,0x3
    b374:	c43e                	sw	a5,8(sp)
    b376:	c236                	sw	a3,4(sp)
    b378:	c072                	sw	t3,0(sp)
    b37a:	00a8f533          	and	a0,a7,a0
    b37e:	01f85813          	srli	a6,a6,0x1f
    b382:	0065e5b3          	or	a1,a1,t1
    b386:	c905                	beqz	a0,b3b6 <__trunctfdf2+0x86>
    b388:	7771                	lui	a4,0xffffc
    b38a:	40070713          	addi	a4,a4,1024 # ffffc400 <_eusrstack+0xdfff4400>
    b38e:	963a                	add	a2,a2,a4
    b390:	7fe00713          	li	a4,2046
    b394:	04c75d63          	bge	a4,a2,b3ee <__trunctfdf2+0xbe>
    b398:	7ff00613          	li	a2,2047
    b39c:	4701                	li	a4,0
    b39e:	4781                	li	a5,0
    b3a0:	0732                	slli	a4,a4,0xc
    b3a2:	0652                	slli	a2,a2,0x14
    b3a4:	8331                	srli	a4,a4,0xc
    b3a6:	087e                	slli	a6,a6,0x1f
    b3a8:	8f51                	or	a4,a4,a2
    b3aa:	01076733          	or	a4,a4,a6
    b3ae:	853e                	mv	a0,a5
    b3b0:	85ba                	mv	a1,a4
    b3b2:	0141                	addi	sp,sp,16
    b3b4:	8082                	ret
    b3b6:	8fd5                	or	a5,a5,a3
    b3b8:	8fcd                	or	a5,a5,a1
    b3ba:	01c7e7b3          	or	a5,a5,t3
    b3be:	e205                	bnez	a2,b3de <__trunctfdf2+0xae>
    b3c0:	cbf1                	beqz	a5,b494 <__trunctfdf2+0x164>
    b3c2:	4781                	li	a5,0
    b3c4:	4695                	li	a3,5
    b3c6:	0036d593          	srli	a1,a3,0x3
    b3ca:	00979713          	slli	a4,a5,0x9
    b3ce:	01d79693          	slli	a3,a5,0x1d
    b3d2:	00b6e7b3          	or	a5,a3,a1
    b3d6:	8331                	srli	a4,a4,0xc
    b3d8:	7ff67613          	andi	a2,a2,2047
    b3dc:	b7d1                	j	b3a0 <__trunctfdf2+0x70>
    b3de:	dfcd                	beqz	a5,b398 <__trunctfdf2+0x68>
    b3e0:	4801                	li	a6,0
    b3e2:	7ff00613          	li	a2,2047
    b3e6:	00080737          	lui	a4,0x80
    b3ea:	4781                	li	a5,0
    b3ec:	bf55                	j	b3a0 <__trunctfdf2+0x70>
    b3ee:	0ac04663          	bgtz	a2,b49a <__trunctfdf2+0x16a>
    b3f2:	fcc00793          	li	a5,-52
    b3f6:	0ef64f63          	blt	a2,a5,b4f4 <__trunctfdf2+0x1c4>
    b3fa:	03d00793          	li	a5,61
    b3fe:	40c78633          	sub	a2,a5,a2
    b402:	40565793          	srai	a5,a2,0x5
    b406:	00080737          	lui	a4,0x80
    b40a:	8dd9                	or	a1,a1,a4
    b40c:	00279513          	slli	a0,a5,0x2
    b410:	870a                	mv	a4,sp
    b412:	4681                	li	a3,0
    b414:	c62e                	sw	a1,12(sp)
    b416:	00a108b3          	add	a7,sp,a0
    b41a:	0711                	addi	a4,a4,4
    b41c:	8a7d                	andi	a2,a2,31
    b41e:	01c6e6b3          	or	a3,a3,t3
    b422:	01170963          	beq	a4,a7,b434 <__trunctfdf2+0x104>
    b426:	00072e03          	lw	t3,0(a4) # 80000 <_data_lma+0x72dac>
    b42a:	0711                	addi	a4,a4,4
    b42c:	01c6e6b3          	or	a3,a3,t3
    b430:	ff171be3          	bne	a4,a7,b426 <__trunctfdf2+0xf6>
    b434:	470d                	li	a4,3
    b436:	8f1d                	sub	a4,a4,a5
    b438:	ca79                	beqz	a2,b50e <__trunctfdf2+0x1de>
    b43a:	01010893          	addi	a7,sp,16
    b43e:	98aa                	add	a7,a7,a0
    b440:	ff08a883          	lw	a7,-16(a7)
    b444:	02000e13          	li	t3,32
    b448:	40ce0e33          	sub	t3,t3,a2
    b44c:	01c898b3          	sll	a7,a7,t3
    b450:	0116e6b3          	or	a3,a3,a7
    b454:	cb75                	beqz	a4,b548 <__trunctfdf2+0x218>
    b456:	070a                	slli	a4,a4,0x2
    b458:	950a                	add	a0,a0,sp
    b45a:	00e10eb3          	add	t4,sp,a4
    b45e:	888a                	mv	a7,sp
    b460:	410c                	lw	a1,0(a0)
    b462:	00452303          	lw	t1,4(a0)
    b466:	0891                	addi	a7,a7,4
    b468:	00c5d5b3          	srl	a1,a1,a2
    b46c:	01c31333          	sll	t1,t1,t3
    b470:	0065e5b3          	or	a1,a1,t1
    b474:	feb8ae23          	sw	a1,-4(a7)
    b478:	0511                	addi	a0,a0,4
    b47a:	ff1e93e3          	bne	t4,a7,b460 <__trunctfdf2+0x130>
    b47e:	4591                	li	a1,4
    b480:	40f587b3          	sub	a5,a1,a5
    b484:	45b2                	lw	a1,12(sp)
    b486:	0808                	addi	a0,sp,16
    b488:	972a                	add	a4,a4,a0
    b48a:	00c5d5b3          	srl	a1,a1,a2
    b48e:	feb72823          	sw	a1,-16(a4)
    b492:	a861                	j	b52a <__trunctfdf2+0x1fa>
    b494:	4601                	li	a2,0
    b496:	4701                	li	a4,0
    b498:	b721                	j	b3a0 <__trunctfdf2+0x70>
    b49a:	00469713          	slli	a4,a3,0x4
    b49e:	00479513          	slli	a0,a5,0x4
    b4a2:	01c76733          	or	a4,a4,t3
    b4a6:	82f1                	srli	a3,a3,0x1c
    b4a8:	83f1                	srli	a5,a5,0x1c
    b4aa:	0592                	slli	a1,a1,0x4
    b4ac:	00e03733          	snez	a4,a4
    b4b0:	8ec9                	or	a3,a3,a0
    b4b2:	8fcd                	or	a5,a5,a1
    b4b4:	8ed9                	or	a3,a3,a4
    b4b6:	0076f713          	andi	a4,a3,7
    b4ba:	c711                	beqz	a4,b4c6 <__trunctfdf2+0x196>
    b4bc:	00f6f713          	andi	a4,a3,15
    b4c0:	4591                	li	a1,4
    b4c2:	02b71c63          	bne	a4,a1,b4fa <__trunctfdf2+0x1ca>
    b4c6:	00800737          	lui	a4,0x800
    b4ca:	8f7d                	and	a4,a4,a5
    b4cc:	ee070de3          	beqz	a4,b3c6 <__trunctfdf2+0x96>
    b4d0:	0605                	addi	a2,a2,1
    b4d2:	7ff00713          	li	a4,2047
    b4d6:	ece601e3          	beq	a2,a4,b398 <__trunctfdf2+0x68>
    b4da:	ff800737          	lui	a4,0xff800
    b4de:	177d                	addi	a4,a4,-1
    b4e0:	8f7d                	and	a4,a4,a5
    b4e2:	01d71793          	slli	a5,a4,0x1d
    b4e6:	828d                	srli	a3,a3,0x3
    b4e8:	0726                	slli	a4,a4,0x9
    b4ea:	7ff67613          	andi	a2,a2,2047
    b4ee:	8fd5                	or	a5,a5,a3
    b4f0:	8331                	srli	a4,a4,0xc
    b4f2:	b57d                	j	b3a0 <__trunctfdf2+0x70>
    b4f4:	4685                	li	a3,1
    b4f6:	4781                	li	a5,0
    b4f8:	4601                	li	a2,0
    b4fa:	ffc6b713          	sltiu	a4,a3,-4
    b4fe:	00174713          	xori	a4,a4,1
    b502:	97ba                	add	a5,a5,a4
    b504:	00800737          	lui	a4,0x800
    b508:	0691                	addi	a3,a3,4
    b50a:	8f7d                	and	a4,a4,a5
    b50c:	b7c1                	j	b4cc <__trunctfdf2+0x19c>
    b50e:	858a                	mv	a1,sp
    b510:	00a588b3          	add	a7,a1,a0
    b514:	0008a883          	lw	a7,0(a7)
    b518:	0591                	addi	a1,a1,4
    b51a:	0605                	addi	a2,a2,1
    b51c:	ff15ae23          	sw	a7,-4(a1) # 8000fffc <_eusrstack+0x60007ffc>
    b520:	fec758e3          	bge	a4,a2,b510 <__trunctfdf2+0x1e0>
    b524:	4711                	li	a4,4
    b526:	40f707b3          	sub	a5,a4,a5
    b52a:	078a                	slli	a5,a5,0x2
    b52c:	978a                	add	a5,a5,sp
    b52e:	0818                	addi	a4,sp,16
    b530:	0007a023          	sw	zero,0(a5) # 8000 <_dtoa_r+0xa6>
    b534:	0791                	addi	a5,a5,4
    b536:	fee79de3          	bne	a5,a4,b530 <__trunctfdf2+0x200>
    b53a:	4702                	lw	a4,0(sp)
    b53c:	00d036b3          	snez	a3,a3
    b540:	4792                	lw	a5,4(sp)
    b542:	8ed9                	or	a3,a3,a4
    b544:	4601                	li	a2,0
    b546:	bf85                	j	b4b6 <__trunctfdf2+0x186>
    b548:	4785                	li	a5,1
    b54a:	4701                	li	a4,0
    b54c:	bf2d                	j	b486 <__trunctfdf2+0x156>

0000b54e <_close>:
    b54e:	05800793          	li	a5,88
    b552:	d8f1aa23          	sw	a5,-620(gp) # 20000774 <errno>
    b556:	557d                	li	a0,-1
    b558:	8082                	ret

0000b55a <_fstat>:
    b55a:	05800793          	li	a5,88
    b55e:	d8f1aa23          	sw	a5,-620(gp) # 20000774 <errno>
    b562:	557d                	li	a0,-1
    b564:	8082                	ret

0000b566 <_isatty>:
    b566:	05800793          	li	a5,88
    b56a:	d8f1aa23          	sw	a5,-620(gp) # 20000774 <errno>
    b56e:	4501                	li	a0,0
    b570:	8082                	ret

0000b572 <_lseek>:
    b572:	05800793          	li	a5,88
    b576:	d8f1aa23          	sw	a5,-620(gp) # 20000774 <errno>
    b57a:	557d                	li	a0,-1
    b57c:	8082                	ret

0000b57e <_read>:
    b57e:	05800793          	li	a5,88
    b582:	d8f1aa23          	sw	a5,-620(gp) # 20000774 <errno>
    b586:	557d                	li	a0,-1
    b588:	8082                	ret
	...

0000b58c <u8g2_font_courB14_tf>:
    b58c:	00bf 0303 0504 0504 0c05 ff14 0bfb 0cfc     ................
    b59c:	01fd 04f7 0e79 209a 0005 6e30 0b21 18c3     ....y.. ..0n!...
    b5ac:	3c6e 1458 1225 2200 660c 6ed4 3888 22cd     n<X.%..".f.n.8."
    b5bc:	08b1 2300 e81b 6df2 6449 9912 2644 1c91     ...#...mId..D&..
    b5cc:	120e 8935 70e8 a890 6449 9912 0444 1324     ..5..p..Id..D.$.
    b5dc:	d2f8 89ed 96a5 9083 b54c 6992 8987 2c55     ........L..i..U,
    b5ec:	2503 c816 ee12 250c 34b2 7089 1c24 44d1     .%.....%.4.p$..D
    b5fc:	8943 4d2c 9c22 2600 a811 6e12 4cd1 01da     C.,M"..&...n.L..
    b60c:	ca52 34a1 4439 0228 0927 d862 1c6e 1124     R..49D(.'.b.n.$.
    b61c:	2800 f40e 6db8 88a9 2224 137d 44c9 2902     .(...m..$"}..D.)
    b62c:	f410 6db4 6488 9922 5f48 1244 0891 2a00     ...m.d".H_D....*
    b63c:	8810 ee92 6589 8387 684c 4d19 1182 2b00     .....e..Lh.M...+
    b64c:	aa15 6e10 21ca 8872 221c 1c3c 728c 1c88     ...n.!r.."<..r..
    b65c:	8722 0108 092c b454 a96d d288 2d00 2807     "...,.T.m....-.(
    b66c:	6e92 083c 062e 1822 106e 1c2f b109 03ed     .n<...".n./.....
    b67c:	00e4 1cb1 9620 c403 8072 0e58 cb10 6201     .... ...r.X....b
    b68c:	4039 072c 01c8 1030 12c8 d16e 2a4c 3e42     9@,...0...n.L*B>
    b69c:	444a 1b22 0009 0b31 12c8 c9ee f59a e1db     JD"...1.........
    b6ac:	3220 c80f 6e12 2cd1 a2b2 3a58 f1dc 1070      2...n.,..X:..p.
    b6bc:	1133 12c8 d16e ca4c 19d2 3cb1 1da6 2546     3...n.L....<..F%
    b6cc:	3400 c812 6e12 690e 8935 1748 e499 9070     .4...n.i5.H...p.
    b6dc:	6b0a 3505 c811 ee12 88bc a6c5 688b a62c     .k.5.........h,.
    b6ec:	461d 0025 1236 12c8 926e 532c d195 5465     .F%.6...n.,S..eT
    b6fc:	9624 3626 0012 0f37 12c8 3c6e a510 5562     $.&6..7...n<..bU
    b70c:	aab1 0d58 3800 c813 6e12 2cd1 a2a3 2444     ..X..8...n.,..D$
    b71c:	59a3 c546 c4d2 0246 1139 12c8 d16e 422c     .YF...F.9...n.,B
    b72c:	936e 44d3 952c 6a5c 3a00 8208 6e18 21d0     n..D,.\j.:...n.!
    b73c:	3b04 b40c 6db4 23a9 248a 34a2 3c00 9911     .;...m.#.$.4.<..
    b74c:	ee32 a403 c634 8039 a00e e803 0100 0b3d     2...4.9.......=.
    b75c:	506a 3c6e 91d8 070f 3e03 9911 6e32 01c8     jPn<.....>..2n..
    b76c:	0074 401d 0c07 ac69 0072 103f 14b7 54ee     t..@..i.r.?....T
    b77c:	320e 70a9 9344 a1ca 006a 1440 f2d9 116d     .2.pD...j.@...m.
    b78c:	8a45 1112 ff45 774f 1c80 9322 0095 1841     E...E.Ow.."...A.
    b79c:	0ebc d56e 7601 1d08 1220 c48b e922 7821     ..n..v.. ...".!x
    b7ac:	2a08 0e95 02a3 1442 10ba dc6e 410e 3699     .*....B...n..A.6
    b7bc:	4de3 1228 848a ca07 0421 1743 10ba 51ee     .M(.....!.C....Q
    b7cc:	0724 ccc9 874a 21c8 c872 321c 1c94 2564     $...J..!r..2..d%
    b7dc:	4400 ba18 6e10 0edc d922 3848 4a91 12a4     .D...n..".H8.J..
    b7ec:	44a9 9138 0e4d 1b92 4500 ba14 6e10 983c     .D8.M....E...n<.
    b7fc:	2284 5289 2ab5 0a91 c245 43c3 4600 ba14     .".R.*..E..C.F..
    b80c:	6e10 983c 2284 5289 2ab5 ca91 e221 0ddb     .n<..".R.*..!...
    b81c:	4700 bb19 ee10 4451 d107 326c c895 7241     .G....QD..l2..Ar
    b82c:	ec90 b220 450c a107 0009 1948 10ba 906e     .. ..E....H...n.
    b83c:	210e 508a 1424 421d 9087 2450 0914 a425     .!.P$..B..P$..%.
    b84c:	8843 4900 b80c 6e12 c83c fac4 3876 4a08     C..I...n<...v8.J
    b85c:	ba14 ee10 cb3d 7221 1c88 1222 848a a122     ....=.!r.."...".
    b86c:	4ae8 4b04 bb17 6e10 2a50 9294 284c 4a92     .J.K...nP*..L(.J
    b87c:	65c4 68ab 1b28 0e95 0222 154c 10ba 186e     .e.h(...".L...n.
    b88c:	72cd 1c88 8722 21c8 9142 2450 3c3c 4d04     .r.."..!B.P$<<.M
    b89c:	ba17 6e10 8d0c d193 43a6 a248 5124 2892     ...n.....CH.$Q.(
    b8ac:	2509 43a4 0088 1a4e 10ba 8c6e 920e 4cca     .%.C..N...n....L
    b8bc:	5244 a909 8928 2222 4911 a936 4a4c 0012     DR..(."".I6.LJ..
    b8cc:	134f 10ba 11ee a10f 6195 b999 1938 0e8d     O........a..8...
    b8dc:	1a41 5000 ba17 6e10 421c 9107 2270 0895     A..P...n.B..p"..
    b8ec:	8727 4dd0 910e 8c03 0046 1751 d0da 11ed     '..M....F.Q.....
    b8fc:	a10f 6195 b999 1938 0e8d 5241 10e8 4d12     ...a..8...AR...M
    b90c:	5200 bb18 6e10 621c 9907 2470 0915 8747     .R...n.b..p$..G.
    b91c:	51d8 1336 4c4e d107 5300 b90f 6e12 0e51     .Q6.NL...S...nQ.
    b92c:	eac6 e2d7 2261 0121 1654 10ba 7c6e 8908     ....a"!.T...n|..
    b93c:	2248 a292 221c c887 d221 e843 0110 1755     H"..."..!.C...U.
    b94c:	10ba 506e 920e 508a 1424 4509 9142 2450     ..nP...P$..EB.P$
    b95c:	ad14 6959 5600 bc18 6e0e 0e94 8aa3 2458     ..Yi.V...n....X$
    b96c:	0996 8ab5 22c4 8039 a10e a483 5700 bc16     ....."9......W..
    b97c:	6e0e 0e94 8aa3 a458 285f 0922 3645 8e1a     .n....X._(".E6..
    b98c:	3a86 5801 ba18 6e10 0e90 8a21 2650 d292     .:.X...n..!.P&..
    b99c:	7201 5500 1324 484a 1087 5901 ba16 6e10     .r.U$.JH...Y...n
    b9ac:	0e90 8a21 2650 5a12 00e9 4439 110e 4d1b     ..!.P&.Z..9D...M
    b9bc:	5a00 b80e 6e12 d03c 534a a3ad e1da 5b40     .Z...n<.JS....@[
    b9cc:	f40b 6db8 461c 4ffa 0087 205c b309 c86d     ...m.F.O..\ ..m.
    b9dc:	7201 1c88 8720 01c8 8872 201c c887 7201     .r.. ...r.. ...r
    b9ec:	1c88 8720 01c8 8872 201c 0b5d b4f4 1c6d     .. ...r.. ]...m.
    b9fc:	fa42 874f 5e01 780d eeb2 8949 9134 2116     B.O..^.x..I.4..!
    ba0c:	0051 075f 902b 7c6d 6008 3407 6f36 14c8     Q._.+.m|.`.46o..
    ba1c:	1461 109a d96e 210e 1ca1 3a22 0e44 a912     a...n..!..":D...
    ba2c:	30e4 0ca9 1a62 10ca cc6e 7301 1c88 a122     .0..b...n..s..".
    ba3c:	421d 89b3 2254 4895 b325 6543 0242 1563     .B..T".H%.CeB.c.
    ba4c:	109a 516e 8744 6cc8 9522 21c8 c872 7270     ..nQD..l"..!r.pr
    ba5c:	9910 6400 ca19 6e10 01cf 8873 228c 443a     ...d...n..s..":D
    ba6c:	1366 44a9 912a 664a 83a3 3288 1065 109a     f..D*.Jf...2e...
    ba7c:	11ee 910f f961 40f0 1c87 0764 1866 12c9     ....a..@..d.f...
    ba8c:	99ee d24e e443 9310 e403 3900 0e40 1e90     ..N.C......9@...
    ba9c:	8722 0008 1a67 90da 516d 8726 44da 912a     "...g...mQ&..D*.
    baac:	a44a d992 10e8 c8a3 7221 ccc0 0358 1a68     J.......!r..X.h.
    babc:	10ca cc6e 7301 1c88 a122 421d 9133 2450     ..n..s.."..B3.P$
    bacc:	0914 4245 e909 2210 0e69 12c8 89ee c0e5     ..EB..."i.......
    badc:	595a 876f 0083 0f6a 9307 4a6d 90e5 55c3     ZYo...j...mJ...U
    baec:	3c7f 4a48 6b00 ca17 6e10 01cc 8873 221c     .<HJ.k...n..s.."
    bafc:	8922 9248 b561 192a d68a 046e 0b6c 12c8     ".H.a.*...n.l...
    bb0c:	d46e faca e1db 6d20 9c12 6e0e 244c 03a3     n..... m...nL$..
    bb1c:	3269 e911 42ff 5c99 6e16 9a15 6e10 484c     i2...B.\.n...nLH
    bb2c:	d107 244c 0914 4245 5091 3a42 0884 106f     ..L$..EB.PB:..o.
    bb3c:	109a 11ee 910f 9961 38b9 0439 0069 1b70     ......a..89.i.p.
    bb4c:	90da 4c6d 0748 6cd1 9522 2548 c952 726c     ..mLH..l".H%R.lr
    bb5c:	4908 7268 1c88 ad50 7102 da19 6d90 2651     .Ihr..P..q...mQ&
    bb6c:	da87 2a44 4a91 92a4 e8d9 a310 21c8 8872     ..D*.J.......!r.
    bb7c:	5ab8 1572 109a 906e 8726 4911 0734 21c8     .Zr...n.&..I4..!
    bb8c:	8872 10f8 843a 7300 980d ee12 0e1c ab43     r...:..s......C.
    bb9c:	e1f1 0130 1974 10ca c96e 7221 f888 3a10     ..0.t...n.!r...:
    bbac:	e504 3910 0e44 4391 a284 ac43 7504 9a15     ...9D..C..C..u..
    bbbc:	6e10 288c 9223 2450 0914 4245 6c91 1074     .n.(#.P$..EB.lt.
    bbcc:	0651 1476 109a 906e 210e 508a 9424 8489     Q.v...n..!.P$...
    bbdc:	2922 0e99 0210 1877 109b d06e 310e 288a     ")....w...n..1.(
    bbec:	32a4 4911 2226 6d0a 9432 6509 0022 1678     .2.I&".m2..e".x.
    bbfc:	109b 546e 930e 4c92 912a e603 8900 2654     ..nT...L*.....T&
    bc0c:	1caa 0526 1979 90da 906d 210e 508a 9424     ..&.y...m..!.P$.
    bc1c:	8489 2922 0e99 0390 80e4 d1a9 7a08 980c     ..").........z..
    bc2c:	6e12 d03c baa4 0e1d 7b04 f40c 6db6 4449     .n<......{...mID
    bc3c:	c8ba fa44 7c26 e207 6db8 00fc 0d7d b6f4     ..D.&|...m..}...
    bc4c:	c86d ba44 4449 22fa 7e02 380a ee92 0e8c     m.D.ID.".~.8....
    bc5c:	0a15 a000 0005 6e30 0ba1 98c3 486d 1284     ......0n....mH..
    bc6c:	e1c9 a201 d812 ee12 5589 872d 5919 933c     .........U-..Y<.
    bc7c:	8a9c 1962 a300 ba11 6e10 6f15 41da a362     ..b......n.o.Ab.
    bc8c:	0e59 1e90 005e 0fa4 3298 086e 130f 908b     Y...^....2n.....
    bc9c:	6251 0c39 a505 ba13 6e10 0e90 8a21 2650     Qb9......n..!.P&
    bcac:	5292 62cd d8b3 0268 08a6 b902 3c6d 0e1e     .R.b..h.....m<..
    bcbc:	19a7 d2e8 596d 1246 4499 935a 6450 0936     ....mYF..DZ.Pd6.
    bccc:	5645 c895 a224 0989 a800 2608 6f34 4888     EV..$......&4o.H
    bcdc:	a902 cb17 6e10 6f8e 924b 2e89 2114 4845     .....n.oK....!EH
    bcec:	65d1 9a22 cecd 0043 0caa 7486 4cee 1445     .e"...C....t.LE.
    bcfc:	249d 0362 0dab 3079 89ee a3f4 2848 8a12     .$b...y0....H(..
    bd0c:	ac04 490b 6e92 d03c 7201 0080 07ad 9228     ...I.n<..r....(.
    bd1c:	3c6e ae08 cb16 6e10 6f8e 164b 285d 4c2a     n<.....n.oK.](*L
    bd2c:	8a94 5284 ca19 43ce af00 2507 6f34 061c     ...R...C...%4o..
    bd3c:	0bb0 d455 4cee 6a62 0991 b100 aa12 6e10     ..U..Lbj.......n
    bd4c:	21ca 8872 70f0 ca30 7221 0784 b203 760b     .!r..p0.!r.....v
    bd5c:	eeb4 4450 9942 03a6 0db3 b476 50ee 4244     ..PDB.....v..PDB
    bd6c:	94d1 a124 b400 3408 6f38 9449 b500 da1c     ..$....48oI.....
    bd7c:	6d90 288c 9223 2450 0914 4245 6c91 9074     .m.(#.P$..EB.lt.
    bd8c:	2654 8872 221c c887 b601 e820 6dd2 2459     T&r..".... ..mY$
    bd9c:	a229 4448 8914 2288 4921 24da 891a a246     ).HD..."!I.$..F.
    bdac:	6891 1a24 4689 1362 b701 3206 6e78 b818     .h$..Fb....2xn..
    bdbc:	540a ed96 64c4 0907 b900 7609 6eb4 8889     .T...d.....v.n..
    bdcc:	193a 0dba 7486 50ee 4344 48e1 0742 bb18     :....t.PDC.HB...
    bddc:	790e 6e32 8488 a122 2848 6fd2 bc00 cb1c     .y2n..".H(.o....
    bdec:	6e10 01c9 90e4 2454 2994 248a 8b91 3254     .n....T$.).$..T2
    bdfc:	4494 9264 9290 2c25 bd01 cb17 6e10 01c9     .Dd...%,.....n..
    be0c:	90e4 2454 2994 288a 8887 a650 229f 0331     ..T$.).(..P.."1.
    be1c:	1dbe 10cb 90ee c245 4ca0 9334 444a 4a22     ......E..L4.JD"J
    be2c:	22c8 0c95 1125 2499 64a4 4b09 bf00 c710     ."..%..$.d.K....
    be3c:	ed94 e549 6d50 a1a4 7654 5490 c000 fc1d     ..I.Pm..Tv.T....
    be4c:	ee0e 81c9 a072 b51c b00e e843 3a10 2440     ....r.....C..:@$
    be5c:	4916 c10f 5043 74a9 1518 1dc1 0efc cb6e     .I..CP.t......n.
    be6c:	7241 1c90 0eb9 43b0 10e8 403a 1624 0f49     Ar.....C..:@$.I.
    be7c:	43c1 a950 1874 c215 fc1e ee0e 41ca 8074     .CP.t........At.
    be8c:	8e48 0756 21d8 0874 201d 8b12 87a4 21e0     H.V..!t.. .....!
    be9c:	54a8 8c3a c30a ec1c ee0e a44d 3992 1d62     .T:.......M..9b.
    beac:	8760 21d0 8074 2c48 1e92 8782 52a0 30e9     `..!t.H,.....R.0
    bebc:	c42a ec1c ee0e c489 3922 1d5a 8760 21d0     *......."9Z.`..!
    becc:	8074 2c48 1e92 8782 52a0 30e9 c52a fc20     t.H,.....R.0*. .
    bedc:	ee0e 41ca 90e9 1c50 0724 01d4 0876 421d     ...A..P.$...v..B
    beec:	8807 22c4 21e9 0878 952a a30e c602 bb16     ...".!x.*.......
    befc:	6e10 441d 1907 4549 a92c 4a85 ab56 5448     .n.D..IE,..JV.HT
    bf0c:	4c39 c70e 0a1d ed71 2451 8907 4cb0 c887     9L....q.Q$...L..
    bf1c:	7221 1c88 9524 441c 38e6 0e48 930b 0087     !r..$..D.8H.....
    bf2c:	1ac8 10fa c9ee 7241 1c90 387c 8498 8922     ......Ar..|8..".
    bf3c:	b552 912a 450a c3c2 0043 19c9 10fa cb6e     R.*..E..C.....n.
    bf4c:	7201 1c80 c1e1 1424 9449 55aa 5489 1228     .r....$.I..U.T(.
    bf5c:	1e1e ca02 fa1a 6e10 01ca 9154 7a1c 9838     .......n..T..z8.
    bf6c:	2284 5289 2ab5 0a91 c245 43c3 cb00 ea18     .".R.*..E..C....
    bf7c:	6e10 8a29 d0e4 c1c3 1424 9449 55aa 5489     .n).....$.I..U.T
    bf8c:	1228 1e1e cc02 f812 ee12 01c8 8072 781c     (...........r..x
    bf9c:	c838 fac4 3876 cd08 f80f ee12 076a 0e1e     8...v8......j...
    bfac:	b132 1dbe 020e 11ce 12f8 49ee 2269 e839     2..........Ii"9.
    bfbc:	9070 f589 70ed cf10 e810 ee12 b488 0e83     p....p..........
    bfcc:	9907 df58 070e d001 ba16 6e10 0edc a122     ..X........n..".
    bfdc:	7a48 49bb 12a4 44a9 3928 6e48 d100 ea1e     Hz.I...D(9Hn....
    bfec:	6e10 644d 3992 7478 5490 2266 4a92 4548     .nMd.9xt.Tf".JHE
    bffc:	1449 8911 b248 6549 9252 d200 fa17 ee10     I...H.IeR.......
    c00c:	41c9 9072 891c 0878 2509 9e62 4225 21d1     .Ar...x..%b.%B.!
    c01c:	0348 17d3 10fa cb6e 7201 1c80 788d 0908     H.....n..r...x..
    c02c:	6225 259e d142 4821 d403 fa17 6e10 01ca     %b.%B.!H.....n..
    c03c:	9154 851c 0878 2509 9e62 4225 21d1 0348     T...x..%b.%B.!H.
    c04c:	16d5 10ea 4d6e 9264 1239 10f1 4a12 3cc4     ....nMd.9....J.<
    c05c:	844b 43a2 0690 16d6 10ea 296e e48a c428     K..C......n)..(.
    c06c:	4843 1128 2cf3 8a11 410e 001a 16d7 10aa     CH(..,...A......
    c07c:	84ee c323 68c9 9926 a992 d913 3268 849c     ..#..h&.....h2..
    c08c:	0023 1bd8 eedc c3ed 1484 21d9 9b28 88a9     #..........!(...
    c09c:	8bf4 444c 0994 8785 8498 8728 d901 fa1c     ..LD......(.....
    c0ac:	6e10 41c9 9072 a11c 9072 8450 a122 2848     .n.Ar...r.P.".H(
    c0bc:	8a12 2284 68a1 4acd da03 fa1c 6e10 01cb     ...".h.J.....n..
    c0cc:	8072 a11c 9072 8450 a122 2848 8a12 2284     r...r.P.".H(..."
    c0dc:	68a1 4acd db03 fa1c 6e10 01ca 9154 5a1c     .h.J.....n..T..Z
    c0ec:	4839 4228 5091 1424 4509 9142 b450 a566     9H(B.P$..EB.P.f.
    c0fc:	dc01 ea1b 6e10 8a29 d0e4 41ca 1142 848a     .....n)....AB...
    c10c:	a122 2848 8a12 a284 2b35 000d 1bdd 10fa     ".H(....5+......
    c11c:	cb6e 7201 1c80 7481 5108 3284 d091 074a     n..r...t.Q.2..J.
    c12c:	21c8 8872 68d8 de02 ba16 6e10 e790 db90     .!r..h.....n....
    c13c:	2421 489c c225 21c9 9a74 c803 df00 c919     !$.H%..!t.......
    c14c:	6e12 6d11 324a 6891 9924 4689 8942 2250     .n.mJ2.h$..FB.P"
    c15c:	5509 a10e 0009 1ae0 10da c9ee 7241 1c90     .U..........Ar..
    c16c:	76c5 0908 10e5 21d1 9072 2548 4987 0065     .v.....!r.H%.Ie.
    c17c:	1ae1 10da cb6e 7201 1c80 76c9 0908 10e5     ....n..r...v....
    c18c:	21d1 9072 2548 4987 0065 1ae2 10da ca6e     .!r.H%.Ie.....n.
    c19c:	5401 1c91 76c1 0908 10e5 21d1 9072 2548     .T...v.....!r.H%
    c1ac:	4987 0065 19e3 10ca 4d6e 9264 8a39 10ed     .Ie.....nMd.9...
    c1bc:	ca12 a221 e443 9120 0e4a ca93 e400 ca18     ..!.C. .J.......
    c1cc:	6e10 8a29 08e4 43b6 2848 8887 910e 4483     .n)....CH(.....D
    c1dc:	392a 2a4c e503 ea1c 6e10 01ca 70a1 0e28     *9L*.....n...p(.
    c1ec:	2390 0ed9 a121 221c 443a 120e e4a9 a930     .#..!..":D....0.
    c1fc:	e60c 9a13 ee10 2650 9287 48a2 7872 1e12     ......P&...Hrx..
    c20c:	9426 0009 1be7 70ea 516d 8744 6cc8 9522     &......pmQD..l".
    c21c:	21c8 c872 7270 9910 20e3 4839 1e4c e802     .!r.pr... 9HL...
    c22c:	da15 ee10 41c9 9072 891c 8878 cb0c 0787     .....Ar...x.....
    c23c:	e43a 3b20 15e9 10da cb6e 7201 1c80 788d     :. ;....n..r...x
    c24c:	0c88 87cb 3a07 20e4 ea3b da15 6e10 01ca     .....:. ;....n..
    c25c:	9154 851c 8878 cb0c 0787 e43a 3b20 14eb     T...x.....:. ;..
    c26c:	10ca 296e e48a c428 6443 3e58 d03c 0721     ..n)..(.CdX><.!.
    c27c:	01d9 10ec 12d8 c96e 7201 1c80 acd6 c3b7     ......n..r......
    c28c:	0041 0eed 12d8 4a6e a1d5 b2b5 0ede 0107     A.....nJ........
    c29c:	0fee 12d8 49ee 2269 a839 d656 e1db ef20     .....Ii"9.V... .
    c2ac:	c80d 6e12 b488 9ac3 76f5 0838 16f0 10da     ...n.....v8.....
    c2bc:	0c6e 9525 7159 1232 4ece 32c2 7173 0872     n.%.Yq2..N.2sqr.
    c2cc:	00d2 19f1 10ca 4d6e 9264 7839 3a42 6688     ......nMd.9xB:.f
    c2dc:	a122 2848 8a12 1284 21d2 f244 da15 ee10     ".H(.....!D.....
    c2ec:	41c9 9072 891c 8878 cb0c c5cc 21c9 0348     .Ar...x......!H.
    c2fc:	15f3 10da cb6e 7201 1c80 788d 0c88 cccb     ....n..r...x....
    c30c:	c9c5 4821 f403 da15 6e10 01ca 9154 851c     ..!H.....n..T...
    c31c:	8878 cb0c c5cc 21c9 0348 14f5 10ca 4d6e     x......!H.....nM
    c32c:	9264 1239 10f1 9619 8b99 4393 0690 14f6     d.9........C....
    c33c:	10ca 296e e48a c428 6443 6658 4e2e 410e     ..n)..(.CdXf.N.A
    c34c:	001a 10f7 10aa ca6e 7221 876c 1d83 1c9b     ......n.!rl.....
    c35c:	0422 1af8 eebc c3ed 1484 21d9 2336 24c9     "..........!6#.$
    c36c:	5d22 2264 ecda 9310 e510 0030 1af9 10da     "]d"......0.....
    c37c:	c9ee 7241 1c90 a23c 488c 9142 2450 0914     ..Ar..<..HB.P$..
    c38c:	b245 41d1 1944 1afa 10da caee 7201 1c80     E..AD........r..
    c39c:	4465 9119 2284 48a1 1228 648a 83a3 3288     eD...".H(..d...2
    c3ac:	1afb 10da ca6e 5401 1c91 a23a 488c 9142     ....n..T..:..HB.
    c3bc:	2450 0914 b245 41d1 1944 19fc 10ca 296e     P$..E..AD.....n)
    c3cc:	e48a 11d0 4465 8a12 2284 48a1 9228 0e8d     ....eD...".H(...
    c3dc:	ca22 fd00 1a1f 6d91 01cb 8072 811c 0874     "......m..r...t.
    c3ec:	8451 a122 244c 4914 74c9 1c80 0720 8d4c     Q.".L$.I.t.. .L.
    c3fc:	0046 20fe 910a cc6d 7301 1c88 a122 421d     F.. ..m..s.."..B
    c40c:	89b3 2254 4895 b325 21c9 a124 21c9 4072     ..T".H%..!$..!r@
    c41c:	0ab5 1dff 910a 296d e48a d250 4421 8a11     ......m)..P.!D..
    c42c:	3284 5091 2524 01d3 8072 301c 1a35 0001     .2.P$%..r..05...
    c43c:	0000 ff04 00ff 0000                         ........

0000c444 <u8g2_font_crox1c_tr>:
    c444:	005f 0203 0404 0504 0805 000d 09fe 09fe     _...............
    c454:	01fe 0366 0434 20b9 0005 31b8 0821 0c91     ..f.4.. ...1!...
    c464:	0e31 0049 0822 6b33 1231 004b 1323 0997     1.I.".3k1.K.#...
    c474:	92f1 8930 2986 9309 8930 2986 9309 240c     ..0..)..0..)...$
    c484:	950d b10a 25b2 5753 d92d 0022 0f25 0997     .....%SW-.".%...
    c494:	d271 4b24 b4b2 925b 6925 2602 9710 b109     q.$K..[.%i.&....
    c4a4:	38c4 5207 8a31 a4a4 2d96 2702 3106 316c     .8.R1....-.'.1l1
    c4b4:	2806 b30c b0eb 2892 ba89 5945 2900 b30c     .(.....(..EY.)..
    c4c4:	30eb 28b2 ba8b 4944 2a04 570c 7129 d36c     .0.(..DI.*.W)ql.
    c4d4:	4430 a29b 2b00 770b f109 dae2 6430 0d71     0D...+.w....0dq.
    c4e4:	072c fb22 1470 2d00 1707 3139 010e 062e     ,.".p..-..91....
    c4f4:	0c11 0231 082f 1977 d3b1 033e 0a30 0a95     ..1./.w...>.0...
    c504:	9671 6fcc 02c9 0a31 0a95 a2b1 4fb1 0083     q..o..1......O..
    c514:	0b32 0a95 9671 ac2c 1c75 3304 950d 710a     2...q.,.u..3...q
    c524:	2c96 a92c 96a1 002c 0e34 0a95 32f1 1253     .,,...,.4....2S.
    c534:	a525 d064 01b2 0c35 0a95 8e31 21c5 b50d     %.d...5...1..!..
    c544:	0164 0e36 0a95 a4b1 0c2c 2487 25b3 000b     d.6.....,..$.%..
    c554:	0d37 0a95 6e31 1661 6166 6616 3800 950d     7...1na.fa.f.8..
    c564:	710a cc96 2c96 2d99 0059 0d39 0a95 9671     .q...,.-Y.9...q.
    c574:	96cc 610c 922d 3a00 6107 310c 00c2 083b     ...a-..:.a.1..;.
    c584:	fb72 7270 0148 083c 0a74 a2f1 06c6 083d     r.prH.<.t.....=.
    c594:	3a35 0631 1075 093e 0b74 c231 36a6 3f00     5:1.u.>.t.1..6.?
    c5a4:	950c 710a 2c96 15ac 2873 4002 9712 b109     ...q.,..s(.@....
    c5b4:	2886 1494 a2a5 9454 348a c0e5 4104 970f     .(....T..4...A..
    c5c4:	b109 6ae4 2612 6959 b290 00e4 1342 0997     ...j.&Yi....B...
    c5d4:	4e31 1261 6126 4832 1261 e126 2430 4300     1Na.&a2Ha.&.0$.C
    c5e4:	970e b109 2886 bb94 6103 2434 4400 9713     .....(...a4$.D..
    c5f4:	3109 ad06 2614 1261 6126 2612 3259 0048     .1...&a.&a.&Y2H.
    c604:	1145 0997 0e31 9849 51c4 6436 1651 c387     E...1.I..Q6dQ...
    c614:	4620 9711 3109 490e c498 3651 5164 a716      F...1.I..Q6dQ..
    c624:	0643 0f47 0997 86b1 9428 86db 0934 21a3     C.G.....(...4..!
    c634:	4801 9712 3109 2596 b28b 8b28 2906 b28b     .H...1.%..(..)..
    c644:	4b28 490e 950a 310a 2906 d3ec 4a20 960d     (K.I...1.).. J..
    c654:	b109 3086 92ed 5925 0134 114b 0997 2631     ...0..%Y4.K...1&
    c664:	8b25 516a 8496 9463 2655 4c01 970b 3109     %.jQ..c.U&.L...1
    c674:	3106 dbee 0830 124d 0997 3431 8b25 4914     .1..0.M...14%..I
    c684:	9291 5252 a2ca 392c 134e 0997 a431 8b25     ..RR..,9N...1.%.
    c694:	48a4 94aa 2922 b292 4a64 4f00 970c b109     .H..")..dJ.O....
    c6a4:	4ab6 35ea b2c9 5009 9710 3109 614e 2612     .J.5...P...1Na.&
    c6b4:	3261 7148 c875 5100 a70d b0f9 4ab6 35ea     a2Hqu..Q.....J.5
    c6c4:	b2c9 1151 1152 0997 4e31 1261 6126 4832     ..Q.R...1Na.&a2H
    c6d4:	28b5 4cab 5302 9710 7109 2506 7395 d060     .(.L.S...q.%.s`.
    c6e4:	5881 064d 5405 970b 3109 520e ee2d 0275     .XM..T...1.R-.u.
    c6f4:	1355 0997 9631 8b25 28b2 b28b 8b28 28b2     U...1.%..(..(..(
    c704:	26cb 5600 9711 3109 2596 b28b ab28 4984     .&.V...1.%..(..I
    c714:	a498 0671 1457 0997 9631 8b25 28b2 928b     ..q.W...1.%..(..
    c724:	5252 6a4a 9849 0044 0f58 0997 9631 ab25     RRJjI.D.X...1.%.
    c734:	4984 095a ac93 5972 970f 3109 2596 b28b     .IZ...rY...1.%..
    c744:	984a 71a4 0275 0e5a 0997 0e31 1a62 e5a7     J..qu.Z...1.b...
    c754:	1c34 0106 095b ebb3 8630 3fa8 5c0d 770f     4...[...0..?.\.w
    c764:	3119 2072 7207 0720 2072 0207 095d eba3     .1r .r .r ..]...
    c774:	a630 1a7e 5e02 3508 b17a a4b2 5f16 1807     0.~..^.5z...._..
    c784:	30e8 020e 0760 7b22 a231 6100 670f 7109     .0..`."{1..a.g.q
    c794:	1c86 0688 4c25 68c2 0248 1162 0997 e431     ....%L.hH.b...1.
    c7a4:	20f2 4985 8498 3849 090c 6300 670c 7109     . .I..I8...c.g.q
    c7b4:	2506 ab95 a0c9 6400 9710 3109 d2e5 84a0     .%.....d...1....
    c7c4:	9849 4984 0d18 6503 670d 7109 2506 ce1d     I..I...e.g.q.%..
    c7d4:	3269 0028 0c66 0a94 94b1 1a2c ac92 0869     i2(.f.....,...i.
    c7e4:	1067 e987 8670 4c21 24c2 068c 34b9 0044     g...p.!L.$...4D.
    c7f4:	0e68 0997 e431 4d16 45aa 9459 0725 0a69     h...1..M.EY.%.i.
    c804:	0a95 72b1 ec74 0834 0c6a eab4 72f0 c864     ...rt.4.j....rd.
    c814:	1b7a 0012 0e6b 0997 e431 a926 8496 1463     z...k...1.&...c.
    c824:	0269 096c 0a95 c471 1a7e 6d04 670f 3109     i.l...q.~..m.g.1
    c834:	2c96 2529 a4a5 5494 4494 0d6e 0967 1431     .,)%...T.Dn.g.1.
    c844:	aa4d 5945 2594 6f07 670b 7109 2506 4d75     M.EY.%.o.g.q.%uM
    c854:	0506 1070 e987 4e30 1261 6126 2612 9483     ..p...0Na.&a.&..
    c864:	008e 1071 e987 8670 4c21 24c2 c24c 9068     ..q...p.!L.$L.h.
    c874:	01d3 0b72 0967 1631 2a4d 0717 7309 670e     ..r.g.1.M*...s.g
    c884:	7109 2506 764d 4940 4193 7401 850c 710a     .q.%Mv@I.A.t...q
    c894:	6cc2 c288 48a6 7501 670e 3109 2924 b28b     .l...H.u.g.1$)..
    c8a4:	8b28 4d22 7611 670e 3109 2596 b28b 984a     (."M.v.g.1.%..J.
    c8b4:	19a4 7700 670f 3109 2596 928b 5252 c24b     ...w.g.1.%..RRK.
    c8c4:	0224 0b78 0967 9631 cb25 adc6 7972 870f     $.x.g.1.%...ry..
    c8d4:	30e9 2596 b28b 984a 71a4 0228 0b7a 0966     .0.%..J..q(.z.f.
    c8e4:	0e31 d859 0c36 7b01 b50b f0ea b0a4 0d49     1.Y.6..{......I.
    c8f4:	055b 067c ecc1 3e30 0c7d eab5 d430 55b0     [.|...0>}...0..U
    c904:	9b0a 0034 0a7e 5937 3471 d229 0014 0000     ..4.~.7Yq4).....
    c914:	0400 ffff 0000 0000                         ........

0000c91c <u8g2_font_t0_16b_mn>:
    c91c:	0212 0203 0404 0201 0805 000e 0cfe 0cfc     ................
    c92c:	00fc 0000 0100 2017 e807 e7c1 0fff 102a     ....... ......*.
    c93c:	c1e8 9ae7 8a65 0db8 3643 5a2a 159d 0c2b     ....e...C6*Z..+.
    c94c:	c1e8 7667 3e1b b264 199d 0a2c c1e8 bfe7     ..gv.>d...,.....
    c95c:	56ca 0539 0a2d c1e8 87e7 b0d3 03f3 0a2e     .V9.-...........
    c96c:	c1e8 bfe7 76ca 002a 0e2f c1e8 ad87 2ab2     .....v*./......*
    c97c:	b2ab ab2a 4eb2 1430 c1e8 8e27 a48a 9a29     ..*..N0...'...).
    c98c:	29a2 a29a 9a29 88a4 153b 0d31 c1e8 aaa7     .)..)...;.1.....
    c99c:	10e3 b226 a9df 3200 e813 a7c1 920d 68a6     ..&....2.......h
    c9ac:	eab2 261a 90c3 430c 034e 1433 c1e8 0da7     ...&...CN.3.....
    c9bc:	a692 7268 03ba a039 8a68 0d26 113a 1234     ..hr..9.h.&.:.4.
    c9cc:	c1e8 ab27 10e3 9a26 9922 2186 ed95 0044     ..'...&."..!..D.
    c9dc:	1535 c1e8 0da7 a0da c0e5 4610 203a 9a2b     5..........F: +.
    c9ec:	6922 4e43 3605 e813 27c1 990e 5b2a 49a6     "iCN.6...'..*[.I
    c9fc:	14d1 d14d 41a4 0227 1137 c1e8 0d27 3243     ..M..A'.7...'.C2
    ca0c:	490c ab18 2ab2 93bb 3801 e815 a7c1 920d     .I...*...8......
    ca1c:	68a6 2292 8a8e 29a4 a29a 8349 044e 1239     .h."...)..I.N.9.
    ca2c:	c1e8 0da7 a692 8a68 48a6 d917 0daa 1539     ......h..H....9.
    ca3c:	0c3a c1e8 8be7 276c 76c8 002a 0000 0400     :.....l'.v*.....
    ca4c:	ffff 0000                                   ....

0000ca50 <u8g2_cb_r0>:
    ca50:	0c74 0000 0ce8 0000 0c76 0000 0f4e 0000     t.......v...N...
    ca60:	0ede 0000 0f10 0000 0f16 0000 0f7a 0000     ............z...
    ca70:	0f80 0000                                   ....

0000ca74 <u8x8_d_ssd1306_128x64_noname_init_seq>:
    ca74:	1518 15ae 16d5 1580 16a8 153f 16d3 1500     ..........?.....
    ca84:	1540 168d 1514 1620 1500 15a1 15c8 16da     @..... .........
    ca94:	1512 1681 15cf 16d9 15f1 16db 1540 152e     ............@...
    caa4:	15a4 19a6 00ff 0000                         ........

0000caac <u8x8_ssd1306_128x64_noname_display_info>:
    caac:	0100 0a14 6464 3232 1200 007a 0400 9628     ....dd22..z...(.
    cabc:	0810 0000 0080 0040 0000 4316 f5c3 5c28     ......@....C..(\
    cacc:	c28f 3fc5 0000 0000 0000 4020 9c9a 99c9     ...?...... @....
    cadc:	c99c 3fe9 0000 447a 0000 0000 0000 0000     ...?..zD........
    caec:	0000 4082 0000 0000 bd00 40ff 4000 454e     ...@.......@.@NE
    cafc:	f000 457f 0000 0000 fe00 409f 0000 c47a     ...E.......@..z.
    cb0c:	0000 c248 0000 4248 3a56 0000 6625 0000     ..H...HBV:..%f..
    cb1c:	3a49 0000 200a 0000 18a0 0000 18e4 0000     I:... ..........
    cb2c:	18e4 0000 1882 0000 18bc 0000 18c2 0000     ................
    cb3c:	18e4 0000 18e4 0000 18e4 0000 18e4 0000     ................
    cb4c:	18e4 0000 18e4 0000 18a0 0000 0000 42c6     ...............B
    cb5c:	c000 4479 0000 3f80 0000 44e1 3c00 461c     ..yD...?...D.<.F
    cb6c:	0000 432a 0000 437a 0000 4334 0000 4370     ..*C..zC..4C..pC
    cb7c:	0000 4170 0000 0000 4000 408f cccd cccc     ..pA.....@.@....
    cb8c:	cccc 4023 999a 9999 f999 4058 7953 7473     ..#@......X@Syst
    cb9c:	6d65 6c43 3a6b 6425 0a0d 0000 7453 7261     emClk:%d....Star
    cbac:	6974 676e 0000 0000 3025 0064 2d25 2e34     ting....%0d.%-4.
    cbbc:	6630 0000 2d25 2e33 6632 0000 2d25 2e33     0f..%-3.2f..%-3.
    cbcc:	6631 0000 2d25 2e34 6632 0000 2d25 2e34     1f..%-4.2f..%-4.
    cbdc:	6631 0000 0041 0000 566b 0041 576b 0068     1f..A...kVA.kWh.
    cbec:	0056 0000 576b 0000 6670 0000 6f4c 2077     V...kW..pf..Low 
    cbfc:	6f56 746c 0000 0000 6948 6867 5620 6c6f     Volt....High Vol
    cc0c:	0074 0000 6f4e 6d72 6c61 0000 6948 6867     t...Normal..High
    cc1c:	4c20 616f 0064 0000 6552 7564 6563 4c20      Load...Reduce L
    cc2c:	616f 0064 6552 7473 7261 6974 676e 0000     oad.Restarting..
    cc3c:	7173 7472 0000 0000 742c ffff 72b0 ffff     sqrt....,t...r..
    cc4c:	73c0 ffff 73c8 ffff 73c0 ffff 72e0 ffff     .s...s...s...r..
    cc5c:	73c0 ffff 73c8 ffff 72b0 ffff 72b0 ffff     .s...s...r...r..
    cc6c:	72e0 ffff 73c8 ffff 7422 ffff 7422 ffff     .r...s.."t.."t..
    cc7c:	7422 ffff 72e0 ffff 7a24 ffff 7916 ffff     "t...r..$z...y..
    cc8c:	7916 ffff 7914 ffff 791c ffff 791c ffff     .y...y...y...y..
    cc9c:	78e2 ffff 7914 ffff 791c ffff 78e2 ffff     .x...y...y...x..
    ccac:	791c ffff 7914 ffff 7a10 ffff 7a10 ffff     .y...y...z...z..
    ccbc:	7a10 ffff 78e2 ffff 8b90 ffff 8ab6 ffff     .z...x..........
    cccc:	8b8a ffff 8abe ffff 8b8a ffff 8a84 ffff     ................
    ccdc:	8b8a ffff 8abe ffff 8ab6 ffff 8ab6 ffff     ................
    ccec:	8a84 ffff 8abe ffff 8ac4 ffff 8ac4 ffff     ................
    ccfc:	8ac4 ffff 8a84 ffff 8a76 ffff 8a76 ffff     ........v...v...
    cd0c:	8b4a ffff 8c26 ffff 8b4a ffff 8a44 ffff     J...&...J...D...
    cd1c:	8b4a ffff 8c26 ffff 8a76 ffff 8a76 ffff     J...&...v...v...
    cd2c:	8a44 ffff 8c26 ffff 8a84 ffff 8a84 ffff     D...&...........
    cd3c:	8a84 ffff 8a44 ffff 8e9a ffff 8dec ffff     ....D...........
    cd4c:	8dec ffff 8dea ffff 8df0 ffff 8df0 ffff     ................
    cd5c:	8dc0 ffff 8dea ffff 8df0 ffff 8dc0 ffff     ................
    cd6c:	8df0 ffff 8dea ffff 8e88 ffff 8e88 ffff     ................
    cd7c:	8e88 ffff 8dc0 ffff                         ........

0000cd84 <__clz_tab>:
    cd84:	0100 0202 0303 0303 0404 0404 0404 0404     ................
    cd94:	0505 0505 0505 0505 0505 0505 0505 0505     ................
    cda4:	0606 0606 0606 0606 0606 0606 0606 0606     ................
    cdb4:	0606 0606 0606 0606 0606 0606 0606 0606     ................
    cdc4:	0707 0707 0707 0707 0707 0707 0707 0707     ................
    cdd4:	0707 0707 0707 0707 0707 0707 0707 0707     ................
    cde4:	0707 0707 0707 0707 0707 0707 0707 0707     ................
    cdf4:	0707 0707 0707 0707 0707 0707 0707 0707     ................
    ce04:	0808 0808 0808 0808 0808 0808 0808 0808     ................
    ce14:	0808 0808 0808 0808 0808 0808 0808 0808     ................
    ce24:	0808 0808 0808 0808 0808 0808 0808 0808     ................
    ce34:	0808 0808 0808 0808 0808 0808 0808 0808     ................
    ce44:	0808 0808 0808 0808 0808 0808 0808 0808     ................
    ce54:	0808 0808 0808 0808 0808 0808 0808 0808     ................
    ce64:	0808 0808 0808 0808 0808 0808 0808 0808     ................
    ce74:	0808 0808 0808 0808 0808 0808 0808 0808     ................
    ce84:	0000 0000 ffff ffff ffff 7fef 4e49 0046     ............INF.
    ce94:	6e69 0066 414e 004e 616e 006e 0030 0000     inf.NAN.nan.0...
    cea4:	3130 3332 3534 3736 3938 4241 4443 4645     0123456789ABCDEF
    ceb4:	0000 0000 3130 3332 3534 3736 3938 6261     ....0123456789ab
    cec4:	6463 6665 0000 0000 2565 646c 0000 0000     cdef....e%ld....
    ced4:	0000 7fc0 a2bc ffff a2a8 ffff a2da ffff     ................
    cee4:	a2e0 ffff a2bc ffff 0000 0000 0000 0000     ................
    cef4:	0000 3fe0 0000 0000 0000 3ff0 0000 0000     ...?.......?....
    cf04:	0000 4000 0000 ffc0 ffff 41df 3595 94a0     ...@.......A.5..
    cf14:	ffff 3fdf e535 35af 0000 3fe0 3595 94a0     ...?5..5...?.5..
    cf24:	ffff 3fcf 666e 0000 6e69 7469 0079 0000     ...?nf..inity...
    cf34:	6e61 0000                                   an..

0000cf38 <fpi.3395>:
    cf38:	0035 0000 fbce ffff 03cb 0000 0001 0000     5...............
    cf48:	0000 0000                                   ....

0000cf4c <fpinan.3431>:
    cf4c:	0034 0000 fbce ffff 03cb 0000 0001 0000     4...............
    cf5c:	0000 0000                                   ....

0000cf60 <tinytens>:
    cf60:	89bc 97d8 d2b2 3c9c a733 d5a8 f623 3949     .......<3...#.I9
    cf70:	a73d 44f4 0ffd 32a5 979d cf8c ba08 255b     =..D...2......[%
    cf80:	6f43 64ac 0628 1168 0000 0000 0000 3ff8     Co.d(.h........?
    cf90:	4361 636f 87a7 3fd2 c8b3 8b60 8a28 3fc6     aCoc...?..`.(..?
    cfa0:	79fb 509f 4413 3fd3 0000 0000 0000 4024     .y.P.D.?......$@
    cfb0:	0000 0000 0000 401c 0000 0000 0000 4014     .......@.......@
    cfc0:	6e49 6966 696e 7974 0000 0000 614e 004e     Infinity....NaN.

0000cfd0 <__sf_fake_stderr>:
	...

0000cff0 <__sf_fake_stdin>:
	...

0000d010 <__sf_fake_stdout>:
	...
    d030:	0043 0000 4f50 4953 0058 0000 002e 0000     C...POSIX.......

0000d040 <__mprec_bigtens>:
    d040:	8000 37e0 c379 4341 6e17 b505 b8b5 4693     ...7y.AC.n.....F
    d050:	f9f5 e93f 4f03 4d38 1d32 f930 7748 5a82     ..?..O8M2.0.Hw.Z
    d060:	bf3c 7f73 4fdd 7515                         <.s..O.u

0000d068 <__mprec_tens>:
    d068:	0000 0000 0000 3ff0 0000 0000 0000 4024     .......?......$@
    d078:	0000 0000 0000 4059 0000 0000 4000 408f     ......Y@.....@.@
    d088:	0000 0000 8800 40c3 0000 0000 6a00 40f8     .......@.....j.@
    d098:	0000 0000 8480 412e 0000 0000 12d0 4163     .......A......cA
    d0a8:	0000 0000 d784 4197 0000 0000 cd65 41cd     .......A....e..A
    d0b8:	0000 2000 a05f 4202 0000 e800 4876 4237     ... _..B....vH7B
    d0c8:	0000 a200 1a94 426d 0000 e540 309c 42a2     ......mB..@..0.B
    d0d8:	0000 1e90 bcc4 42d6 0000 2634 6bf5 430c     .......B..4&.k.C
    d0e8:	8000 37e0 c379 4341 a000 85d8 3457 4376     ...7y.AC....W4vC
    d0f8:	c800 674e c16d 43ab 3d00 6091 58e4 43e1     ..Ngm..C.=.`.X.C
    d108:	8c40 78b5 af1d 4415 ef50 d6e2 1ae4 444b     @..x...DP.....KD
    d118:	d592 064d f0cf 4480 4af6 c7e1 2d02 44b5     ..M....D.J...-.D
    d128:	9db4 79d9 7843 44ea                         ...yCx.D

0000d130 <p05.3319>:
    d130:	0005 0000 0019 0000 007d 0000 2d23 2b30     ........}...#-0+
    d140:	0020 0000 6c68 004c 6665 4567 4746 0000      ...hlL.efgEFG..

0000d150 <_ctype_>:
    d150:	2000 2020 2020 2020 2020 2828 2828 2028     .         ((((( 
    d160:	2020 2020 2020 2020 2020 2020 2020 2020                     
    d170:	8820 1010 1010 1010 1010 1010 1010 1010      ...............
    d180:	0410 0404 0404 0404 0404 1004 1010 1010     ................
    d190:	1010 4141 4141 4141 0101 0101 0101 0101     ..AAAAAA........
    d1a0:	0101 0101 0101 0101 0101 0101 1010 1010     ................
    d1b0:	1010 4242 4242 4242 0202 0202 0202 0202     ..BBBBBB........
    d1c0:	0202 0202 0202 0202 0202 0202 1010 1010     ................
    d1d0:	0020 0000 0000 0000 0000 0000 0000 0000      ...............
	...
